{
    global: 
        lle_X__Z8prefetchPU3AS1Kcj;
        lle_X__Z8prefetchPU3AS1Khj;
        lle_X__Z8prefetchPU3AS1Ksj;
        lle_X__Z8prefetchPU3AS1Ktj;
        lle_X__Z8prefetchPU3AS1Kij;
        lle_X__Z8prefetchPU3AS1Kjj;
        lle_X__Z8prefetchPU3AS1Klj;
        lle_X__Z8prefetchPU3AS1Kmj;
        lle_X__Z8prefetchPU3AS1Kfj;
        lle_X__Z8prefetchPU3AS1KDv2_cj;
        lle_X__Z8prefetchPU3AS1KDv2_hj;
        lle_X__Z8prefetchPU3AS1KDv2_sj;
        lle_X__Z8prefetchPU3AS1KDv2_tj;
        lle_X__Z8prefetchPU3AS1KDv2_ij;
        lle_X__Z8prefetchPU3AS1KDv2_jj;
        lle_X__Z8prefetchPU3AS1KDv2_lj;
        lle_X__Z8prefetchPU3AS1KDv2_mj;
        lle_X__Z8prefetchPU3AS1KDv2_fj;
        lle_X__Z8prefetchPU3AS1KDv4_cj;
        lle_X__Z8prefetchPU3AS1KDv4_hj;
        lle_X__Z8prefetchPU3AS1KDv4_sj;
        lle_X__Z8prefetchPU3AS1KDv4_tj;
        lle_X__Z8prefetchPU3AS1KDv4_ij;
        lle_X__Z8prefetchPU3AS1KDv4_jj;
        lle_X__Z8prefetchPU3AS1KDv4_lj;
        lle_X__Z8prefetchPU3AS1KDv4_mj;
        lle_X__Z8prefetchPU3AS1KDv4_fj;
        lle_X__Z8prefetchPU3AS1KDv8_cj;
        lle_X__Z8prefetchPU3AS1KDv8_hj;
        lle_X__Z8prefetchPU3AS1KDv8_sj;
        lle_X__Z8prefetchPU3AS1KDv8_tj;
        lle_X__Z8prefetchPU3AS1KDv8_ij;
        lle_X__Z8prefetchPU3AS1KDv8_jj;
        lle_X__Z8prefetchPU3AS1KDv8_lj;
        lle_X__Z8prefetchPU3AS1KDv8_mj;
        lle_X__Z8prefetchPU3AS1KDv8_fj;
        lle_X__Z8prefetchPU3AS1KDv16_cj;
        lle_X__Z8prefetchPU3AS1KDv16_hj;
        lle_X__Z8prefetchPU3AS1KDv16_sj;
        lle_X__Z8prefetchPU3AS1KDv16_tj;
        lle_X__Z8prefetchPU3AS1KDv16_ij;
        lle_X__Z8prefetchPU3AS1KDv16_jj;
        lle_X__Z8prefetchPU3AS1KDv16_lj;
        lle_X__Z8prefetchPU3AS1KDv16_mj;
        lle_X__Z8prefetchPU3AS1KDv16_fj;
        lle_X__Z8prefetchPU3AS1Kdj;
        lle_X__Z8prefetchPU3AS1KDv2_dj;
        lle_X__Z8prefetchPU3AS1KDv4_dj;
        lle_X__Z8prefetchPU3AS1KDv8_dj;
        lle_X__Z8prefetchPU3AS1KDv16_dj;
        lle_X__Z21async_work_group_copyPU3AS3cPU3AS1Kcjj;
        lle_X__Z21async_work_group_copyPU3AS3hPU3AS1Khjj;
        lle_X__Z21async_work_group_copyPU3AS3sPU3AS1Ksjj;
        lle_X__Z21async_work_group_copyPU3AS3tPU3AS1Ktjj;
        lle_X__Z21async_work_group_copyPU3AS3iPU3AS1Kijj;
        lle_X__Z21async_work_group_copyPU3AS3jPU3AS1Kjjj;
        lle_X__Z21async_work_group_copyPU3AS3lPU3AS1Kljj;
        lle_X__Z21async_work_group_copyPU3AS3mPU3AS1Kmjj;
        lle_X__Z21async_work_group_copyPU3AS3fPU3AS1Kfjj;
        lle_X__Z21async_work_group_copyPU3AS3Dv2_cPU3AS1KS_jj;
        lle_X__Z21async_work_group_copyPU3AS3Dv2_hPU3AS1KS_jj;
        lle_X__Z21async_work_group_copyPU3AS3Dv2_sPU3AS1KS_jj;
        lle_X__Z21async_work_group_copyPU3AS3Dv2_tPU3AS1KS_jj;
        lle_X__Z21async_work_group_copyPU3AS3Dv2_iPU3AS1KS_jj;
        lle_X__Z21async_work_group_copyPU3AS3Dv2_jPU3AS1KS_jj;
        lle_X__Z21async_work_group_copyPU3AS3Dv2_lPU3AS1KS_jj;
        lle_X__Z21async_work_group_copyPU3AS3Dv2_mPU3AS1KS_jj;
        lle_X__Z21async_work_group_copyPU3AS3Dv2_fPU3AS1KS_jj;
        lle_X__Z21async_work_group_copyPU3AS3Dv4_cPU3AS1KS_jj;
        lle_X__Z21async_work_group_copyPU3AS3Dv4_hPU3AS1KS_jj;
        lle_X__Z21async_work_group_copyPU3AS3Dv4_sPU3AS1KS_jj;
        lle_X__Z21async_work_group_copyPU3AS3Dv4_tPU3AS1KS_jj;
        lle_X__Z21async_work_group_copyPU3AS3Dv4_iPU3AS1KS_jj;
        lle_X__Z21async_work_group_copyPU3AS3Dv4_jPU3AS1KS_jj;
        lle_X__Z21async_work_group_copyPU3AS3Dv4_lPU3AS1KS_jj;
        lle_X__Z21async_work_group_copyPU3AS3Dv4_mPU3AS1KS_jj;
        lle_X__Z21async_work_group_copyPU3AS3Dv4_fPU3AS1KS_jj;
        lle_X__Z21async_work_group_copyPU3AS3Dv8_cPU3AS1KS_jj;
        lle_X__Z21async_work_group_copyPU3AS3Dv8_hPU3AS1KS_jj;
        lle_X__Z21async_work_group_copyPU3AS3Dv8_sPU3AS1KS_jj;
        lle_X__Z21async_work_group_copyPU3AS3Dv8_tPU3AS1KS_jj;
        lle_X__Z21async_work_group_copyPU3AS3Dv8_iPU3AS1KS_jj;
        lle_X__Z21async_work_group_copyPU3AS3Dv8_jPU3AS1KS_jj;
        lle_X__Z21async_work_group_copyPU3AS3Dv8_lPU3AS1KS_jj;
        lle_X__Z21async_work_group_copyPU3AS3Dv8_mPU3AS1KS_jj;
        lle_X__Z21async_work_group_copyPU3AS3Dv8_fPU3AS1KS_jj;
        lle_X__Z21async_work_group_copyPU3AS3Dv16_cPU3AS1KS_jj;
        lle_X__Z21async_work_group_copyPU3AS3Dv16_hPU3AS1KS_jj;
        lle_X__Z21async_work_group_copyPU3AS3Dv16_sPU3AS1KS_jj;
        lle_X__Z21async_work_group_copyPU3AS3Dv16_tPU3AS1KS_jj;
        lle_X__Z21async_work_group_copyPU3AS3Dv16_iPU3AS1KS_jj;
        lle_X__Z21async_work_group_copyPU3AS3Dv16_jPU3AS1KS_jj;
        lle_X__Z21async_work_group_copyPU3AS3Dv16_lPU3AS1KS_jj;
        lle_X__Z21async_work_group_copyPU3AS3Dv16_mPU3AS1KS_jj;
        lle_X__Z21async_work_group_copyPU3AS3Dv16_fPU3AS1KS_jj;
        lle_X__Z21async_work_group_copyPU3AS1cPU3AS3Kcjj;
        lle_X__Z21async_work_group_copyPU3AS1hPU3AS3Khjj;
        lle_X__Z21async_work_group_copyPU3AS1sPU3AS3Ksjj;
        lle_X__Z21async_work_group_copyPU3AS1tPU3AS3Ktjj;
        lle_X__Z21async_work_group_copyPU3AS1iPU3AS3Kijj;
        lle_X__Z21async_work_group_copyPU3AS1jPU3AS3Kjjj;
        lle_X__Z21async_work_group_copyPU3AS1lPU3AS3Kljj;
        lle_X__Z21async_work_group_copyPU3AS1mPU3AS3Kmjj;
        lle_X__Z21async_work_group_copyPU3AS1fPU3AS3Kfjj;
        lle_X__Z21async_work_group_copyPU3AS1Dv2_cPU3AS3KS_jj;
        lle_X__Z21async_work_group_copyPU3AS1Dv2_hPU3AS3KS_jj;
        lle_X__Z21async_work_group_copyPU3AS1Dv2_sPU3AS3KS_jj;
        lle_X__Z21async_work_group_copyPU3AS1Dv2_tPU3AS3KS_jj;
        lle_X__Z21async_work_group_copyPU3AS1Dv2_iPU3AS3KS_jj;
        lle_X__Z21async_work_group_copyPU3AS1Dv2_jPU3AS3KS_jj;
        lle_X__Z21async_work_group_copyPU3AS1Dv2_lPU3AS3KS_jj;
        lle_X__Z21async_work_group_copyPU3AS1Dv2_mPU3AS3KS_jj;
        lle_X__Z21async_work_group_copyPU3AS1Dv2_fPU3AS3KS_jj;
        lle_X__Z21async_work_group_copyPU3AS1Dv4_cPU3AS3KS_jj;
        lle_X__Z21async_work_group_copyPU3AS1Dv4_hPU3AS3KS_jj;
        lle_X__Z21async_work_group_copyPU3AS1Dv4_sPU3AS3KS_jj;
        lle_X__Z21async_work_group_copyPU3AS1Dv4_tPU3AS3KS_jj;
        lle_X__Z21async_work_group_copyPU3AS1Dv4_iPU3AS3KS_jj;
        lle_X__Z21async_work_group_copyPU3AS1Dv4_jPU3AS3KS_jj;
        lle_X__Z21async_work_group_copyPU3AS1Dv4_lPU3AS3KS_jj;
        lle_X__Z21async_work_group_copyPU3AS1Dv4_mPU3AS3KS_jj;
        lle_X__Z21async_work_group_copyPU3AS1Dv4_fPU3AS3KS_jj;
        lle_X__Z21async_work_group_copyPU3AS1Dv8_cPU3AS3KS_jj;
        lle_X__Z21async_work_group_copyPU3AS1Dv8_hPU3AS3KS_jj;
        lle_X__Z21async_work_group_copyPU3AS1Dv8_sPU3AS3KS_jj;
        lle_X__Z21async_work_group_copyPU3AS1Dv8_tPU3AS3KS_jj;
        lle_X__Z21async_work_group_copyPU3AS1Dv8_iPU3AS3KS_jj;
        lle_X__Z21async_work_group_copyPU3AS1Dv8_jPU3AS3KS_jj;
        lle_X__Z21async_work_group_copyPU3AS1Dv8_lPU3AS3KS_jj;
        lle_X__Z21async_work_group_copyPU3AS1Dv8_mPU3AS3KS_jj;
        lle_X__Z21async_work_group_copyPU3AS1Dv8_fPU3AS3KS_jj;
        lle_X__Z21async_work_group_copyPU3AS1Dv16_cPU3AS3KS_jj;
        lle_X__Z21async_work_group_copyPU3AS1Dv16_hPU3AS3KS_jj;
        lle_X__Z21async_work_group_copyPU3AS1Dv16_sPU3AS3KS_jj;
        lle_X__Z21async_work_group_copyPU3AS1Dv16_tPU3AS3KS_jj;
        lle_X__Z21async_work_group_copyPU3AS1Dv16_iPU3AS3KS_jj;
        lle_X__Z21async_work_group_copyPU3AS1Dv16_jPU3AS3KS_jj;
        lle_X__Z21async_work_group_copyPU3AS1Dv16_lPU3AS3KS_jj;
        lle_X__Z21async_work_group_copyPU3AS1Dv16_mPU3AS3KS_jj;
        lle_X__Z21async_work_group_copyPU3AS1Dv16_fPU3AS3KS_jj;
        lle_X__Z21async_work_group_copyPU3AS3dPU3AS1Kdjj;
        lle_X__Z21async_work_group_copyPU3AS3Dv2_dPU3AS1KS_jj;
        lle_X__Z21async_work_group_copyPU3AS3Dv4_dPU3AS1KS_jj;
        lle_X__Z21async_work_group_copyPU3AS3Dv8_dPU3AS1KS_jj;
        lle_X__Z21async_work_group_copyPU3AS3Dv16_dPU3AS1KS_jj;
        lle_X__Z21async_work_group_copyPU3AS1dPU3AS3Kdjj;
        lle_X__Z21async_work_group_copyPU3AS1Dv2_dPU3AS3KS_jj;
        lle_X__Z21async_work_group_copyPU3AS1Dv4_dPU3AS3KS_jj;
        lle_X__Z21async_work_group_copyPU3AS1Dv8_dPU3AS3KS_jj;
        lle_X__Z21async_work_group_copyPU3AS1Dv16_dPU3AS3KS_jj;
        lle_X__Z17wait_group_eventsiPj;
        lle_X__Z29async_work_group_strided_copyPU3AS3cPU3AS1Kcjjj;
        lle_X__Z29async_work_group_strided_copyPU3AS3hPU3AS1Khjjj;
        lle_X__Z29async_work_group_strided_copyPU3AS3sPU3AS1Ksjjj;
        lle_X__Z29async_work_group_strided_copyPU3AS3tPU3AS1Ktjjj;
        lle_X__Z29async_work_group_strided_copyPU3AS3iPU3AS1Kijjj;
        lle_X__Z29async_work_group_strided_copyPU3AS3jPU3AS1Kjjjj;
        lle_X__Z29async_work_group_strided_copyPU3AS3lPU3AS1Kljjj;
        lle_X__Z29async_work_group_strided_copyPU3AS3mPU3AS1Kmjjj;
        lle_X__Z29async_work_group_strided_copyPU3AS3fPU3AS1Kfjjj;
        lle_X__Z29async_work_group_strided_copyPU3AS3Dv2_cPU3AS1KS_jjj;
        lle_X__Z29async_work_group_strided_copyPU3AS3Dv2_hPU3AS1KS_jjj;
        lle_X__Z29async_work_group_strided_copyPU3AS3Dv2_sPU3AS1KS_jjj;
        lle_X__Z29async_work_group_strided_copyPU3AS3Dv2_tPU3AS1KS_jjj;
        lle_X__Z29async_work_group_strided_copyPU3AS3Dv2_iPU3AS1KS_jjj;
        lle_X__Z29async_work_group_strided_copyPU3AS3Dv2_jPU3AS1KS_jjj;
        lle_X__Z29async_work_group_strided_copyPU3AS3Dv2_lPU3AS1KS_jjj;
        lle_X__Z29async_work_group_strided_copyPU3AS3Dv2_mPU3AS1KS_jjj;
        lle_X__Z29async_work_group_strided_copyPU3AS3Dv2_fPU3AS1KS_jjj;
        lle_X__Z29async_work_group_strided_copyPU3AS3Dv4_cPU3AS1KS_jjj;
        lle_X__Z29async_work_group_strided_copyPU3AS3Dv4_hPU3AS1KS_jjj;
        lle_X__Z29async_work_group_strided_copyPU3AS3Dv4_sPU3AS1KS_jjj;
        lle_X__Z29async_work_group_strided_copyPU3AS3Dv4_tPU3AS1KS_jjj;
        lle_X__Z29async_work_group_strided_copyPU3AS3Dv4_iPU3AS1KS_jjj;
        lle_X__Z29async_work_group_strided_copyPU3AS3Dv4_jPU3AS1KS_jjj;
        lle_X__Z29async_work_group_strided_copyPU3AS3Dv4_lPU3AS1KS_jjj;
        lle_X__Z29async_work_group_strided_copyPU3AS3Dv4_mPU3AS1KS_jjj;
        lle_X__Z29async_work_group_strided_copyPU3AS3Dv4_fPU3AS1KS_jjj;
        lle_X__Z29async_work_group_strided_copyPU3AS3Dv8_cPU3AS1KS_jjj;
        lle_X__Z29async_work_group_strided_copyPU3AS3Dv8_hPU3AS1KS_jjj;
        lle_X__Z29async_work_group_strided_copyPU3AS3Dv8_sPU3AS1KS_jjj;
        lle_X__Z29async_work_group_strided_copyPU3AS3Dv8_tPU3AS1KS_jjj;
        lle_X__Z29async_work_group_strided_copyPU3AS3Dv8_iPU3AS1KS_jjj;
        lle_X__Z29async_work_group_strided_copyPU3AS3Dv8_jPU3AS1KS_jjj;
        lle_X__Z29async_work_group_strided_copyPU3AS3Dv8_lPU3AS1KS_jjj;
        lle_X__Z29async_work_group_strided_copyPU3AS3Dv8_mPU3AS1KS_jjj;
        lle_X__Z29async_work_group_strided_copyPU3AS3Dv8_fPU3AS1KS_jjj;
        lle_X__Z29async_work_group_strided_copyPU3AS3Dv16_cPU3AS1KS_jjj;
        lle_X__Z29async_work_group_strided_copyPU3AS3Dv16_hPU3AS1KS_jjj;
        lle_X__Z29async_work_group_strided_copyPU3AS3Dv16_sPU3AS1KS_jjj;
        lle_X__Z29async_work_group_strided_copyPU3AS3Dv16_tPU3AS1KS_jjj;
        lle_X__Z29async_work_group_strided_copyPU3AS3Dv16_iPU3AS1KS_jjj;
        lle_X__Z29async_work_group_strided_copyPU3AS3Dv16_jPU3AS1KS_jjj;
        lle_X__Z29async_work_group_strided_copyPU3AS3Dv16_lPU3AS1KS_jjj;
        lle_X__Z29async_work_group_strided_copyPU3AS3Dv16_mPU3AS1KS_jjj;
        lle_X__Z29async_work_group_strided_copyPU3AS3Dv16_fPU3AS1KS_jjj;
        lle_X__Z29async_work_group_strided_copyPU3AS1cPU3AS3Kcjjj;
        lle_X__Z29async_work_group_strided_copyPU3AS1hPU3AS3Khjjj;
        lle_X__Z29async_work_group_strided_copyPU3AS1sPU3AS3Ksjjj;
        lle_X__Z29async_work_group_strided_copyPU3AS1tPU3AS3Ktjjj;
        lle_X__Z29async_work_group_strided_copyPU3AS1iPU3AS3Kijjj;
        lle_X__Z29async_work_group_strided_copyPU3AS1jPU3AS3Kjjjj;
        lle_X__Z29async_work_group_strided_copyPU3AS1lPU3AS3Kljjj;
        lle_X__Z29async_work_group_strided_copyPU3AS1mPU3AS3Kmjjj;
        lle_X__Z29async_work_group_strided_copyPU3AS1fPU3AS3Kfjjj;
        lle_X__Z29async_work_group_strided_copyPU3AS1Dv2_cPU3AS3KS_jjj;
        lle_X__Z29async_work_group_strided_copyPU3AS1Dv2_hPU3AS3KS_jjj;
        lle_X__Z29async_work_group_strided_copyPU3AS1Dv2_sPU3AS3KS_jjj;
        lle_X__Z29async_work_group_strided_copyPU3AS1Dv2_tPU3AS3KS_jjj;
        lle_X__Z29async_work_group_strided_copyPU3AS1Dv2_iPU3AS3KS_jjj;
        lle_X__Z29async_work_group_strided_copyPU3AS1Dv2_jPU3AS3KS_jjj;
        lle_X__Z29async_work_group_strided_copyPU3AS1Dv2_lPU3AS3KS_jjj;
        lle_X__Z29async_work_group_strided_copyPU3AS1Dv2_mPU3AS3KS_jjj;
        lle_X__Z29async_work_group_strided_copyPU3AS1Dv2_fPU3AS3KS_jjj;
        lle_X__Z29async_work_group_strided_copyPU3AS1Dv4_cPU3AS3KS_jjj;
        lle_X__Z29async_work_group_strided_copyPU3AS1Dv4_hPU3AS3KS_jjj;
        lle_X__Z29async_work_group_strided_copyPU3AS1Dv4_sPU3AS3KS_jjj;
        lle_X__Z29async_work_group_strided_copyPU3AS1Dv4_tPU3AS3KS_jjj;
        lle_X__Z29async_work_group_strided_copyPU3AS1Dv4_iPU3AS3KS_jjj;
        lle_X__Z29async_work_group_strided_copyPU3AS1Dv4_jPU3AS3KS_jjj;
        lle_X__Z29async_work_group_strided_copyPU3AS1Dv4_lPU3AS3KS_jjj;
        lle_X__Z29async_work_group_strided_copyPU3AS1Dv4_mPU3AS3KS_jjj;
        lle_X__Z29async_work_group_strided_copyPU3AS1Dv4_fPU3AS3KS_jjj;
        lle_X__Z29async_work_group_strided_copyPU3AS1Dv8_cPU3AS3KS_jjj;
        lle_X__Z29async_work_group_strided_copyPU3AS1Dv8_hPU3AS3KS_jjj;
        lle_X__Z29async_work_group_strided_copyPU3AS1Dv8_sPU3AS3KS_jjj;
        lle_X__Z29async_work_group_strided_copyPU3AS1Dv8_tPU3AS3KS_jjj;
        lle_X__Z29async_work_group_strided_copyPU3AS1Dv8_iPU3AS3KS_jjj;
        lle_X__Z29async_work_group_strided_copyPU3AS1Dv8_jPU3AS3KS_jjj;
        lle_X__Z29async_work_group_strided_copyPU3AS1Dv8_lPU3AS3KS_jjj;
        lle_X__Z29async_work_group_strided_copyPU3AS1Dv8_mPU3AS3KS_jjj;
        lle_X__Z29async_work_group_strided_copyPU3AS1Dv8_fPU3AS3KS_jjj;
        lle_X__Z29async_work_group_strided_copyPU3AS1Dv16_cPU3AS3KS_jjj;
        lle_X__Z29async_work_group_strided_copyPU3AS1Dv16_hPU3AS3KS_jjj;
        lle_X__Z29async_work_group_strided_copyPU3AS1Dv16_sPU3AS3KS_jjj;
        lle_X__Z29async_work_group_strided_copyPU3AS1Dv16_tPU3AS3KS_jjj;
        lle_X__Z29async_work_group_strided_copyPU3AS1Dv16_iPU3AS3KS_jjj;
        lle_X__Z29async_work_group_strided_copyPU3AS1Dv16_jPU3AS3KS_jjj;
        lle_X__Z29async_work_group_strided_copyPU3AS1Dv16_lPU3AS3KS_jjj;
        lle_X__Z29async_work_group_strided_copyPU3AS1Dv16_mPU3AS3KS_jjj;
        lle_X__Z29async_work_group_strided_copyPU3AS1Dv16_fPU3AS3KS_jjj;
        lle_X__Z29async_work_group_strided_copyPU3AS3dPU3AS1Kdjjj;
        lle_X__Z29async_work_group_strided_copyPU3AS3Dv2_dPU3AS1KS_jjj;
        lle_X__Z29async_work_group_strided_copyPU3AS3Dv4_dPU3AS1KS_jjj;
        lle_X__Z29async_work_group_strided_copyPU3AS3Dv8_dPU3AS1KS_jjj;
        lle_X__Z29async_work_group_strided_copyPU3AS3Dv16_dPU3AS1KS_jjj;
        lle_X__Z29async_work_group_strided_copyPU3AS1dPU3AS3Kdjjj;
        lle_X__Z29async_work_group_strided_copyPU3AS1Dv2_dPU3AS3KS_jjj;
        lle_X__Z29async_work_group_strided_copyPU3AS1Dv4_dPU3AS3KS_jjj;
        lle_X__Z29async_work_group_strided_copyPU3AS1Dv8_dPU3AS3KS_jjj;
        lle_X__Z29async_work_group_strided_copyPU3AS1Dv16_dPU3AS3KS_jjj;
        lle_X__Z8prefetchPU3AS1Kcm;
        lle_X__Z8prefetchPU3AS1Khm;
        lle_X__Z8prefetchPU3AS1Ksm;
        lle_X__Z8prefetchPU3AS1Ktm;
        lle_X__Z8prefetchPU3AS1Kim;
        lle_X__Z8prefetchPU3AS1Kjm;
        lle_X__Z8prefetchPU3AS1Klm;
        lle_X__Z8prefetchPU3AS1Kmm;
        lle_X__Z8prefetchPU3AS1Kfm;
        lle_X__Z8prefetchPU3AS1KDv2_cm;
        lle_X__Z8prefetchPU3AS1KDv2_hm;
        lle_X__Z8prefetchPU3AS1KDv2_sm;
        lle_X__Z8prefetchPU3AS1KDv2_tm;
        lle_X__Z8prefetchPU3AS1KDv2_im;
        lle_X__Z8prefetchPU3AS1KDv2_jm;
        lle_X__Z8prefetchPU3AS1KDv2_lm;
        lle_X__Z8prefetchPU3AS1KDv2_mm;
        lle_X__Z8prefetchPU3AS1KDv2_fm;
        lle_X__Z8prefetchPU3AS1KDv4_cm;
        lle_X__Z8prefetchPU3AS1KDv4_hm;
        lle_X__Z8prefetchPU3AS1KDv4_sm;
        lle_X__Z8prefetchPU3AS1KDv4_tm;
        lle_X__Z8prefetchPU3AS1KDv4_im;
        lle_X__Z8prefetchPU3AS1KDv4_jm;
        lle_X__Z8prefetchPU3AS1KDv4_lm;
        lle_X__Z8prefetchPU3AS1KDv4_mm;
        lle_X__Z8prefetchPU3AS1KDv4_fm;
        lle_X__Z8prefetchPU3AS1KDv8_cm;
        lle_X__Z8prefetchPU3AS1KDv8_hm;
        lle_X__Z8prefetchPU3AS1KDv8_sm;
        lle_X__Z8prefetchPU3AS1KDv8_tm;
        lle_X__Z8prefetchPU3AS1KDv8_im;
        lle_X__Z8prefetchPU3AS1KDv8_jm;
        lle_X__Z8prefetchPU3AS1KDv8_lm;
        lle_X__Z8prefetchPU3AS1KDv8_mm;
        lle_X__Z8prefetchPU3AS1KDv8_fm;
        lle_X__Z8prefetchPU3AS1KDv16_cm;
        lle_X__Z8prefetchPU3AS1KDv16_hm;
        lle_X__Z8prefetchPU3AS1KDv16_sm;
        lle_X__Z8prefetchPU3AS1KDv16_tm;
        lle_X__Z8prefetchPU3AS1KDv16_im;
        lle_X__Z8prefetchPU3AS1KDv16_jm;
        lle_X__Z8prefetchPU3AS1KDv16_lm;
        lle_X__Z8prefetchPU3AS1KDv16_mm;
        lle_X__Z8prefetchPU3AS1KDv16_fm;
        lle_X__Z8prefetchPU3AS1Kdm;
        lle_X__Z8prefetchPU3AS1KDv2_dm;
        lle_X__Z8prefetchPU3AS1KDv4_dm;
        lle_X__Z8prefetchPU3AS1KDv8_dm;
        lle_X__Z8prefetchPU3AS1KDv16_dm;
        lle_X__Z21async_work_group_copyPU3AS3cPU3AS1Kcmm;
        lle_X__Z21async_work_group_copyPU3AS3hPU3AS1Khmm;
        lle_X__Z21async_work_group_copyPU3AS3sPU3AS1Ksmm;
        lle_X__Z21async_work_group_copyPU3AS3tPU3AS1Ktmm;
        lle_X__Z21async_work_group_copyPU3AS3iPU3AS1Kimm;
        lle_X__Z21async_work_group_copyPU3AS3jPU3AS1Kjmm;
        lle_X__Z21async_work_group_copyPU3AS3lPU3AS1Klmm;
        lle_X__Z21async_work_group_copyPU3AS3mPU3AS1Kmmm;
        lle_X__Z21async_work_group_copyPU3AS3fPU3AS1Kfmm;
        lle_X__Z21async_work_group_copyPU3AS3Dv2_cPU3AS1KS_mm;
        lle_X__Z21async_work_group_copyPU3AS3Dv2_hPU3AS1KS_mm;
        lle_X__Z21async_work_group_copyPU3AS3Dv2_sPU3AS1KS_mm;
        lle_X__Z21async_work_group_copyPU3AS3Dv2_tPU3AS1KS_mm;
        lle_X__Z21async_work_group_copyPU3AS3Dv2_iPU3AS1KS_mm;
        lle_X__Z21async_work_group_copyPU3AS3Dv2_jPU3AS1KS_mm;
        lle_X__Z21async_work_group_copyPU3AS3Dv2_lPU3AS1KS_mm;
        lle_X__Z21async_work_group_copyPU3AS3Dv2_mPU3AS1KS_mm;
        lle_X__Z21async_work_group_copyPU3AS3Dv2_fPU3AS1KS_mm;
        lle_X__Z21async_work_group_copyPU3AS3Dv4_cPU3AS1KS_mm;
        lle_X__Z21async_work_group_copyPU3AS3Dv4_hPU3AS1KS_mm;
        lle_X__Z21async_work_group_copyPU3AS3Dv4_sPU3AS1KS_mm;
        lle_X__Z21async_work_group_copyPU3AS3Dv4_tPU3AS1KS_mm;
        lle_X__Z21async_work_group_copyPU3AS3Dv4_iPU3AS1KS_mm;
        lle_X__Z21async_work_group_copyPU3AS3Dv4_jPU3AS1KS_mm;
        lle_X__Z21async_work_group_copyPU3AS3Dv4_lPU3AS1KS_mm;
        lle_X__Z21async_work_group_copyPU3AS3Dv4_mPU3AS1KS_mm;
        lle_X__Z21async_work_group_copyPU3AS3Dv4_fPU3AS1KS_mm;
        lle_X__Z21async_work_group_copyPU3AS3Dv8_cPU3AS1KS_mm;
        lle_X__Z21async_work_group_copyPU3AS3Dv8_hPU3AS1KS_mm;
        lle_X__Z21async_work_group_copyPU3AS3Dv8_sPU3AS1KS_mm;
        lle_X__Z21async_work_group_copyPU3AS3Dv8_tPU3AS1KS_mm;
        lle_X__Z21async_work_group_copyPU3AS3Dv8_iPU3AS1KS_mm;
        lle_X__Z21async_work_group_copyPU3AS3Dv8_jPU3AS1KS_mm;
        lle_X__Z21async_work_group_copyPU3AS3Dv8_lPU3AS1KS_mm;
        lle_X__Z21async_work_group_copyPU3AS3Dv8_mPU3AS1KS_mm;
        lle_X__Z21async_work_group_copyPU3AS3Dv8_fPU3AS1KS_mm;
        lle_X__Z21async_work_group_copyPU3AS3Dv16_cPU3AS1KS_mm;
        lle_X__Z21async_work_group_copyPU3AS3Dv16_hPU3AS1KS_mm;
        lle_X__Z21async_work_group_copyPU3AS3Dv16_sPU3AS1KS_mm;
        lle_X__Z21async_work_group_copyPU3AS3Dv16_tPU3AS1KS_mm;
        lle_X__Z21async_work_group_copyPU3AS3Dv16_iPU3AS1KS_mm;
        lle_X__Z21async_work_group_copyPU3AS3Dv16_jPU3AS1KS_mm;
        lle_X__Z21async_work_group_copyPU3AS3Dv16_lPU3AS1KS_mm;
        lle_X__Z21async_work_group_copyPU3AS3Dv16_mPU3AS1KS_mm;
        lle_X__Z21async_work_group_copyPU3AS3Dv16_fPU3AS1KS_mm;
        lle_X__Z21async_work_group_copyPU3AS1cPU3AS3Kcmm;
        lle_X__Z21async_work_group_copyPU3AS1hPU3AS3Khmm;
        lle_X__Z21async_work_group_copyPU3AS1sPU3AS3Ksmm;
        lle_X__Z21async_work_group_copyPU3AS1tPU3AS3Ktmm;
        lle_X__Z21async_work_group_copyPU3AS1iPU3AS3Kimm;
        lle_X__Z21async_work_group_copyPU3AS1jPU3AS3Kjmm;
        lle_X__Z21async_work_group_copyPU3AS1lPU3AS3Klmm;
        lle_X__Z21async_work_group_copyPU3AS1mPU3AS3Kmmm;
        lle_X__Z21async_work_group_copyPU3AS1fPU3AS3Kfmm;
        lle_X__Z21async_work_group_copyPU3AS1Dv2_cPU3AS3KS_mm;
        lle_X__Z21async_work_group_copyPU3AS1Dv2_hPU3AS3KS_mm;
        lle_X__Z21async_work_group_copyPU3AS1Dv2_sPU3AS3KS_mm;
        lle_X__Z21async_work_group_copyPU3AS1Dv2_tPU3AS3KS_mm;
        lle_X__Z21async_work_group_copyPU3AS1Dv2_iPU3AS3KS_mm;
        lle_X__Z21async_work_group_copyPU3AS1Dv2_jPU3AS3KS_mm;
        lle_X__Z21async_work_group_copyPU3AS1Dv2_lPU3AS3KS_mm;
        lle_X__Z21async_work_group_copyPU3AS1Dv2_mPU3AS3KS_mm;
        lle_X__Z21async_work_group_copyPU3AS1Dv2_fPU3AS3KS_mm;
        lle_X__Z21async_work_group_copyPU3AS1Dv4_cPU3AS3KS_mm;
        lle_X__Z21async_work_group_copyPU3AS1Dv4_hPU3AS3KS_mm;
        lle_X__Z21async_work_group_copyPU3AS1Dv4_sPU3AS3KS_mm;
        lle_X__Z21async_work_group_copyPU3AS1Dv4_tPU3AS3KS_mm;
        lle_X__Z21async_work_group_copyPU3AS1Dv4_iPU3AS3KS_mm;
        lle_X__Z21async_work_group_copyPU3AS1Dv4_jPU3AS3KS_mm;
        lle_X__Z21async_work_group_copyPU3AS1Dv4_lPU3AS3KS_mm;
        lle_X__Z21async_work_group_copyPU3AS1Dv4_mPU3AS3KS_mm;
        lle_X__Z21async_work_group_copyPU3AS1Dv4_fPU3AS3KS_mm;
        lle_X__Z21async_work_group_copyPU3AS1Dv8_cPU3AS3KS_mm;
        lle_X__Z21async_work_group_copyPU3AS1Dv8_hPU3AS3KS_mm;
        lle_X__Z21async_work_group_copyPU3AS1Dv8_sPU3AS3KS_mm;
        lle_X__Z21async_work_group_copyPU3AS1Dv8_tPU3AS3KS_mm;
        lle_X__Z21async_work_group_copyPU3AS1Dv8_iPU3AS3KS_mm;
        lle_X__Z21async_work_group_copyPU3AS1Dv8_jPU3AS3KS_mm;
        lle_X__Z21async_work_group_copyPU3AS1Dv8_lPU3AS3KS_mm;
        lle_X__Z21async_work_group_copyPU3AS1Dv8_mPU3AS3KS_mm;
        lle_X__Z21async_work_group_copyPU3AS1Dv8_fPU3AS3KS_mm;
        lle_X__Z21async_work_group_copyPU3AS1Dv16_cPU3AS3KS_mm;
        lle_X__Z21async_work_group_copyPU3AS1Dv16_hPU3AS3KS_mm;
        lle_X__Z21async_work_group_copyPU3AS1Dv16_sPU3AS3KS_mm;
        lle_X__Z21async_work_group_copyPU3AS1Dv16_tPU3AS3KS_mm;
        lle_X__Z21async_work_group_copyPU3AS1Dv16_iPU3AS3KS_mm;
        lle_X__Z21async_work_group_copyPU3AS1Dv16_jPU3AS3KS_mm;
        lle_X__Z21async_work_group_copyPU3AS1Dv16_lPU3AS3KS_mm;
        lle_X__Z21async_work_group_copyPU3AS1Dv16_mPU3AS3KS_mm;
        lle_X__Z21async_work_group_copyPU3AS1Dv16_fPU3AS3KS_mm;
        lle_X__Z21async_work_group_copyPU3AS3dPU3AS1Kdmm;
        lle_X__Z21async_work_group_copyPU3AS3Dv2_dPU3AS1KS_mm;
        lle_X__Z21async_work_group_copyPU3AS3Dv4_dPU3AS1KS_mm;
        lle_X__Z21async_work_group_copyPU3AS3Dv8_dPU3AS1KS_mm;
        lle_X__Z21async_work_group_copyPU3AS3Dv16_dPU3AS1KS_mm;
        lle_X__Z21async_work_group_copyPU3AS1dPU3AS3Kdmm;
        lle_X__Z21async_work_group_copyPU3AS1Dv2_dPU3AS3KS_mm;
        lle_X__Z21async_work_group_copyPU3AS1Dv4_dPU3AS3KS_mm;
        lle_X__Z21async_work_group_copyPU3AS1Dv8_dPU3AS3KS_mm;
        lle_X__Z21async_work_group_copyPU3AS1Dv16_dPU3AS3KS_mm;
        lle_X__Z17wait_group_eventsiPm;
        lle_X__Z29async_work_group_strided_copyPU3AS3cPU3AS1Kcmmm;
        lle_X__Z29async_work_group_strided_copyPU3AS3hPU3AS1Khmmm;
        lle_X__Z29async_work_group_strided_copyPU3AS3sPU3AS1Ksmmm;
        lle_X__Z29async_work_group_strided_copyPU3AS3tPU3AS1Ktmmm;
        lle_X__Z29async_work_group_strided_copyPU3AS3iPU3AS1Kimmm;
        lle_X__Z29async_work_group_strided_copyPU3AS3jPU3AS1Kjmmm;
        lle_X__Z29async_work_group_strided_copyPU3AS3lPU3AS1Klmmm;
        lle_X__Z29async_work_group_strided_copyPU3AS3mPU3AS1Kmmmm;
        lle_X__Z29async_work_group_strided_copyPU3AS3fPU3AS1Kfmmm;
        lle_X__Z29async_work_group_strided_copyPU3AS3Dv2_cPU3AS1KS_mmm;
        lle_X__Z29async_work_group_strided_copyPU3AS3Dv2_hPU3AS1KS_mmm;
        lle_X__Z29async_work_group_strided_copyPU3AS3Dv2_sPU3AS1KS_mmm;
        lle_X__Z29async_work_group_strided_copyPU3AS3Dv2_tPU3AS1KS_mmm;
        lle_X__Z29async_work_group_strided_copyPU3AS3Dv2_iPU3AS1KS_mmm;
        lle_X__Z29async_work_group_strided_copyPU3AS3Dv2_jPU3AS1KS_mmm;
        lle_X__Z29async_work_group_strided_copyPU3AS3Dv2_lPU3AS1KS_mmm;
        lle_X__Z29async_work_group_strided_copyPU3AS3Dv2_mPU3AS1KS_mmm;
        lle_X__Z29async_work_group_strided_copyPU3AS3Dv2_fPU3AS1KS_mmm;
        lle_X__Z29async_work_group_strided_copyPU3AS3Dv4_cPU3AS1KS_mmm;
        lle_X__Z29async_work_group_strided_copyPU3AS3Dv4_hPU3AS1KS_mmm;
        lle_X__Z29async_work_group_strided_copyPU3AS3Dv4_sPU3AS1KS_mmm;
        lle_X__Z29async_work_group_strided_copyPU3AS3Dv4_tPU3AS1KS_mmm;
        lle_X__Z29async_work_group_strided_copyPU3AS3Dv4_iPU3AS1KS_mmm;
        lle_X__Z29async_work_group_strided_copyPU3AS3Dv4_jPU3AS1KS_mmm;
        lle_X__Z29async_work_group_strided_copyPU3AS3Dv4_lPU3AS1KS_mmm;
        lle_X__Z29async_work_group_strided_copyPU3AS3Dv4_mPU3AS1KS_mmm;
        lle_X__Z29async_work_group_strided_copyPU3AS3Dv4_fPU3AS1KS_mmm;
        lle_X__Z29async_work_group_strided_copyPU3AS3Dv8_cPU3AS1KS_mmm;
        lle_X__Z29async_work_group_strided_copyPU3AS3Dv8_hPU3AS1KS_mmm;
        lle_X__Z29async_work_group_strided_copyPU3AS3Dv8_sPU3AS1KS_mmm;
        lle_X__Z29async_work_group_strided_copyPU3AS3Dv8_tPU3AS1KS_mmm;
        lle_X__Z29async_work_group_strided_copyPU3AS3Dv8_iPU3AS1KS_mmm;
        lle_X__Z29async_work_group_strided_copyPU3AS3Dv8_jPU3AS1KS_mmm;
        lle_X__Z29async_work_group_strided_copyPU3AS3Dv8_lPU3AS1KS_mmm;
        lle_X__Z29async_work_group_strided_copyPU3AS3Dv8_mPU3AS1KS_mmm;
        lle_X__Z29async_work_group_strided_copyPU3AS3Dv8_fPU3AS1KS_mmm;
        lle_X__Z29async_work_group_strided_copyPU3AS3Dv16_cPU3AS1KS_mmm;
        lle_X__Z29async_work_group_strided_copyPU3AS3Dv16_hPU3AS1KS_mmm;
        lle_X__Z29async_work_group_strided_copyPU3AS3Dv16_sPU3AS1KS_mmm;
        lle_X__Z29async_work_group_strided_copyPU3AS3Dv16_tPU3AS1KS_mmm;
        lle_X__Z29async_work_group_strided_copyPU3AS3Dv16_iPU3AS1KS_mmm;
        lle_X__Z29async_work_group_strided_copyPU3AS3Dv16_jPU3AS1KS_mmm;
        lle_X__Z29async_work_group_strided_copyPU3AS3Dv16_lPU3AS1KS_mmm;
        lle_X__Z29async_work_group_strided_copyPU3AS3Dv16_mPU3AS1KS_mmm;
        lle_X__Z29async_work_group_strided_copyPU3AS3Dv16_fPU3AS1KS_mmm;
        lle_X__Z29async_work_group_strided_copyPU3AS1cPU3AS3Kcmmm;
        lle_X__Z29async_work_group_strided_copyPU3AS1hPU3AS3Khmmm;
        lle_X__Z29async_work_group_strided_copyPU3AS1sPU3AS3Ksmmm;
        lle_X__Z29async_work_group_strided_copyPU3AS1tPU3AS3Ktmmm;
        lle_X__Z29async_work_group_strided_copyPU3AS1iPU3AS3Kimmm;
        lle_X__Z29async_work_group_strided_copyPU3AS1jPU3AS3Kjmmm;
        lle_X__Z29async_work_group_strided_copyPU3AS1lPU3AS3Klmmm;
        lle_X__Z29async_work_group_strided_copyPU3AS1mPU3AS3Kmmmm;
        lle_X__Z29async_work_group_strided_copyPU3AS1fPU3AS3Kfmmm;
        lle_X__Z29async_work_group_strided_copyPU3AS1Dv2_cPU3AS3KS_mmm;
        lle_X__Z29async_work_group_strided_copyPU3AS1Dv2_hPU3AS3KS_mmm;
        lle_X__Z29async_work_group_strided_copyPU3AS1Dv2_sPU3AS3KS_mmm;
        lle_X__Z29async_work_group_strided_copyPU3AS1Dv2_tPU3AS3KS_mmm;
        lle_X__Z29async_work_group_strided_copyPU3AS1Dv2_iPU3AS3KS_mmm;
        lle_X__Z29async_work_group_strided_copyPU3AS1Dv2_jPU3AS3KS_mmm;
        lle_X__Z29async_work_group_strided_copyPU3AS1Dv2_lPU3AS3KS_mmm;
        lle_X__Z29async_work_group_strided_copyPU3AS1Dv2_mPU3AS3KS_mmm;
        lle_X__Z29async_work_group_strided_copyPU3AS1Dv2_fPU3AS3KS_mmm;
        lle_X__Z29async_work_group_strided_copyPU3AS1Dv4_cPU3AS3KS_mmm;
        lle_X__Z29async_work_group_strided_copyPU3AS1Dv4_hPU3AS3KS_mmm;
        lle_X__Z29async_work_group_strided_copyPU3AS1Dv4_sPU3AS3KS_mmm;
        lle_X__Z29async_work_group_strided_copyPU3AS1Dv4_tPU3AS3KS_mmm;
        lle_X__Z29async_work_group_strided_copyPU3AS1Dv4_iPU3AS3KS_mmm;
        lle_X__Z29async_work_group_strided_copyPU3AS1Dv4_jPU3AS3KS_mmm;
        lle_X__Z29async_work_group_strided_copyPU3AS1Dv4_lPU3AS3KS_mmm;
        lle_X__Z29async_work_group_strided_copyPU3AS1Dv4_mPU3AS3KS_mmm;
        lle_X__Z29async_work_group_strided_copyPU3AS1Dv4_fPU3AS3KS_mmm;
        lle_X__Z29async_work_group_strided_copyPU3AS1Dv8_cPU3AS3KS_mmm;
        lle_X__Z29async_work_group_strided_copyPU3AS1Dv8_hPU3AS3KS_mmm;
        lle_X__Z29async_work_group_strided_copyPU3AS1Dv8_sPU3AS3KS_mmm;
        lle_X__Z29async_work_group_strided_copyPU3AS1Dv8_tPU3AS3KS_mmm;
        lle_X__Z29async_work_group_strided_copyPU3AS1Dv8_iPU3AS3KS_mmm;
        lle_X__Z29async_work_group_strided_copyPU3AS1Dv8_jPU3AS3KS_mmm;
        lle_X__Z29async_work_group_strided_copyPU3AS1Dv8_lPU3AS3KS_mmm;
        lle_X__Z29async_work_group_strided_copyPU3AS1Dv8_mPU3AS3KS_mmm;
        lle_X__Z29async_work_group_strided_copyPU3AS1Dv8_fPU3AS3KS_mmm;
        lle_X__Z29async_work_group_strided_copyPU3AS1Dv16_cPU3AS3KS_mmm;
        lle_X__Z29async_work_group_strided_copyPU3AS1Dv16_hPU3AS3KS_mmm;
        lle_X__Z29async_work_group_strided_copyPU3AS1Dv16_sPU3AS3KS_mmm;
        lle_X__Z29async_work_group_strided_copyPU3AS1Dv16_tPU3AS3KS_mmm;
        lle_X__Z29async_work_group_strided_copyPU3AS1Dv16_iPU3AS3KS_mmm;
        lle_X__Z29async_work_group_strided_copyPU3AS1Dv16_jPU3AS3KS_mmm;
        lle_X__Z29async_work_group_strided_copyPU3AS1Dv16_lPU3AS3KS_mmm;
        lle_X__Z29async_work_group_strided_copyPU3AS1Dv16_mPU3AS3KS_mmm;
        lle_X__Z29async_work_group_strided_copyPU3AS1Dv16_fPU3AS3KS_mmm;
        lle_X__Z29async_work_group_strided_copyPU3AS3dPU3AS1Kdmmm;
        lle_X__Z29async_work_group_strided_copyPU3AS3Dv2_dPU3AS1KS_mmm;
        lle_X__Z29async_work_group_strided_copyPU3AS3Dv4_dPU3AS1KS_mmm;
        lle_X__Z29async_work_group_strided_copyPU3AS3Dv8_dPU3AS1KS_mmm;
        lle_X__Z29async_work_group_strided_copyPU3AS3Dv16_dPU3AS1KS_mmm;
        lle_X__Z29async_work_group_strided_copyPU3AS1dPU3AS3Kdmmm;
        lle_X__Z29async_work_group_strided_copyPU3AS1Dv2_dPU3AS3KS_mmm;
        lle_X__Z29async_work_group_strided_copyPU3AS1Dv4_dPU3AS3KS_mmm;
        lle_X__Z29async_work_group_strided_copyPU3AS1Dv8_dPU3AS3KS_mmm;
        lle_X__Z29async_work_group_strided_copyPU3AS1Dv16_dPU3AS3KS_mmm;
        lle_X__Z10atomic_addPU3AS1Vii;
        lle_X__Z10atomic_addPU3AS1Vjj;
        lle_X__Z10atomic_addPU3AS3Vii;
        lle_X__Z10atomic_addPU3AS3Vjj;
        lle_X__Z8atom_addPU3AS1ii;
        lle_X__Z8atom_addPU3AS1jj;
        lle_X__Z8atom_addPU3AS3ii;
        lle_X__Z8atom_addPU3AS3jj;
        lle_X__Z8atom_addPU3AS1ll;
        lle_X__Z8atom_addPU3AS1mm;
        lle_X__Z8atom_addPU3AS3ll;
        lle_X__Z8atom_addPU3AS3mm;
        lle_X__Z10atomic_subPU3AS1Vii;
        lle_X__Z10atomic_subPU3AS1Vjj;
        lle_X__Z10atomic_subPU3AS3Vii;
        lle_X__Z10atomic_subPU3AS3Vjj;
        lle_X__Z8atom_subPU3AS1ii;
        lle_X__Z8atom_subPU3AS1jj;
        lle_X__Z8atom_subPU3AS3ii;
        lle_X__Z8atom_subPU3AS3jj;
        lle_X__Z8atom_subPU3AS1ll;
        lle_X__Z8atom_subPU3AS1mm;
        lle_X__Z8atom_subPU3AS3ll;
        lle_X__Z8atom_subPU3AS3mm;
        lle_X__Z11atomic_xchgPU3AS1Vii;
        lle_X__Z11atomic_xchgPU3AS1Vjj;
        lle_X__Z11atomic_xchgPU3AS1Vff;
        lle_X__Z11atomic_xchgPU3AS3Vii;
        lle_X__Z11atomic_xchgPU3AS3Vjj;
        lle_X__Z11atomic_xchgPU3AS3Vff;
        lle_X__Z9atom_xchgPU3AS1ii;
        lle_X__Z9atom_xchgPU3AS1jj;
        lle_X__Z9atom_xchgPU3AS3ii;
        lle_X__Z9atom_xchgPU3AS3jj;
        lle_X__Z9atom_xchgPU3AS1ll;
        lle_X__Z9atom_xchgPU3AS1mm;
        lle_X__Z9atom_xchgPU3AS3ll;
        lle_X__Z9atom_xchgPU3AS3mm;
        lle_X__Z10atomic_incPU3AS1Vi;
        lle_X__Z10atomic_incPU3AS1Vj;
        lle_X__Z10atomic_incPU3AS3Vi;
        lle_X__Z10atomic_incPU3AS3Vj;
        lle_X__Z8atom_incPU3AS1i;
        lle_X__Z8atom_incPU3AS1j;
        lle_X__Z8atom_incPU3AS3i;
        lle_X__Z8atom_incPU3AS3j;
        lle_X__Z8atom_incPU3AS1l;
        lle_X__Z8atom_incPU3AS1m;
        lle_X__Z8atom_incPU3AS3l;
        lle_X__Z8atom_incPU3AS3m;
        lle_X__Z10atomic_decPU3AS1Vi;
        lle_X__Z10atomic_decPU3AS1Vj;
        lle_X__Z10atomic_decPU3AS3Vi;
        lle_X__Z10atomic_decPU3AS3Vj;
        lle_X__Z8atom_decPU3AS1i;
        lle_X__Z8atom_decPU3AS1j;
        lle_X__Z8atom_decPU3AS3i;
        lle_X__Z8atom_decPU3AS3j;
        lle_X__Z8atom_decPU3AS1l;
        lle_X__Z8atom_decPU3AS1m;
        lle_X__Z8atom_decPU3AS3l;
        lle_X__Z8atom_decPU3AS3m;
        lle_X__Z14atomic_cmpxchgPU3AS1Viii;
        lle_X__Z14atomic_cmpxchgPU3AS1Vjjj;
        lle_X__Z14atomic_cmpxchgPU3AS3Viii;
        lle_X__Z14atomic_cmpxchgPU3AS3Vjjj;
        lle_X__Z12atom_cmpxchgPU3AS1iii;
        lle_X__Z12atom_cmpxchgPU3AS1jjj;
        lle_X__Z12atom_cmpxchgPU3AS3iii;
        lle_X__Z12atom_cmpxchgPU3AS3jjj;
        lle_X__Z12atom_cmpxchgPU3AS1lll;
        lle_X__Z12atom_cmpxchgPU3AS1mmm;
        lle_X__Z12atom_cmpxchgPU3AS3lll;
        lle_X__Z12atom_cmpxchgPU3AS3mmm;
        lle_X__Z10atomic_minPU3AS1Vii;
        lle_X__Z10atomic_minPU3AS1Vjj;
        lle_X__Z10atomic_minPU3AS3Vii;
        lle_X__Z10atomic_minPU3AS3Vjj;
        lle_X__Z8atom_minPU3AS1ii;
        lle_X__Z8atom_minPU3AS1jj;
        lle_X__Z8atom_minPU3AS3ii;
        lle_X__Z8atom_minPU3AS3jj;
        lle_X__Z8atom_minPU3AS1ll;
        lle_X__Z8atom_minPU3AS1mm;
        lle_X__Z8atom_minPU3AS3ll;
        lle_X__Z8atom_minPU3AS3mm;
        lle_X__Z10atomic_maxPU3AS1Vii;
        lle_X__Z10atomic_maxPU3AS1Vjj;
        lle_X__Z10atomic_maxPU3AS3Vii;
        lle_X__Z10atomic_maxPU3AS3Vjj;
        lle_X__Z8atom_maxPU3AS1ii;
        lle_X__Z8atom_maxPU3AS1jj;
        lle_X__Z8atom_maxPU3AS3ii;
        lle_X__Z8atom_maxPU3AS3jj;
        lle_X__Z8atom_maxPU3AS1ll;
        lle_X__Z8atom_maxPU3AS1mm;
        lle_X__Z8atom_maxPU3AS3ll;
        lle_X__Z8atom_maxPU3AS3mm;
        lle_X__Z10atomic_andPU3AS1Vii;
        lle_X__Z10atomic_andPU3AS1Vjj;
        lle_X__Z10atomic_andPU3AS3Vii;
        lle_X__Z10atomic_andPU3AS3Vjj;
        lle_X__Z8atom_andPU3AS1ii;
        lle_X__Z8atom_andPU3AS1jj;
        lle_X__Z8atom_andPU3AS3ii;
        lle_X__Z8atom_andPU3AS3jj;
        lle_X__Z8atom_andPU3AS1ll;
        lle_X__Z8atom_andPU3AS1mm;
        lle_X__Z8atom_andPU3AS3ll;
        lle_X__Z8atom_andPU3AS3mm;
        lle_X__Z9atomic_orPU3AS1Vii;
        lle_X__Z9atomic_orPU3AS1Vjj;
        lle_X__Z9atomic_orPU3AS3Vii;
        lle_X__Z9atomic_orPU3AS3Vjj;
        lle_X__Z7atom_orPU3AS1ii;
        lle_X__Z7atom_orPU3AS1jj;
        lle_X__Z7atom_orPU3AS3ii;
        lle_X__Z7atom_orPU3AS3jj;
        lle_X__Z7atom_orPU3AS1ll;
        lle_X__Z7atom_orPU3AS1mm;
        lle_X__Z7atom_orPU3AS3ll;
        lle_X__Z7atom_orPU3AS3mm;
        lle_X__Z10atomic_xorPU3AS1Vii;
        lle_X__Z10atomic_xorPU3AS1Vjj;
        lle_X__Z10atomic_xorPU3AS3Vii;
        lle_X__Z10atomic_xorPU3AS3Vjj;
        lle_X__Z8atom_xorPU3AS1ii;
        lle_X__Z8atom_xorPU3AS1jj;
        lle_X__Z8atom_xorPU3AS3ii;
        lle_X__Z8atom_xorPU3AS3jj;
        lle_X__Z8atom_xorPU3AS1ll;
        lle_X__Z8atom_xorPU3AS1mm;
        lle_X__Z8atom_xorPU3AS3ll;
        lle_X__Z8atom_xorPU3AS3mm;
        lle_X__Z3maxdd;
        lle_X__Z3maxDv2_dS_;
        lle_X__Z3maxDv3_dS_;
        lle_X__Z3maxDv4_dS_;
        lle_X__Z3maxDv8_dS_;
        lle_X__Z3maxDv16_dS_;
        lle_X__Z3maxDv2_dd;
        lle_X__Z3maxDv3_dd;
        lle_X__Z3maxDv4_dd;
        lle_X__Z3maxDv8_dd;
        lle_X__Z3maxDv16_dd;
        lle_X__Z3maxff;
        lle_X__Z3maxDv2_fS_;
        lle_X__Z3maxDv3_fS_;
        lle_X__Z3maxDv4_fS_;
        lle_X__Z3maxDv8_fS_;
        lle_X__Z3maxDv16_fS_;
        lle_X__Z3maxDv2_ff;
        lle_X__Z3maxDv3_ff;
        lle_X__Z3maxDv4_ff;
        lle_X__Z3maxDv8_ff;
        lle_X__Z3maxDv16_ff;
        lle_X__Z3mindd;
        lle_X__Z3minDv2_dS_;
        lle_X__Z3minDv3_dS_;
        lle_X__Z3minDv4_dS_;
        lle_X__Z3minDv8_dS_;
        lle_X__Z3minDv16_dS_;
        lle_X__Z3minDv2_dd;
        lle_X__Z3minDv3_dd;
        lle_X__Z3minDv4_dd;
        lle_X__Z3minDv8_dd;
        lle_X__Z3minDv16_dd;
        lle_X__Z3minff;
        lle_X__Z3minDv2_fS_;
        lle_X__Z3minDv3_fS_;
        lle_X__Z3minDv4_fS_;
        lle_X__Z3minDv8_fS_;
        lle_X__Z3minDv16_fS_;
        lle_X__Z3minDv2_ff;
        lle_X__Z3minDv3_ff;
        lle_X__Z3minDv4_ff;
        lle_X__Z3minDv8_ff;
        lle_X__Z3minDv16_ff;
        lle_X__Z3mixfff;
        lle_X__Z3mixDv2_fS_S_;
        lle_X__Z3mixDv3_fS_S_;
        lle_X__Z3mixDv4_fS_S_;
        lle_X__Z3mixDv8_fS_S_;
        lle_X__Z3mixDv16_fS_S_;
        lle_X__Z3mixDv2_fS_f;
        lle_X__Z3mixDv3_fS_f;
        lle_X__Z3mixDv4_fS_f;
        lle_X__Z3mixDv8_fS_f;
        lle_X__Z3mixDv16_fS_f;
        lle_X__Z3mixddd;
        lle_X__Z3mixDv2_dS_S_;
        lle_X__Z3mixDv3_dS_S_;
        lle_X__Z3mixDv4_dS_S_;
        lle_X__Z3mixDv8_dS_S_;
        lle_X__Z3mixDv16_dS_S_;
        lle_X__Z3mixDv2_dS_d;
        lle_X__Z3mixDv3_dS_d;
        lle_X__Z3mixDv4_dS_d;
        lle_X__Z3mixDv8_dS_d;
        lle_X__Z3mixDv16_dS_d;
        lle_X__Z5clampfff;
        lle_X__Z5clampDv2_fS_S_;
        lle_X__Z5clampDv3_fS_S_;
        lle_X__Z5clampDv4_fS_S_;
        lle_X__Z5clampDv8_fS_S_;
        lle_X__Z5clampDv16_fS_S_;
        lle_X__Z5clampDv2_fff;
        lle_X__Z5clampDv3_fff;
        lle_X__Z5clampDv4_fff;
        lle_X__Z5clampDv8_fff;
        lle_X__Z5clampDv16_fff;
        lle_X__Z5clampddd;
        lle_X__Z5clampDv2_dS_S_;
        lle_X__Z5clampDv3_dS_S_;
        lle_X__Z5clampDv4_dS_S_;
        lle_X__Z5clampDv8_dS_S_;
        lle_X__Z5clampDv16_dS_S_;
        lle_X__Z5clampDv2_ddd;
        lle_X__Z5clampDv3_ddd;
        lle_X__Z5clampDv4_ddd;
        lle_X__Z5clampDv8_ddd;
        lle_X__Z5clampDv16_ddd;
        lle_X__Z4stepff;
        lle_X__Z4stepDv2_fS_;
        lle_X__Z4stepDv3_fS_;
        lle_X__Z4stepDv4_fS_;
        lle_X__Z4stepDv8_fS_;
        lle_X__Z4stepDv16_fS_;
        lle_X__Z4stepfDv2_f;
        lle_X__Z4stepfDv3_f;
        lle_X__Z4stepfDv4_f;
        lle_X__Z4stepfDv8_f;
        lle_X__Z4stepfDv16_f;
        lle_X__Z4stepdd;
        lle_X__Z4stepDv2_dS_;
        lle_X__Z4stepDv3_dS_;
        lle_X__Z4stepDv4_dS_;
        lle_X__Z4stepDv8_dS_;
        lle_X__Z4stepDv16_dS_;
        lle_X__Z4stepdDv2_d;
        lle_X__Z4stepdDv3_d;
        lle_X__Z4stepdDv4_d;
        lle_X__Z4stepdDv8_d;
        lle_X__Z4stepdDv16_d;
        lle_X__Z7radiansf;
        lle_X__Z7radiansDv2_f;
        lle_X__Z7radiansDv3_f;
        lle_X__Z7radiansDv4_f;
        lle_X__Z7radiansDv8_f;
        lle_X__Z7radiansDv16_f;
        lle_X__Z7radiansd;
        lle_X__Z7radiansDv2_d;
        lle_X__Z7radiansDv3_d;
        lle_X__Z7radiansDv4_d;
        lle_X__Z7radiansDv8_d;
        lle_X__Z7radiansDv16_d;
        lle_X__Z7degreesf;
        lle_X__Z7degreesDv2_f;
        lle_X__Z7degreesDv3_f;
        lle_X__Z7degreesDv4_f;
        lle_X__Z7degreesDv8_f;
        lle_X__Z7degreesDv16_f;
        lle_X__Z7degreesd;
        lle_X__Z7degreesDv2_d;
        lle_X__Z7degreesDv3_d;
        lle_X__Z7degreesDv4_d;
        lle_X__Z7degreesDv8_d;
        lle_X__Z7degreesDv16_d;
        lle_X__Z10smoothstepfff;
        lle_X__Z10smoothstepDv2_fS_S_;
        lle_X__Z10smoothstepDv3_fS_S_;
        lle_X__Z10smoothstepDv4_fS_S_;
        lle_X__Z10smoothstepDv8_fS_S_;
        lle_X__Z10smoothstepDv16_fS_S_;
        lle_X__Z10smoothstepffDv2_f;
        lle_X__Z10smoothstepffDv3_f;
        lle_X__Z10smoothstepffDv4_f;
        lle_X__Z10smoothstepffDv8_f;
        lle_X__Z10smoothstepffDv16_f;
        lle_X__Z10smoothstepddd;
        lle_X__Z10smoothstepddDv2_d;
        lle_X__Z10smoothstepddDv3_d;
        lle_X__Z10smoothstepddDv4_d;
        lle_X__Z10smoothstepddDv8_d;
        lle_X__Z10smoothstepddDv16_d;
        lle_X__Z10smoothstepDv2_dS_S_;
        lle_X__Z10smoothstepDv3_dS_S_;
        lle_X__Z10smoothstepDv4_dS_S_;
        lle_X__Z10smoothstepDv8_dS_S_;
        lle_X__Z10smoothstepDv16_dS_S_;
        lle_X__Z4signf;
        lle_X__Z4signDv2_f;
        lle_X__Z4signDv3_f;
        lle_X__Z4signDv4_f;
        lle_X__Z4signDv8_f;
        lle_X__Z4signDv16_f;
        lle_X__Z4signd;
        lle_X__Z4signDv2_d;
        lle_X__Z4signDv3_d;
        lle_X__Z4signDv4_d;
        lle_X__Z4signDv8_d;
        lle_X__Z4signDv16_d;
        lle_X__Z17convert_float_rtec;
        lle_X__Z21convert_float_sat_rtec;
        lle_X__Z17convert_float_rtzc;
        lle_X__Z21convert_float_sat_rtzc;
        lle_X__Z17convert_float_rtpc;
        lle_X__Z21convert_float_sat_rtpc;
        lle_X__Z17convert_float_rtnc;
        lle_X__Z21convert_float_sat_rtnc;
        lle_X__Z13convert_floatc;
        lle_X__Z17convert_float_satc;
        lle_X__Z17convert_float_rteh;
        lle_X__Z21convert_float_sat_rteh;
        lle_X__Z17convert_float_rtzh;
        lle_X__Z21convert_float_sat_rtzh;
        lle_X__Z17convert_float_rtph;
        lle_X__Z21convert_float_sat_rtph;
        lle_X__Z17convert_float_rtnh;
        lle_X__Z21convert_float_sat_rtnh;
        lle_X__Z13convert_floath;
        lle_X__Z17convert_float_sath;
        lle_X__Z17convert_float_rtes;
        lle_X__Z21convert_float_sat_rtes;
        lle_X__Z17convert_float_rtzs;
        lle_X__Z21convert_float_sat_rtzs;
        lle_X__Z17convert_float_rtps;
        lle_X__Z21convert_float_sat_rtps;
        lle_X__Z17convert_float_rtns;
        lle_X__Z21convert_float_sat_rtns;
        lle_X__Z13convert_floats;
        lle_X__Z17convert_float_sats;
        lle_X__Z17convert_float_rtet;
        lle_X__Z21convert_float_sat_rtet;
        lle_X__Z17convert_float_rtzt;
        lle_X__Z21convert_float_sat_rtzt;
        lle_X__Z17convert_float_rtpt;
        lle_X__Z21convert_float_sat_rtpt;
        lle_X__Z17convert_float_rtnt;
        lle_X__Z21convert_float_sat_rtnt;
        lle_X__Z13convert_floatt;
        lle_X__Z17convert_float_satt;
        lle_X__Z17convert_float_rtei;
        lle_X__Z21convert_float_sat_rtei;
        lle_X__Z17convert_float_rtzi;
        lle_X__Z21convert_float_sat_rtzi;
        lle_X__Z17convert_float_rtpi;
        lle_X__Z21convert_float_sat_rtpi;
        lle_X__Z17convert_float_rtni;
        lle_X__Z21convert_float_sat_rtni;
        lle_X__Z13convert_floati;
        lle_X__Z17convert_float_sati;
        lle_X__Z17convert_float_rtej;
        lle_X__Z21convert_float_sat_rtej;
        lle_X__Z17convert_float_rtzj;
        lle_X__Z21convert_float_sat_rtzj;
        lle_X__Z17convert_float_rtpj;
        lle_X__Z21convert_float_sat_rtpj;
        lle_X__Z17convert_float_rtnj;
        lle_X__Z21convert_float_sat_rtnj;
        lle_X__Z13convert_floatj;
        lle_X__Z17convert_float_satj;
        lle_X__Z17convert_float_rtel;
        lle_X__Z21convert_float_sat_rtel;
        lle_X__Z17convert_float_rtzl;
        lle_X__Z21convert_float_sat_rtzl;
        lle_X__Z17convert_float_rtpl;
        lle_X__Z21convert_float_sat_rtpl;
        lle_X__Z17convert_float_rtnl;
        lle_X__Z21convert_float_sat_rtnl;
        lle_X__Z13convert_floatl;
        lle_X__Z17convert_float_satl;
        lle_X__Z17convert_float_rtem;
        lle_X__Z21convert_float_sat_rtem;
        lle_X__Z17convert_float_rtzm;
        lle_X__Z21convert_float_sat_rtzm;
        lle_X__Z17convert_float_rtpm;
        lle_X__Z21convert_float_sat_rtpm;
        lle_X__Z17convert_float_rtnm;
        lle_X__Z21convert_float_sat_rtnm;
        lle_X__Z13convert_floatm;
        lle_X__Z17convert_float_satm;
        lle_X__Z17convert_float_rtef;
        lle_X__Z21convert_float_sat_rtef;
        lle_X__Z17convert_float_rtzf;
        lle_X__Z21convert_float_sat_rtzf;
        lle_X__Z17convert_float_rtpf;
        lle_X__Z21convert_float_sat_rtpf;
        lle_X__Z17convert_float_rtnf;
        lle_X__Z21convert_float_sat_rtnf;
        lle_X__Z13convert_floatf;
        lle_X__Z17convert_float_satf;
        lle_X__Z17convert_float_rted;
        lle_X__Z21convert_float_sat_rted;
        lle_X__Z17convert_float_rtzd;
        lle_X__Z21convert_float_sat_rtzd;
        lle_X__Z17convert_float_rtpd;
        lle_X__Z21convert_float_sat_rtpd;
        lle_X__Z17convert_float_rtnd;
        lle_X__Z21convert_float_sat_rtnd;
        lle_X__Z13convert_floatd;
        lle_X__Z17convert_float_satd;
        lle_X__Z18convert_float2_rteDv2_c;
        lle_X__Z22convert_float2_sat_rteDv2_c;
        lle_X__Z18convert_float2_rtzDv2_c;
        lle_X__Z22convert_float2_sat_rtzDv2_c;
        lle_X__Z18convert_float2_rtpDv2_c;
        lle_X__Z22convert_float2_sat_rtpDv2_c;
        lle_X__Z18convert_float2_rtnDv2_c;
        lle_X__Z22convert_float2_sat_rtnDv2_c;
        lle_X__Z14convert_float2Dv2_c;
        lle_X__Z18convert_float2_satDv2_c;
        lle_X__Z18convert_float2_rteDv2_h;
        lle_X__Z22convert_float2_sat_rteDv2_h;
        lle_X__Z18convert_float2_rtzDv2_h;
        lle_X__Z22convert_float2_sat_rtzDv2_h;
        lle_X__Z18convert_float2_rtpDv2_h;
        lle_X__Z22convert_float2_sat_rtpDv2_h;
        lle_X__Z18convert_float2_rtnDv2_h;
        lle_X__Z22convert_float2_sat_rtnDv2_h;
        lle_X__Z14convert_float2Dv2_h;
        lle_X__Z18convert_float2_satDv2_h;
        lle_X__Z18convert_float2_rteDv2_s;
        lle_X__Z22convert_float2_sat_rteDv2_s;
        lle_X__Z18convert_float2_rtzDv2_s;
        lle_X__Z22convert_float2_sat_rtzDv2_s;
        lle_X__Z18convert_float2_rtpDv2_s;
        lle_X__Z22convert_float2_sat_rtpDv2_s;
        lle_X__Z18convert_float2_rtnDv2_s;
        lle_X__Z22convert_float2_sat_rtnDv2_s;
        lle_X__Z14convert_float2Dv2_s;
        lle_X__Z18convert_float2_satDv2_s;
        lle_X__Z18convert_float2_rteDv2_t;
        lle_X__Z22convert_float2_sat_rteDv2_t;
        lle_X__Z18convert_float2_rtzDv2_t;
        lle_X__Z22convert_float2_sat_rtzDv2_t;
        lle_X__Z18convert_float2_rtpDv2_t;
        lle_X__Z22convert_float2_sat_rtpDv2_t;
        lle_X__Z18convert_float2_rtnDv2_t;
        lle_X__Z22convert_float2_sat_rtnDv2_t;
        lle_X__Z14convert_float2Dv2_t;
        lle_X__Z18convert_float2_satDv2_t;
        lle_X__Z18convert_float2_rteDv2_i;
        lle_X__Z22convert_float2_sat_rteDv2_i;
        lle_X__Z18convert_float2_rtzDv2_i;
        lle_X__Z22convert_float2_sat_rtzDv2_i;
        lle_X__Z18convert_float2_rtpDv2_i;
        lle_X__Z22convert_float2_sat_rtpDv2_i;
        lle_X__Z18convert_float2_rtnDv2_i;
        lle_X__Z22convert_float2_sat_rtnDv2_i;
        lle_X__Z14convert_float2Dv2_i;
        lle_X__Z18convert_float2_satDv2_i;
        lle_X__Z18convert_float2_rteDv2_j;
        lle_X__Z22convert_float2_sat_rteDv2_j;
        lle_X__Z18convert_float2_rtzDv2_j;
        lle_X__Z22convert_float2_sat_rtzDv2_j;
        lle_X__Z18convert_float2_rtpDv2_j;
        lle_X__Z22convert_float2_sat_rtpDv2_j;
        lle_X__Z18convert_float2_rtnDv2_j;
        lle_X__Z22convert_float2_sat_rtnDv2_j;
        lle_X__Z14convert_float2Dv2_j;
        lle_X__Z18convert_float2_satDv2_j;
        lle_X__Z18convert_float2_rteDv2_l;
        lle_X__Z22convert_float2_sat_rteDv2_l;
        lle_X__Z18convert_float2_rtzDv2_l;
        lle_X__Z22convert_float2_sat_rtzDv2_l;
        lle_X__Z18convert_float2_rtpDv2_l;
        lle_X__Z22convert_float2_sat_rtpDv2_l;
        lle_X__Z18convert_float2_rtnDv2_l;
        lle_X__Z22convert_float2_sat_rtnDv2_l;
        lle_X__Z14convert_float2Dv2_l;
        lle_X__Z18convert_float2_satDv2_l;
        lle_X__Z18convert_float2_rteDv2_m;
        lle_X__Z22convert_float2_sat_rteDv2_m;
        lle_X__Z18convert_float2_rtzDv2_m;
        lle_X__Z22convert_float2_sat_rtzDv2_m;
        lle_X__Z18convert_float2_rtpDv2_m;
        lle_X__Z22convert_float2_sat_rtpDv2_m;
        lle_X__Z18convert_float2_rtnDv2_m;
        lle_X__Z22convert_float2_sat_rtnDv2_m;
        lle_X__Z14convert_float2Dv2_m;
        lle_X__Z18convert_float2_satDv2_m;
        lle_X__Z18convert_float2_rteDv2_f;
        lle_X__Z22convert_float2_sat_rteDv2_f;
        lle_X__Z18convert_float2_rtzDv2_f;
        lle_X__Z22convert_float2_sat_rtzDv2_f;
        lle_X__Z18convert_float2_rtpDv2_f;
        lle_X__Z22convert_float2_sat_rtpDv2_f;
        lle_X__Z18convert_float2_rtnDv2_f;
        lle_X__Z22convert_float2_sat_rtnDv2_f;
        lle_X__Z14convert_float2Dv2_f;
        lle_X__Z18convert_float2_satDv2_f;
        lle_X__Z18convert_float2_rteDv2_d;
        lle_X__Z22convert_float2_sat_rteDv2_d;
        lle_X__Z18convert_float2_rtzDv2_d;
        lle_X__Z22convert_float2_sat_rtzDv2_d;
        lle_X__Z18convert_float2_rtpDv2_d;
        lle_X__Z22convert_float2_sat_rtpDv2_d;
        lle_X__Z18convert_float2_rtnDv2_d;
        lle_X__Z22convert_float2_sat_rtnDv2_d;
        lle_X__Z14convert_float2Dv2_d;
        lle_X__Z18convert_float2_satDv2_d;
        lle_X__Z18convert_float3_rteDv3_c;
        lle_X__Z22convert_float3_sat_rteDv3_c;
        lle_X__Z18convert_float3_rtzDv3_c;
        lle_X__Z22convert_float3_sat_rtzDv3_c;
        lle_X__Z18convert_float3_rtpDv3_c;
        lle_X__Z22convert_float3_sat_rtpDv3_c;
        lle_X__Z18convert_float3_rtnDv3_c;
        lle_X__Z22convert_float3_sat_rtnDv3_c;
        lle_X__Z14convert_float3Dv3_c;
        lle_X__Z18convert_float3_satDv3_c;
        lle_X__Z18convert_float3_rteDv3_h;
        lle_X__Z22convert_float3_sat_rteDv3_h;
        lle_X__Z18convert_float3_rtzDv3_h;
        lle_X__Z22convert_float3_sat_rtzDv3_h;
        lle_X__Z18convert_float3_rtpDv3_h;
        lle_X__Z22convert_float3_sat_rtpDv3_h;
        lle_X__Z18convert_float3_rtnDv3_h;
        lle_X__Z22convert_float3_sat_rtnDv3_h;
        lle_X__Z14convert_float3Dv3_h;
        lle_X__Z18convert_float3_satDv3_h;
        lle_X__Z18convert_float3_rteDv3_s;
        lle_X__Z22convert_float3_sat_rteDv3_s;
        lle_X__Z18convert_float3_rtzDv3_s;
        lle_X__Z22convert_float3_sat_rtzDv3_s;
        lle_X__Z18convert_float3_rtpDv3_s;
        lle_X__Z22convert_float3_sat_rtpDv3_s;
        lle_X__Z18convert_float3_rtnDv3_s;
        lle_X__Z22convert_float3_sat_rtnDv3_s;
        lle_X__Z14convert_float3Dv3_s;
        lle_X__Z18convert_float3_satDv3_s;
        lle_X__Z18convert_float3_rteDv3_t;
        lle_X__Z22convert_float3_sat_rteDv3_t;
        lle_X__Z18convert_float3_rtzDv3_t;
        lle_X__Z22convert_float3_sat_rtzDv3_t;
        lle_X__Z18convert_float3_rtpDv3_t;
        lle_X__Z22convert_float3_sat_rtpDv3_t;
        lle_X__Z18convert_float3_rtnDv3_t;
        lle_X__Z22convert_float3_sat_rtnDv3_t;
        lle_X__Z14convert_float3Dv3_t;
        lle_X__Z18convert_float3_satDv3_t;
        lle_X__Z18convert_float3_rteDv3_i;
        lle_X__Z22convert_float3_sat_rteDv3_i;
        lle_X__Z18convert_float3_rtzDv3_i;
        lle_X__Z22convert_float3_sat_rtzDv3_i;
        lle_X__Z18convert_float3_rtpDv3_i;
        lle_X__Z22convert_float3_sat_rtpDv3_i;
        lle_X__Z18convert_float3_rtnDv3_i;
        lle_X__Z22convert_float3_sat_rtnDv3_i;
        lle_X__Z14convert_float3Dv3_i;
        lle_X__Z18convert_float3_satDv3_i;
        lle_X__Z18convert_float3_rteDv3_j;
        lle_X__Z22convert_float3_sat_rteDv3_j;
        lle_X__Z18convert_float3_rtzDv3_j;
        lle_X__Z22convert_float3_sat_rtzDv3_j;
        lle_X__Z18convert_float3_rtpDv3_j;
        lle_X__Z22convert_float3_sat_rtpDv3_j;
        lle_X__Z18convert_float3_rtnDv3_j;
        lle_X__Z22convert_float3_sat_rtnDv3_j;
        lle_X__Z14convert_float3Dv3_j;
        lle_X__Z18convert_float3_satDv3_j;
        lle_X__Z18convert_float3_rteDv3_l;
        lle_X__Z22convert_float3_sat_rteDv3_l;
        lle_X__Z18convert_float3_rtzDv3_l;
        lle_X__Z22convert_float3_sat_rtzDv3_l;
        lle_X__Z18convert_float3_rtpDv3_l;
        lle_X__Z22convert_float3_sat_rtpDv3_l;
        lle_X__Z18convert_float3_rtnDv3_l;
        lle_X__Z22convert_float3_sat_rtnDv3_l;
        lle_X__Z14convert_float3Dv3_l;
        lle_X__Z18convert_float3_satDv3_l;
        lle_X__Z18convert_float3_rteDv3_m;
        lle_X__Z22convert_float3_sat_rteDv3_m;
        lle_X__Z18convert_float3_rtzDv3_m;
        lle_X__Z22convert_float3_sat_rtzDv3_m;
        lle_X__Z18convert_float3_rtpDv3_m;
        lle_X__Z22convert_float3_sat_rtpDv3_m;
        lle_X__Z18convert_float3_rtnDv3_m;
        lle_X__Z22convert_float3_sat_rtnDv3_m;
        lle_X__Z14convert_float3Dv3_m;
        lle_X__Z18convert_float3_satDv3_m;
        lle_X__Z18convert_float3_rteDv3_f;
        lle_X__Z22convert_float3_sat_rteDv3_f;
        lle_X__Z18convert_float3_rtzDv3_f;
        lle_X__Z22convert_float3_sat_rtzDv3_f;
        lle_X__Z18convert_float3_rtpDv3_f;
        lle_X__Z22convert_float3_sat_rtpDv3_f;
        lle_X__Z18convert_float3_rtnDv3_f;
        lle_X__Z22convert_float3_sat_rtnDv3_f;
        lle_X__Z14convert_float3Dv3_f;
        lle_X__Z18convert_float3_satDv3_f;
        lle_X__Z18convert_float3_rteDv3_d;
        lle_X__Z22convert_float3_sat_rteDv3_d;
        lle_X__Z18convert_float3_rtzDv3_d;
        lle_X__Z22convert_float3_sat_rtzDv3_d;
        lle_X__Z18convert_float3_rtpDv3_d;
        lle_X__Z22convert_float3_sat_rtpDv3_d;
        lle_X__Z18convert_float3_rtnDv3_d;
        lle_X__Z22convert_float3_sat_rtnDv3_d;
        lle_X__Z14convert_float3Dv3_d;
        lle_X__Z18convert_float3_satDv3_d;
        lle_X__Z18convert_float4_rteDv4_c;
        lle_X__Z22convert_float4_sat_rteDv4_c;
        lle_X__Z18convert_float4_rtzDv4_c;
        lle_X__Z22convert_float4_sat_rtzDv4_c;
        lle_X__Z18convert_float4_rtpDv4_c;
        lle_X__Z22convert_float4_sat_rtpDv4_c;
        lle_X__Z18convert_float4_rtnDv4_c;
        lle_X__Z22convert_float4_sat_rtnDv4_c;
        lle_X__Z14convert_float4Dv4_c;
        lle_X__Z18convert_float4_satDv4_c;
        lle_X__Z18convert_float4_rteDv4_h;
        lle_X__Z22convert_float4_sat_rteDv4_h;
        lle_X__Z18convert_float4_rtzDv4_h;
        lle_X__Z22convert_float4_sat_rtzDv4_h;
        lle_X__Z18convert_float4_rtpDv4_h;
        lle_X__Z22convert_float4_sat_rtpDv4_h;
        lle_X__Z18convert_float4_rtnDv4_h;
        lle_X__Z22convert_float4_sat_rtnDv4_h;
        lle_X__Z14convert_float4Dv4_h;
        lle_X__Z18convert_float4_satDv4_h;
        lle_X__Z18convert_float4_rteDv4_s;
        lle_X__Z22convert_float4_sat_rteDv4_s;
        lle_X__Z18convert_float4_rtzDv4_s;
        lle_X__Z22convert_float4_sat_rtzDv4_s;
        lle_X__Z18convert_float4_rtpDv4_s;
        lle_X__Z22convert_float4_sat_rtpDv4_s;
        lle_X__Z18convert_float4_rtnDv4_s;
        lle_X__Z22convert_float4_sat_rtnDv4_s;
        lle_X__Z14convert_float4Dv4_s;
        lle_X__Z18convert_float4_satDv4_s;
        lle_X__Z18convert_float4_rteDv4_t;
        lle_X__Z22convert_float4_sat_rteDv4_t;
        lle_X__Z18convert_float4_rtzDv4_t;
        lle_X__Z22convert_float4_sat_rtzDv4_t;
        lle_X__Z18convert_float4_rtpDv4_t;
        lle_X__Z22convert_float4_sat_rtpDv4_t;
        lle_X__Z18convert_float4_rtnDv4_t;
        lle_X__Z22convert_float4_sat_rtnDv4_t;
        lle_X__Z14convert_float4Dv4_t;
        lle_X__Z18convert_float4_satDv4_t;
        lle_X__Z18convert_float4_rteDv4_i;
        lle_X__Z22convert_float4_sat_rteDv4_i;
        lle_X__Z18convert_float4_rtzDv4_i;
        lle_X__Z22convert_float4_sat_rtzDv4_i;
        lle_X__Z18convert_float4_rtpDv4_i;
        lle_X__Z22convert_float4_sat_rtpDv4_i;
        lle_X__Z18convert_float4_rtnDv4_i;
        lle_X__Z22convert_float4_sat_rtnDv4_i;
        lle_X__Z14convert_float4Dv4_i;
        lle_X__Z18convert_float4_satDv4_i;
        lle_X__Z18convert_float4_rteDv4_j;
        lle_X__Z22convert_float4_sat_rteDv4_j;
        lle_X__Z18convert_float4_rtzDv4_j;
        lle_X__Z22convert_float4_sat_rtzDv4_j;
        lle_X__Z18convert_float4_rtpDv4_j;
        lle_X__Z22convert_float4_sat_rtpDv4_j;
        lle_X__Z18convert_float4_rtnDv4_j;
        lle_X__Z22convert_float4_sat_rtnDv4_j;
        lle_X__Z14convert_float4Dv4_j;
        lle_X__Z18convert_float4_satDv4_j;
        lle_X__Z18convert_float4_rteDv4_l;
        lle_X__Z22convert_float4_sat_rteDv4_l;
        lle_X__Z18convert_float4_rtzDv4_l;
        lle_X__Z22convert_float4_sat_rtzDv4_l;
        lle_X__Z18convert_float4_rtpDv4_l;
        lle_X__Z22convert_float4_sat_rtpDv4_l;
        lle_X__Z18convert_float4_rtnDv4_l;
        lle_X__Z22convert_float4_sat_rtnDv4_l;
        lle_X__Z14convert_float4Dv4_l;
        lle_X__Z18convert_float4_satDv4_l;
        lle_X__Z18convert_float4_rteDv4_m;
        lle_X__Z22convert_float4_sat_rteDv4_m;
        lle_X__Z18convert_float4_rtzDv4_m;
        lle_X__Z22convert_float4_sat_rtzDv4_m;
        lle_X__Z18convert_float4_rtpDv4_m;
        lle_X__Z22convert_float4_sat_rtpDv4_m;
        lle_X__Z18convert_float4_rtnDv4_m;
        lle_X__Z22convert_float4_sat_rtnDv4_m;
        lle_X__Z14convert_float4Dv4_m;
        lle_X__Z18convert_float4_satDv4_m;
        lle_X__Z18convert_float4_rteDv4_f;
        lle_X__Z22convert_float4_sat_rteDv4_f;
        lle_X__Z18convert_float4_rtzDv4_f;
        lle_X__Z22convert_float4_sat_rtzDv4_f;
        lle_X__Z18convert_float4_rtpDv4_f;
        lle_X__Z22convert_float4_sat_rtpDv4_f;
        lle_X__Z18convert_float4_rtnDv4_f;
        lle_X__Z22convert_float4_sat_rtnDv4_f;
        lle_X__Z14convert_float4Dv4_f;
        lle_X__Z18convert_float4_satDv4_f;
        lle_X__Z18convert_float4_rteDv4_d;
        lle_X__Z22convert_float4_sat_rteDv4_d;
        lle_X__Z18convert_float4_rtzDv4_d;
        lle_X__Z22convert_float4_sat_rtzDv4_d;
        lle_X__Z18convert_float4_rtpDv4_d;
        lle_X__Z22convert_float4_sat_rtpDv4_d;
        lle_X__Z18convert_float4_rtnDv4_d;
        lle_X__Z22convert_float4_sat_rtnDv4_d;
        lle_X__Z14convert_float4Dv4_d;
        lle_X__Z18convert_float4_satDv4_d;
        lle_X__Z18convert_float8_rteDv8_c;
        lle_X__Z22convert_float8_sat_rteDv8_c;
        lle_X__Z18convert_float8_rtzDv8_c;
        lle_X__Z22convert_float8_sat_rtzDv8_c;
        lle_X__Z18convert_float8_rtpDv8_c;
        lle_X__Z22convert_float8_sat_rtpDv8_c;
        lle_X__Z18convert_float8_rtnDv8_c;
        lle_X__Z22convert_float8_sat_rtnDv8_c;
        lle_X__Z14convert_float8Dv8_c;
        lle_X__Z18convert_float8_satDv8_c;
        lle_X__Z18convert_float8_rteDv8_h;
        lle_X__Z22convert_float8_sat_rteDv8_h;
        lle_X__Z18convert_float8_rtzDv8_h;
        lle_X__Z22convert_float8_sat_rtzDv8_h;
        lle_X__Z18convert_float8_rtpDv8_h;
        lle_X__Z22convert_float8_sat_rtpDv8_h;
        lle_X__Z18convert_float8_rtnDv8_h;
        lle_X__Z22convert_float8_sat_rtnDv8_h;
        lle_X__Z14convert_float8Dv8_h;
        lle_X__Z18convert_float8_satDv8_h;
        lle_X__Z18convert_float8_rteDv8_s;
        lle_X__Z22convert_float8_sat_rteDv8_s;
        lle_X__Z18convert_float8_rtzDv8_s;
        lle_X__Z22convert_float8_sat_rtzDv8_s;
        lle_X__Z18convert_float8_rtpDv8_s;
        lle_X__Z22convert_float8_sat_rtpDv8_s;
        lle_X__Z18convert_float8_rtnDv8_s;
        lle_X__Z22convert_float8_sat_rtnDv8_s;
        lle_X__Z14convert_float8Dv8_s;
        lle_X__Z18convert_float8_satDv8_s;
        lle_X__Z18convert_float8_rteDv8_t;
        lle_X__Z22convert_float8_sat_rteDv8_t;
        lle_X__Z18convert_float8_rtzDv8_t;
        lle_X__Z22convert_float8_sat_rtzDv8_t;
        lle_X__Z18convert_float8_rtpDv8_t;
        lle_X__Z22convert_float8_sat_rtpDv8_t;
        lle_X__Z18convert_float8_rtnDv8_t;
        lle_X__Z22convert_float8_sat_rtnDv8_t;
        lle_X__Z14convert_float8Dv8_t;
        lle_X__Z18convert_float8_satDv8_t;
        lle_X__Z18convert_float8_rteDv8_i;
        lle_X__Z22convert_float8_sat_rteDv8_i;
        lle_X__Z18convert_float8_rtzDv8_i;
        lle_X__Z22convert_float8_sat_rtzDv8_i;
        lle_X__Z18convert_float8_rtpDv8_i;
        lle_X__Z22convert_float8_sat_rtpDv8_i;
        lle_X__Z18convert_float8_rtnDv8_i;
        lle_X__Z22convert_float8_sat_rtnDv8_i;
        lle_X__Z14convert_float8Dv8_i;
        lle_X__Z18convert_float8_satDv8_i;
        lle_X__Z18convert_float8_rteDv8_j;
        lle_X__Z22convert_float8_sat_rteDv8_j;
        lle_X__Z18convert_float8_rtzDv8_j;
        lle_X__Z22convert_float8_sat_rtzDv8_j;
        lle_X__Z18convert_float8_rtpDv8_j;
        lle_X__Z22convert_float8_sat_rtpDv8_j;
        lle_X__Z18convert_float8_rtnDv8_j;
        lle_X__Z22convert_float8_sat_rtnDv8_j;
        lle_X__Z14convert_float8Dv8_j;
        lle_X__Z18convert_float8_satDv8_j;
        lle_X__Z18convert_float8_rteDv8_l;
        lle_X__Z22convert_float8_sat_rteDv8_l;
        lle_X__Z18convert_float8_rtzDv8_l;
        lle_X__Z22convert_float8_sat_rtzDv8_l;
        lle_X__Z18convert_float8_rtpDv8_l;
        lle_X__Z22convert_float8_sat_rtpDv8_l;
        lle_X__Z18convert_float8_rtnDv8_l;
        lle_X__Z22convert_float8_sat_rtnDv8_l;
        lle_X__Z14convert_float8Dv8_l;
        lle_X__Z18convert_float8_satDv8_l;
        lle_X__Z18convert_float8_rteDv8_m;
        lle_X__Z22convert_float8_sat_rteDv8_m;
        lle_X__Z18convert_float8_rtzDv8_m;
        lle_X__Z22convert_float8_sat_rtzDv8_m;
        lle_X__Z18convert_float8_rtpDv8_m;
        lle_X__Z22convert_float8_sat_rtpDv8_m;
        lle_X__Z18convert_float8_rtnDv8_m;
        lle_X__Z22convert_float8_sat_rtnDv8_m;
        lle_X__Z14convert_float8Dv8_m;
        lle_X__Z18convert_float8_satDv8_m;
        lle_X__Z18convert_float8_rteDv8_f;
        lle_X__Z22convert_float8_sat_rteDv8_f;
        lle_X__Z18convert_float8_rtzDv8_f;
        lle_X__Z22convert_float8_sat_rtzDv8_f;
        lle_X__Z18convert_float8_rtpDv8_f;
        lle_X__Z22convert_float8_sat_rtpDv8_f;
        lle_X__Z18convert_float8_rtnDv8_f;
        lle_X__Z22convert_float8_sat_rtnDv8_f;
        lle_X__Z14convert_float8Dv8_f;
        lle_X__Z18convert_float8_satDv8_f;
        lle_X__Z18convert_float8_rteDv8_d;
        lle_X__Z22convert_float8_sat_rteDv8_d;
        lle_X__Z18convert_float8_rtzDv8_d;
        lle_X__Z22convert_float8_sat_rtzDv8_d;
        lle_X__Z18convert_float8_rtpDv8_d;
        lle_X__Z22convert_float8_sat_rtpDv8_d;
        lle_X__Z18convert_float8_rtnDv8_d;
        lle_X__Z22convert_float8_sat_rtnDv8_d;
        lle_X__Z14convert_float8Dv8_d;
        lle_X__Z18convert_float8_satDv8_d;
        lle_X__Z19convert_float16_rteDv16_c;
        lle_X__Z23convert_float16_sat_rteDv16_c;
        lle_X__Z19convert_float16_rtzDv16_c;
        lle_X__Z23convert_float16_sat_rtzDv16_c;
        lle_X__Z19convert_float16_rtpDv16_c;
        lle_X__Z23convert_float16_sat_rtpDv16_c;
        lle_X__Z19convert_float16_rtnDv16_c;
        lle_X__Z23convert_float16_sat_rtnDv16_c;
        lle_X__Z15convert_float16Dv16_c;
        lle_X__Z19convert_float16_satDv16_c;
        lle_X__Z19convert_float16_rteDv16_h;
        lle_X__Z23convert_float16_sat_rteDv16_h;
        lle_X__Z19convert_float16_rtzDv16_h;
        lle_X__Z23convert_float16_sat_rtzDv16_h;
        lle_X__Z19convert_float16_rtpDv16_h;
        lle_X__Z23convert_float16_sat_rtpDv16_h;
        lle_X__Z19convert_float16_rtnDv16_h;
        lle_X__Z23convert_float16_sat_rtnDv16_h;
        lle_X__Z15convert_float16Dv16_h;
        lle_X__Z19convert_float16_satDv16_h;
        lle_X__Z19convert_float16_rteDv16_s;
        lle_X__Z23convert_float16_sat_rteDv16_s;
        lle_X__Z19convert_float16_rtzDv16_s;
        lle_X__Z23convert_float16_sat_rtzDv16_s;
        lle_X__Z19convert_float16_rtpDv16_s;
        lle_X__Z23convert_float16_sat_rtpDv16_s;
        lle_X__Z19convert_float16_rtnDv16_s;
        lle_X__Z23convert_float16_sat_rtnDv16_s;
        lle_X__Z15convert_float16Dv16_s;
        lle_X__Z19convert_float16_satDv16_s;
        lle_X__Z19convert_float16_rteDv16_t;
        lle_X__Z23convert_float16_sat_rteDv16_t;
        lle_X__Z19convert_float16_rtzDv16_t;
        lle_X__Z23convert_float16_sat_rtzDv16_t;
        lle_X__Z19convert_float16_rtpDv16_t;
        lle_X__Z23convert_float16_sat_rtpDv16_t;
        lle_X__Z19convert_float16_rtnDv16_t;
        lle_X__Z23convert_float16_sat_rtnDv16_t;
        lle_X__Z15convert_float16Dv16_t;
        lle_X__Z19convert_float16_satDv16_t;
        lle_X__Z19convert_float16_rteDv16_i;
        lle_X__Z23convert_float16_sat_rteDv16_i;
        lle_X__Z19convert_float16_rtzDv16_i;
        lle_X__Z23convert_float16_sat_rtzDv16_i;
        lle_X__Z19convert_float16_rtpDv16_i;
        lle_X__Z23convert_float16_sat_rtpDv16_i;
        lle_X__Z19convert_float16_rtnDv16_i;
        lle_X__Z23convert_float16_sat_rtnDv16_i;
        lle_X__Z15convert_float16Dv16_i;
        lle_X__Z19convert_float16_satDv16_i;
        lle_X__Z19convert_float16_rteDv16_j;
        lle_X__Z23convert_float16_sat_rteDv16_j;
        lle_X__Z19convert_float16_rtzDv16_j;
        lle_X__Z23convert_float16_sat_rtzDv16_j;
        lle_X__Z19convert_float16_rtpDv16_j;
        lle_X__Z23convert_float16_sat_rtpDv16_j;
        lle_X__Z19convert_float16_rtnDv16_j;
        lle_X__Z23convert_float16_sat_rtnDv16_j;
        lle_X__Z15convert_float16Dv16_j;
        lle_X__Z19convert_float16_satDv16_j;
        lle_X__Z19convert_float16_rteDv16_l;
        lle_X__Z23convert_float16_sat_rteDv16_l;
        lle_X__Z19convert_float16_rtzDv16_l;
        lle_X__Z23convert_float16_sat_rtzDv16_l;
        lle_X__Z19convert_float16_rtpDv16_l;
        lle_X__Z23convert_float16_sat_rtpDv16_l;
        lle_X__Z19convert_float16_rtnDv16_l;
        lle_X__Z23convert_float16_sat_rtnDv16_l;
        lle_X__Z15convert_float16Dv16_l;
        lle_X__Z19convert_float16_satDv16_l;
        lle_X__Z19convert_float16_rteDv16_m;
        lle_X__Z23convert_float16_sat_rteDv16_m;
        lle_X__Z19convert_float16_rtzDv16_m;
        lle_X__Z23convert_float16_sat_rtzDv16_m;
        lle_X__Z19convert_float16_rtpDv16_m;
        lle_X__Z23convert_float16_sat_rtpDv16_m;
        lle_X__Z19convert_float16_rtnDv16_m;
        lle_X__Z23convert_float16_sat_rtnDv16_m;
        lle_X__Z15convert_float16Dv16_m;
        lle_X__Z19convert_float16_satDv16_m;
        lle_X__Z19convert_float16_rteDv16_f;
        lle_X__Z23convert_float16_sat_rteDv16_f;
        lle_X__Z19convert_float16_rtzDv16_f;
        lle_X__Z23convert_float16_sat_rtzDv16_f;
        lle_X__Z19convert_float16_rtpDv16_f;
        lle_X__Z23convert_float16_sat_rtpDv16_f;
        lle_X__Z19convert_float16_rtnDv16_f;
        lle_X__Z23convert_float16_sat_rtnDv16_f;
        lle_X__Z15convert_float16Dv16_f;
        lle_X__Z19convert_float16_satDv16_f;
        lle_X__Z19convert_float16_rteDv16_d;
        lle_X__Z23convert_float16_sat_rteDv16_d;
        lle_X__Z19convert_float16_rtzDv16_d;
        lle_X__Z23convert_float16_sat_rtzDv16_d;
        lle_X__Z19convert_float16_rtpDv16_d;
        lle_X__Z23convert_float16_sat_rtpDv16_d;
        lle_X__Z19convert_float16_rtnDv16_d;
        lle_X__Z23convert_float16_sat_rtnDv16_d;
        lle_X__Z15convert_float16Dv16_d;
        lle_X__Z19convert_float16_satDv16_d;
        lle_X__Z16convert_char_rtec;
        lle_X__Z20convert_char_sat_rtec;
        lle_X__Z16convert_char_rtzc;
        lle_X__Z20convert_char_sat_rtzc;
        lle_X__Z16convert_char_rtpc;
        lle_X__Z20convert_char_sat_rtpc;
        lle_X__Z16convert_char_rtnc;
        lle_X__Z20convert_char_sat_rtnc;
        lle_X__Z12convert_charc;
        lle_X__Z16convert_char_satc;
        lle_X__Z16convert_char_rteh;
        lle_X__Z20convert_char_sat_rteh;
        lle_X__Z16convert_char_rtzh;
        lle_X__Z20convert_char_sat_rtzh;
        lle_X__Z16convert_char_rtph;
        lle_X__Z20convert_char_sat_rtph;
        lle_X__Z16convert_char_rtnh;
        lle_X__Z20convert_char_sat_rtnh;
        lle_X__Z12convert_charh;
        lle_X__Z16convert_char_sath;
        lle_X__Z16convert_char_rtes;
        lle_X__Z20convert_char_sat_rtes;
        lle_X__Z16convert_char_rtzs;
        lle_X__Z20convert_char_sat_rtzs;
        lle_X__Z16convert_char_rtps;
        lle_X__Z20convert_char_sat_rtps;
        lle_X__Z16convert_char_rtns;
        lle_X__Z20convert_char_sat_rtns;
        lle_X__Z12convert_chars;
        lle_X__Z16convert_char_sats;
        lle_X__Z16convert_char_rtet;
        lle_X__Z20convert_char_sat_rtet;
        lle_X__Z16convert_char_rtzt;
        lle_X__Z20convert_char_sat_rtzt;
        lle_X__Z16convert_char_rtpt;
        lle_X__Z20convert_char_sat_rtpt;
        lle_X__Z16convert_char_rtnt;
        lle_X__Z20convert_char_sat_rtnt;
        lle_X__Z12convert_chart;
        lle_X__Z16convert_char_satt;
        lle_X__Z16convert_char_rtei;
        lle_X__Z20convert_char_sat_rtei;
        lle_X__Z16convert_char_rtzi;
        lle_X__Z20convert_char_sat_rtzi;
        lle_X__Z16convert_char_rtpi;
        lle_X__Z20convert_char_sat_rtpi;
        lle_X__Z16convert_char_rtni;
        lle_X__Z20convert_char_sat_rtni;
        lle_X__Z12convert_chari;
        lle_X__Z16convert_char_sati;
        lle_X__Z16convert_char_rtej;
        lle_X__Z20convert_char_sat_rtej;
        lle_X__Z16convert_char_rtzj;
        lle_X__Z20convert_char_sat_rtzj;
        lle_X__Z16convert_char_rtpj;
        lle_X__Z20convert_char_sat_rtpj;
        lle_X__Z16convert_char_rtnj;
        lle_X__Z20convert_char_sat_rtnj;
        lle_X__Z12convert_charj;
        lle_X__Z16convert_char_satj;
        lle_X__Z16convert_char_rtel;
        lle_X__Z20convert_char_sat_rtel;
        lle_X__Z16convert_char_rtzl;
        lle_X__Z20convert_char_sat_rtzl;
        lle_X__Z16convert_char_rtpl;
        lle_X__Z20convert_char_sat_rtpl;
        lle_X__Z16convert_char_rtnl;
        lle_X__Z20convert_char_sat_rtnl;
        lle_X__Z12convert_charl;
        lle_X__Z16convert_char_satl;
        lle_X__Z16convert_char_rtem;
        lle_X__Z20convert_char_sat_rtem;
        lle_X__Z16convert_char_rtzm;
        lle_X__Z20convert_char_sat_rtzm;
        lle_X__Z16convert_char_rtpm;
        lle_X__Z20convert_char_sat_rtpm;
        lle_X__Z16convert_char_rtnm;
        lle_X__Z20convert_char_sat_rtnm;
        lle_X__Z12convert_charm;
        lle_X__Z16convert_char_satm;
        lle_X__Z16convert_char_rtef;
        lle_X__Z20convert_char_sat_rtef;
        lle_X__Z16convert_char_rtzf;
        lle_X__Z20convert_char_sat_rtzf;
        lle_X__Z16convert_char_rtpf;
        lle_X__Z20convert_char_sat_rtpf;
        lle_X__Z16convert_char_rtnf;
        lle_X__Z20convert_char_sat_rtnf;
        lle_X__Z12convert_charf;
        lle_X__Z16convert_char_satf;
        lle_X__Z16convert_char_rted;
        lle_X__Z20convert_char_sat_rted;
        lle_X__Z16convert_char_rtzd;
        lle_X__Z20convert_char_sat_rtzd;
        lle_X__Z16convert_char_rtpd;
        lle_X__Z20convert_char_sat_rtpd;
        lle_X__Z16convert_char_rtnd;
        lle_X__Z20convert_char_sat_rtnd;
        lle_X__Z12convert_chard;
        lle_X__Z16convert_char_satd;
        lle_X__Z17convert_uchar_rtec;
        lle_X__Z21convert_uchar_sat_rtec;
        lle_X__Z17convert_uchar_rtzc;
        lle_X__Z21convert_uchar_sat_rtzc;
        lle_X__Z17convert_uchar_rtpc;
        lle_X__Z21convert_uchar_sat_rtpc;
        lle_X__Z17convert_uchar_rtnc;
        lle_X__Z21convert_uchar_sat_rtnc;
        lle_X__Z13convert_ucharc;
        lle_X__Z17convert_uchar_satc;
        lle_X__Z17convert_uchar_rteh;
        lle_X__Z21convert_uchar_sat_rteh;
        lle_X__Z17convert_uchar_rtzh;
        lle_X__Z21convert_uchar_sat_rtzh;
        lle_X__Z17convert_uchar_rtph;
        lle_X__Z21convert_uchar_sat_rtph;
        lle_X__Z17convert_uchar_rtnh;
        lle_X__Z21convert_uchar_sat_rtnh;
        lle_X__Z13convert_ucharh;
        lle_X__Z17convert_uchar_sath;
        lle_X__Z17convert_uchar_rtes;
        lle_X__Z21convert_uchar_sat_rtes;
        lle_X__Z17convert_uchar_rtzs;
        lle_X__Z21convert_uchar_sat_rtzs;
        lle_X__Z17convert_uchar_rtps;
        lle_X__Z21convert_uchar_sat_rtps;
        lle_X__Z17convert_uchar_rtns;
        lle_X__Z21convert_uchar_sat_rtns;
        lle_X__Z13convert_uchars;
        lle_X__Z17convert_uchar_sats;
        lle_X__Z17convert_uchar_rtet;
        lle_X__Z21convert_uchar_sat_rtet;
        lle_X__Z17convert_uchar_rtzt;
        lle_X__Z21convert_uchar_sat_rtzt;
        lle_X__Z17convert_uchar_rtpt;
        lle_X__Z21convert_uchar_sat_rtpt;
        lle_X__Z17convert_uchar_rtnt;
        lle_X__Z21convert_uchar_sat_rtnt;
        lle_X__Z13convert_uchart;
        lle_X__Z17convert_uchar_satt;
        lle_X__Z17convert_uchar_rtei;
        lle_X__Z21convert_uchar_sat_rtei;
        lle_X__Z17convert_uchar_rtzi;
        lle_X__Z21convert_uchar_sat_rtzi;
        lle_X__Z17convert_uchar_rtpi;
        lle_X__Z21convert_uchar_sat_rtpi;
        lle_X__Z17convert_uchar_rtni;
        lle_X__Z21convert_uchar_sat_rtni;
        lle_X__Z13convert_uchari;
        lle_X__Z17convert_uchar_sati;
        lle_X__Z17convert_uchar_rtej;
        lle_X__Z21convert_uchar_sat_rtej;
        lle_X__Z17convert_uchar_rtzj;
        lle_X__Z21convert_uchar_sat_rtzj;
        lle_X__Z17convert_uchar_rtpj;
        lle_X__Z21convert_uchar_sat_rtpj;
        lle_X__Z17convert_uchar_rtnj;
        lle_X__Z21convert_uchar_sat_rtnj;
        lle_X__Z13convert_ucharj;
        lle_X__Z17convert_uchar_satj;
        lle_X__Z17convert_uchar_rtel;
        lle_X__Z21convert_uchar_sat_rtel;
        lle_X__Z17convert_uchar_rtzl;
        lle_X__Z21convert_uchar_sat_rtzl;
        lle_X__Z17convert_uchar_rtpl;
        lle_X__Z21convert_uchar_sat_rtpl;
        lle_X__Z17convert_uchar_rtnl;
        lle_X__Z21convert_uchar_sat_rtnl;
        lle_X__Z13convert_ucharl;
        lle_X__Z17convert_uchar_satl;
        lle_X__Z17convert_uchar_rtem;
        lle_X__Z21convert_uchar_sat_rtem;
        lle_X__Z17convert_uchar_rtzm;
        lle_X__Z21convert_uchar_sat_rtzm;
        lle_X__Z17convert_uchar_rtpm;
        lle_X__Z21convert_uchar_sat_rtpm;
        lle_X__Z17convert_uchar_rtnm;
        lle_X__Z21convert_uchar_sat_rtnm;
        lle_X__Z13convert_ucharm;
        lle_X__Z17convert_uchar_satm;
        lle_X__Z17convert_uchar_rtef;
        lle_X__Z21convert_uchar_sat_rtef;
        lle_X__Z17convert_uchar_rtzf;
        lle_X__Z21convert_uchar_sat_rtzf;
        lle_X__Z17convert_uchar_rtpf;
        lle_X__Z21convert_uchar_sat_rtpf;
        lle_X__Z17convert_uchar_rtnf;
        lle_X__Z21convert_uchar_sat_rtnf;
        lle_X__Z13convert_ucharf;
        lle_X__Z17convert_uchar_satf;
        lle_X__Z17convert_uchar_rted;
        lle_X__Z21convert_uchar_sat_rted;
        lle_X__Z17convert_uchar_rtzd;
        lle_X__Z21convert_uchar_sat_rtzd;
        lle_X__Z17convert_uchar_rtpd;
        lle_X__Z21convert_uchar_sat_rtpd;
        lle_X__Z17convert_uchar_rtnd;
        lle_X__Z21convert_uchar_sat_rtnd;
        lle_X__Z13convert_uchard;
        lle_X__Z17convert_uchar_satd;
        lle_X__Z17convert_short_rtec;
        lle_X__Z21convert_short_sat_rtec;
        lle_X__Z17convert_short_rtzc;
        lle_X__Z21convert_short_sat_rtzc;
        lle_X__Z17convert_short_rtpc;
        lle_X__Z21convert_short_sat_rtpc;
        lle_X__Z17convert_short_rtnc;
        lle_X__Z21convert_short_sat_rtnc;
        lle_X__Z13convert_shortc;
        lle_X__Z17convert_short_satc;
        lle_X__Z17convert_short_rteh;
        lle_X__Z21convert_short_sat_rteh;
        lle_X__Z17convert_short_rtzh;
        lle_X__Z21convert_short_sat_rtzh;
        lle_X__Z17convert_short_rtph;
        lle_X__Z21convert_short_sat_rtph;
        lle_X__Z17convert_short_rtnh;
        lle_X__Z21convert_short_sat_rtnh;
        lle_X__Z13convert_shorth;
        lle_X__Z17convert_short_sath;
        lle_X__Z17convert_short_rtes;
        lle_X__Z21convert_short_sat_rtes;
        lle_X__Z17convert_short_rtzs;
        lle_X__Z21convert_short_sat_rtzs;
        lle_X__Z17convert_short_rtps;
        lle_X__Z21convert_short_sat_rtps;
        lle_X__Z17convert_short_rtns;
        lle_X__Z21convert_short_sat_rtns;
        lle_X__Z13convert_shorts;
        lle_X__Z17convert_short_sats;
        lle_X__Z17convert_short_rtet;
        lle_X__Z21convert_short_sat_rtet;
        lle_X__Z17convert_short_rtzt;
        lle_X__Z21convert_short_sat_rtzt;
        lle_X__Z17convert_short_rtpt;
        lle_X__Z21convert_short_sat_rtpt;
        lle_X__Z17convert_short_rtnt;
        lle_X__Z21convert_short_sat_rtnt;
        lle_X__Z13convert_shortt;
        lle_X__Z17convert_short_satt;
        lle_X__Z17convert_short_rtei;
        lle_X__Z21convert_short_sat_rtei;
        lle_X__Z17convert_short_rtzi;
        lle_X__Z21convert_short_sat_rtzi;
        lle_X__Z17convert_short_rtpi;
        lle_X__Z21convert_short_sat_rtpi;
        lle_X__Z17convert_short_rtni;
        lle_X__Z21convert_short_sat_rtni;
        lle_X__Z13convert_shorti;
        lle_X__Z17convert_short_sati;
        lle_X__Z17convert_short_rtej;
        lle_X__Z21convert_short_sat_rtej;
        lle_X__Z17convert_short_rtzj;
        lle_X__Z21convert_short_sat_rtzj;
        lle_X__Z17convert_short_rtpj;
        lle_X__Z21convert_short_sat_rtpj;
        lle_X__Z17convert_short_rtnj;
        lle_X__Z21convert_short_sat_rtnj;
        lle_X__Z13convert_shortj;
        lle_X__Z17convert_short_satj;
        lle_X__Z17convert_short_rtel;
        lle_X__Z21convert_short_sat_rtel;
        lle_X__Z17convert_short_rtzl;
        lle_X__Z21convert_short_sat_rtzl;
        lle_X__Z17convert_short_rtpl;
        lle_X__Z21convert_short_sat_rtpl;
        lle_X__Z17convert_short_rtnl;
        lle_X__Z21convert_short_sat_rtnl;
        lle_X__Z13convert_shortl;
        lle_X__Z17convert_short_satl;
        lle_X__Z17convert_short_rtem;
        lle_X__Z21convert_short_sat_rtem;
        lle_X__Z17convert_short_rtzm;
        lle_X__Z21convert_short_sat_rtzm;
        lle_X__Z17convert_short_rtpm;
        lle_X__Z21convert_short_sat_rtpm;
        lle_X__Z17convert_short_rtnm;
        lle_X__Z21convert_short_sat_rtnm;
        lle_X__Z13convert_shortm;
        lle_X__Z17convert_short_satm;
        lle_X__Z17convert_short_rtef;
        lle_X__Z21convert_short_sat_rtef;
        lle_X__Z17convert_short_rtzf;
        lle_X__Z21convert_short_sat_rtzf;
        lle_X__Z17convert_short_rtpf;
        lle_X__Z21convert_short_sat_rtpf;
        lle_X__Z17convert_short_rtnf;
        lle_X__Z21convert_short_sat_rtnf;
        lle_X__Z13convert_shortf;
        lle_X__Z17convert_short_satf;
        lle_X__Z17convert_short_rted;
        lle_X__Z21convert_short_sat_rted;
        lle_X__Z17convert_short_rtzd;
        lle_X__Z21convert_short_sat_rtzd;
        lle_X__Z17convert_short_rtpd;
        lle_X__Z21convert_short_sat_rtpd;
        lle_X__Z17convert_short_rtnd;
        lle_X__Z21convert_short_sat_rtnd;
        lle_X__Z13convert_shortd;
        lle_X__Z17convert_short_satd;
        lle_X__Z18convert_ushort_rtec;
        lle_X__Z22convert_ushort_sat_rtec;
        lle_X__Z18convert_ushort_rtzc;
        lle_X__Z22convert_ushort_sat_rtzc;
        lle_X__Z18convert_ushort_rtpc;
        lle_X__Z22convert_ushort_sat_rtpc;
        lle_X__Z18convert_ushort_rtnc;
        lle_X__Z22convert_ushort_sat_rtnc;
        lle_X__Z14convert_ushortc;
        lle_X__Z18convert_ushort_satc;
        lle_X__Z18convert_ushort_rteh;
        lle_X__Z22convert_ushort_sat_rteh;
        lle_X__Z18convert_ushort_rtzh;
        lle_X__Z22convert_ushort_sat_rtzh;
        lle_X__Z18convert_ushort_rtph;
        lle_X__Z22convert_ushort_sat_rtph;
        lle_X__Z18convert_ushort_rtnh;
        lle_X__Z22convert_ushort_sat_rtnh;
        lle_X__Z14convert_ushorth;
        lle_X__Z18convert_ushort_sath;
        lle_X__Z18convert_ushort_rtes;
        lle_X__Z22convert_ushort_sat_rtes;
        lle_X__Z18convert_ushort_rtzs;
        lle_X__Z22convert_ushort_sat_rtzs;
        lle_X__Z18convert_ushort_rtps;
        lle_X__Z22convert_ushort_sat_rtps;
        lle_X__Z18convert_ushort_rtns;
        lle_X__Z22convert_ushort_sat_rtns;
        lle_X__Z14convert_ushorts;
        lle_X__Z18convert_ushort_sats;
        lle_X__Z18convert_ushort_rtet;
        lle_X__Z22convert_ushort_sat_rtet;
        lle_X__Z18convert_ushort_rtzt;
        lle_X__Z22convert_ushort_sat_rtzt;
        lle_X__Z18convert_ushort_rtpt;
        lle_X__Z22convert_ushort_sat_rtpt;
        lle_X__Z18convert_ushort_rtnt;
        lle_X__Z22convert_ushort_sat_rtnt;
        lle_X__Z14convert_ushortt;
        lle_X__Z18convert_ushort_satt;
        lle_X__Z18convert_ushort_rtei;
        lle_X__Z22convert_ushort_sat_rtei;
        lle_X__Z18convert_ushort_rtzi;
        lle_X__Z22convert_ushort_sat_rtzi;
        lle_X__Z18convert_ushort_rtpi;
        lle_X__Z22convert_ushort_sat_rtpi;
        lle_X__Z18convert_ushort_rtni;
        lle_X__Z22convert_ushort_sat_rtni;
        lle_X__Z14convert_ushorti;
        lle_X__Z18convert_ushort_sati;
        lle_X__Z18convert_ushort_rtej;
        lle_X__Z22convert_ushort_sat_rtej;
        lle_X__Z18convert_ushort_rtzj;
        lle_X__Z22convert_ushort_sat_rtzj;
        lle_X__Z18convert_ushort_rtpj;
        lle_X__Z22convert_ushort_sat_rtpj;
        lle_X__Z18convert_ushort_rtnj;
        lle_X__Z22convert_ushort_sat_rtnj;
        lle_X__Z14convert_ushortj;
        lle_X__Z18convert_ushort_satj;
        lle_X__Z18convert_ushort_rtel;
        lle_X__Z22convert_ushort_sat_rtel;
        lle_X__Z18convert_ushort_rtzl;
        lle_X__Z22convert_ushort_sat_rtzl;
        lle_X__Z18convert_ushort_rtpl;
        lle_X__Z22convert_ushort_sat_rtpl;
        lle_X__Z18convert_ushort_rtnl;
        lle_X__Z22convert_ushort_sat_rtnl;
        lle_X__Z14convert_ushortl;
        lle_X__Z18convert_ushort_satl;
        lle_X__Z18convert_ushort_rtem;
        lle_X__Z22convert_ushort_sat_rtem;
        lle_X__Z18convert_ushort_rtzm;
        lle_X__Z22convert_ushort_sat_rtzm;
        lle_X__Z18convert_ushort_rtpm;
        lle_X__Z22convert_ushort_sat_rtpm;
        lle_X__Z18convert_ushort_rtnm;
        lle_X__Z22convert_ushort_sat_rtnm;
        lle_X__Z14convert_ushortm;
        lle_X__Z18convert_ushort_satm;
        lle_X__Z18convert_ushort_rtef;
        lle_X__Z22convert_ushort_sat_rtef;
        lle_X__Z18convert_ushort_rtzf;
        lle_X__Z22convert_ushort_sat_rtzf;
        lle_X__Z18convert_ushort_rtpf;
        lle_X__Z22convert_ushort_sat_rtpf;
        lle_X__Z18convert_ushort_rtnf;
        lle_X__Z22convert_ushort_sat_rtnf;
        lle_X__Z14convert_ushortf;
        lle_X__Z18convert_ushort_satf;
        lle_X__Z18convert_ushort_rted;
        lle_X__Z22convert_ushort_sat_rted;
        lle_X__Z18convert_ushort_rtzd;
        lle_X__Z22convert_ushort_sat_rtzd;
        lle_X__Z18convert_ushort_rtpd;
        lle_X__Z22convert_ushort_sat_rtpd;
        lle_X__Z18convert_ushort_rtnd;
        lle_X__Z22convert_ushort_sat_rtnd;
        lle_X__Z14convert_ushortd;
        lle_X__Z18convert_ushort_satd;
        lle_X__Z15convert_int_rtec;
        lle_X__Z19convert_int_sat_rtec;
        lle_X__Z15convert_int_rtzc;
        lle_X__Z19convert_int_sat_rtzc;
        lle_X__Z15convert_int_rtpc;
        lle_X__Z19convert_int_sat_rtpc;
        lle_X__Z15convert_int_rtnc;
        lle_X__Z19convert_int_sat_rtnc;
        lle_X__Z11convert_intc;
        lle_X__Z15convert_int_satc;
        lle_X__Z15convert_int_rteh;
        lle_X__Z19convert_int_sat_rteh;
        lle_X__Z15convert_int_rtzh;
        lle_X__Z19convert_int_sat_rtzh;
        lle_X__Z15convert_int_rtph;
        lle_X__Z19convert_int_sat_rtph;
        lle_X__Z15convert_int_rtnh;
        lle_X__Z19convert_int_sat_rtnh;
        lle_X__Z11convert_inth;
        lle_X__Z15convert_int_sath;
        lle_X__Z15convert_int_rtes;
        lle_X__Z19convert_int_sat_rtes;
        lle_X__Z15convert_int_rtzs;
        lle_X__Z19convert_int_sat_rtzs;
        lle_X__Z15convert_int_rtps;
        lle_X__Z19convert_int_sat_rtps;
        lle_X__Z15convert_int_rtns;
        lle_X__Z19convert_int_sat_rtns;
        lle_X__Z11convert_ints;
        lle_X__Z15convert_int_sats;
        lle_X__Z15convert_int_rtet;
        lle_X__Z19convert_int_sat_rtet;
        lle_X__Z15convert_int_rtzt;
        lle_X__Z19convert_int_sat_rtzt;
        lle_X__Z15convert_int_rtpt;
        lle_X__Z19convert_int_sat_rtpt;
        lle_X__Z15convert_int_rtnt;
        lle_X__Z19convert_int_sat_rtnt;
        lle_X__Z11convert_intt;
        lle_X__Z15convert_int_satt;
        lle_X__Z15convert_int_rtei;
        lle_X__Z19convert_int_sat_rtei;
        lle_X__Z15convert_int_rtzi;
        lle_X__Z19convert_int_sat_rtzi;
        lle_X__Z15convert_int_rtpi;
        lle_X__Z19convert_int_sat_rtpi;
        lle_X__Z15convert_int_rtni;
        lle_X__Z19convert_int_sat_rtni;
        lle_X__Z11convert_inti;
        lle_X__Z15convert_int_sati;
        lle_X__Z15convert_int_rtej;
        lle_X__Z19convert_int_sat_rtej;
        lle_X__Z15convert_int_rtzj;
        lle_X__Z19convert_int_sat_rtzj;
        lle_X__Z15convert_int_rtpj;
        lle_X__Z19convert_int_sat_rtpj;
        lle_X__Z15convert_int_rtnj;
        lle_X__Z19convert_int_sat_rtnj;
        lle_X__Z11convert_intj;
        lle_X__Z15convert_int_satj;
        lle_X__Z15convert_int_rtel;
        lle_X__Z19convert_int_sat_rtel;
        lle_X__Z15convert_int_rtzl;
        lle_X__Z19convert_int_sat_rtzl;
        lle_X__Z15convert_int_rtpl;
        lle_X__Z19convert_int_sat_rtpl;
        lle_X__Z15convert_int_rtnl;
        lle_X__Z19convert_int_sat_rtnl;
        lle_X__Z11convert_intl;
        lle_X__Z15convert_int_satl;
        lle_X__Z15convert_int_rtem;
        lle_X__Z19convert_int_sat_rtem;
        lle_X__Z15convert_int_rtzm;
        lle_X__Z19convert_int_sat_rtzm;
        lle_X__Z15convert_int_rtpm;
        lle_X__Z19convert_int_sat_rtpm;
        lle_X__Z15convert_int_rtnm;
        lle_X__Z19convert_int_sat_rtnm;
        lle_X__Z11convert_intm;
        lle_X__Z15convert_int_satm;
        lle_X__Z15convert_int_rtef;
        lle_X__Z19convert_int_sat_rtef;
        lle_X__Z15convert_int_rtzf;
        lle_X__Z19convert_int_sat_rtzf;
        lle_X__Z15convert_int_rtpf;
        lle_X__Z19convert_int_sat_rtpf;
        lle_X__Z15convert_int_rtnf;
        lle_X__Z19convert_int_sat_rtnf;
        lle_X__Z11convert_intf;
        lle_X__Z15convert_int_satf;
        lle_X__Z15convert_int_rted;
        lle_X__Z19convert_int_sat_rted;
        lle_X__Z15convert_int_rtzd;
        lle_X__Z19convert_int_sat_rtzd;
        lle_X__Z15convert_int_rtpd;
        lle_X__Z19convert_int_sat_rtpd;
        lle_X__Z15convert_int_rtnd;
        lle_X__Z19convert_int_sat_rtnd;
        lle_X__Z11convert_intd;
        lle_X__Z15convert_int_satd;
        lle_X__Z16convert_uint_rtec;
        lle_X__Z20convert_uint_sat_rtec;
        lle_X__Z16convert_uint_rtzc;
        lle_X__Z20convert_uint_sat_rtzc;
        lle_X__Z16convert_uint_rtpc;
        lle_X__Z20convert_uint_sat_rtpc;
        lle_X__Z16convert_uint_rtnc;
        lle_X__Z20convert_uint_sat_rtnc;
        lle_X__Z12convert_uintc;
        lle_X__Z16convert_uint_satc;
        lle_X__Z16convert_uint_rteh;
        lle_X__Z20convert_uint_sat_rteh;
        lle_X__Z16convert_uint_rtzh;
        lle_X__Z20convert_uint_sat_rtzh;
        lle_X__Z16convert_uint_rtph;
        lle_X__Z20convert_uint_sat_rtph;
        lle_X__Z16convert_uint_rtnh;
        lle_X__Z20convert_uint_sat_rtnh;
        lle_X__Z12convert_uinth;
        lle_X__Z16convert_uint_sath;
        lle_X__Z16convert_uint_rtes;
        lle_X__Z20convert_uint_sat_rtes;
        lle_X__Z16convert_uint_rtzs;
        lle_X__Z20convert_uint_sat_rtzs;
        lle_X__Z16convert_uint_rtps;
        lle_X__Z20convert_uint_sat_rtps;
        lle_X__Z16convert_uint_rtns;
        lle_X__Z20convert_uint_sat_rtns;
        lle_X__Z12convert_uints;
        lle_X__Z16convert_uint_sats;
        lle_X__Z16convert_uint_rtet;
        lle_X__Z20convert_uint_sat_rtet;
        lle_X__Z16convert_uint_rtzt;
        lle_X__Z20convert_uint_sat_rtzt;
        lle_X__Z16convert_uint_rtpt;
        lle_X__Z20convert_uint_sat_rtpt;
        lle_X__Z16convert_uint_rtnt;
        lle_X__Z20convert_uint_sat_rtnt;
        lle_X__Z12convert_uintt;
        lle_X__Z16convert_uint_satt;
        lle_X__Z16convert_uint_rtei;
        lle_X__Z20convert_uint_sat_rtei;
        lle_X__Z16convert_uint_rtzi;
        lle_X__Z20convert_uint_sat_rtzi;
        lle_X__Z16convert_uint_rtpi;
        lle_X__Z20convert_uint_sat_rtpi;
        lle_X__Z16convert_uint_rtni;
        lle_X__Z20convert_uint_sat_rtni;
        lle_X__Z12convert_uinti;
        lle_X__Z16convert_uint_sati;
        lle_X__Z16convert_uint_rtej;
        lle_X__Z20convert_uint_sat_rtej;
        lle_X__Z16convert_uint_rtzj;
        lle_X__Z20convert_uint_sat_rtzj;
        lle_X__Z16convert_uint_rtpj;
        lle_X__Z20convert_uint_sat_rtpj;
        lle_X__Z16convert_uint_rtnj;
        lle_X__Z20convert_uint_sat_rtnj;
        lle_X__Z12convert_uintj;
        lle_X__Z16convert_uint_satj;
        lle_X__Z16convert_uint_rtel;
        lle_X__Z20convert_uint_sat_rtel;
        lle_X__Z16convert_uint_rtzl;
        lle_X__Z20convert_uint_sat_rtzl;
        lle_X__Z16convert_uint_rtpl;
        lle_X__Z20convert_uint_sat_rtpl;
        lle_X__Z16convert_uint_rtnl;
        lle_X__Z20convert_uint_sat_rtnl;
        lle_X__Z12convert_uintl;
        lle_X__Z16convert_uint_satl;
        lle_X__Z16convert_uint_rtem;
        lle_X__Z20convert_uint_sat_rtem;
        lle_X__Z16convert_uint_rtzm;
        lle_X__Z20convert_uint_sat_rtzm;
        lle_X__Z16convert_uint_rtpm;
        lle_X__Z20convert_uint_sat_rtpm;
        lle_X__Z16convert_uint_rtnm;
        lle_X__Z20convert_uint_sat_rtnm;
        lle_X__Z12convert_uintm;
        lle_X__Z16convert_uint_satm;
        lle_X__Z16convert_uint_rtef;
        lle_X__Z20convert_uint_sat_rtef;
        lle_X__Z16convert_uint_rtzf;
        lle_X__Z20convert_uint_sat_rtzf;
        lle_X__Z16convert_uint_rtpf;
        lle_X__Z20convert_uint_sat_rtpf;
        lle_X__Z16convert_uint_rtnf;
        lle_X__Z20convert_uint_sat_rtnf;
        lle_X__Z12convert_uintf;
        lle_X__Z16convert_uint_satf;
        lle_X__Z16convert_uint_rted;
        lle_X__Z20convert_uint_sat_rted;
        lle_X__Z16convert_uint_rtzd;
        lle_X__Z20convert_uint_sat_rtzd;
        lle_X__Z16convert_uint_rtpd;
        lle_X__Z20convert_uint_sat_rtpd;
        lle_X__Z16convert_uint_rtnd;
        lle_X__Z20convert_uint_sat_rtnd;
        lle_X__Z12convert_uintd;
        lle_X__Z16convert_uint_satd;
        lle_X__Z16convert_long_rtec;
        lle_X__Z20convert_long_sat_rtec;
        lle_X__Z16convert_long_rtzc;
        lle_X__Z20convert_long_sat_rtzc;
        lle_X__Z16convert_long_rtpc;
        lle_X__Z20convert_long_sat_rtpc;
        lle_X__Z16convert_long_rtnc;
        lle_X__Z20convert_long_sat_rtnc;
        lle_X__Z12convert_longc;
        lle_X__Z16convert_long_satc;
        lle_X__Z16convert_long_rteh;
        lle_X__Z20convert_long_sat_rteh;
        lle_X__Z16convert_long_rtzh;
        lle_X__Z20convert_long_sat_rtzh;
        lle_X__Z16convert_long_rtph;
        lle_X__Z20convert_long_sat_rtph;
        lle_X__Z16convert_long_rtnh;
        lle_X__Z20convert_long_sat_rtnh;
        lle_X__Z12convert_longh;
        lle_X__Z16convert_long_sath;
        lle_X__Z16convert_long_rtes;
        lle_X__Z20convert_long_sat_rtes;
        lle_X__Z16convert_long_rtzs;
        lle_X__Z20convert_long_sat_rtzs;
        lle_X__Z16convert_long_rtps;
        lle_X__Z20convert_long_sat_rtps;
        lle_X__Z16convert_long_rtns;
        lle_X__Z20convert_long_sat_rtns;
        lle_X__Z12convert_longs;
        lle_X__Z16convert_long_sats;
        lle_X__Z16convert_long_rtet;
        lle_X__Z20convert_long_sat_rtet;
        lle_X__Z16convert_long_rtzt;
        lle_X__Z20convert_long_sat_rtzt;
        lle_X__Z16convert_long_rtpt;
        lle_X__Z20convert_long_sat_rtpt;
        lle_X__Z16convert_long_rtnt;
        lle_X__Z20convert_long_sat_rtnt;
        lle_X__Z12convert_longt;
        lle_X__Z16convert_long_satt;
        lle_X__Z16convert_long_rtei;
        lle_X__Z20convert_long_sat_rtei;
        lle_X__Z16convert_long_rtzi;
        lle_X__Z20convert_long_sat_rtzi;
        lle_X__Z16convert_long_rtpi;
        lle_X__Z20convert_long_sat_rtpi;
        lle_X__Z16convert_long_rtni;
        lle_X__Z20convert_long_sat_rtni;
        lle_X__Z12convert_longi;
        lle_X__Z16convert_long_sati;
        lle_X__Z16convert_long_rtej;
        lle_X__Z20convert_long_sat_rtej;
        lle_X__Z16convert_long_rtzj;
        lle_X__Z20convert_long_sat_rtzj;
        lle_X__Z16convert_long_rtpj;
        lle_X__Z20convert_long_sat_rtpj;
        lle_X__Z16convert_long_rtnj;
        lle_X__Z20convert_long_sat_rtnj;
        lle_X__Z12convert_longj;
        lle_X__Z16convert_long_satj;
        lle_X__Z16convert_long_rtel;
        lle_X__Z20convert_long_sat_rtel;
        lle_X__Z16convert_long_rtzl;
        lle_X__Z20convert_long_sat_rtzl;
        lle_X__Z16convert_long_rtpl;
        lle_X__Z20convert_long_sat_rtpl;
        lle_X__Z16convert_long_rtnl;
        lle_X__Z20convert_long_sat_rtnl;
        lle_X__Z12convert_longl;
        lle_X__Z16convert_long_satl;
        lle_X__Z16convert_long_rtem;
        lle_X__Z20convert_long_sat_rtem;
        lle_X__Z16convert_long_rtzm;
        lle_X__Z20convert_long_sat_rtzm;
        lle_X__Z16convert_long_rtpm;
        lle_X__Z20convert_long_sat_rtpm;
        lle_X__Z16convert_long_rtnm;
        lle_X__Z20convert_long_sat_rtnm;
        lle_X__Z12convert_longm;
        lle_X__Z16convert_long_satm;
        lle_X__Z16convert_long_rtef;
        lle_X__Z20convert_long_sat_rtef;
        lle_X__Z16convert_long_rtzf;
        lle_X__Z20convert_long_sat_rtzf;
        lle_X__Z16convert_long_rtpf;
        lle_X__Z20convert_long_sat_rtpf;
        lle_X__Z16convert_long_rtnf;
        lle_X__Z20convert_long_sat_rtnf;
        lle_X__Z12convert_longf;
        lle_X__Z16convert_long_satf;
        lle_X__Z16convert_long_rted;
        lle_X__Z20convert_long_sat_rted;
        lle_X__Z16convert_long_rtzd;
        lle_X__Z20convert_long_sat_rtzd;
        lle_X__Z16convert_long_rtpd;
        lle_X__Z20convert_long_sat_rtpd;
        lle_X__Z16convert_long_rtnd;
        lle_X__Z20convert_long_sat_rtnd;
        lle_X__Z12convert_longd;
        lle_X__Z16convert_long_satd;
        lle_X__Z17convert_ulong_rtec;
        lle_X__Z21convert_ulong_sat_rtec;
        lle_X__Z17convert_ulong_rtzc;
        lle_X__Z21convert_ulong_sat_rtzc;
        lle_X__Z17convert_ulong_rtpc;
        lle_X__Z21convert_ulong_sat_rtpc;
        lle_X__Z17convert_ulong_rtnc;
        lle_X__Z21convert_ulong_sat_rtnc;
        lle_X__Z13convert_ulongc;
        lle_X__Z17convert_ulong_satc;
        lle_X__Z17convert_ulong_rteh;
        lle_X__Z21convert_ulong_sat_rteh;
        lle_X__Z17convert_ulong_rtzh;
        lle_X__Z21convert_ulong_sat_rtzh;
        lle_X__Z17convert_ulong_rtph;
        lle_X__Z21convert_ulong_sat_rtph;
        lle_X__Z17convert_ulong_rtnh;
        lle_X__Z21convert_ulong_sat_rtnh;
        lle_X__Z13convert_ulongh;
        lle_X__Z17convert_ulong_sath;
        lle_X__Z17convert_ulong_rtes;
        lle_X__Z21convert_ulong_sat_rtes;
        lle_X__Z17convert_ulong_rtzs;
        lle_X__Z21convert_ulong_sat_rtzs;
        lle_X__Z17convert_ulong_rtps;
        lle_X__Z21convert_ulong_sat_rtps;
        lle_X__Z17convert_ulong_rtns;
        lle_X__Z21convert_ulong_sat_rtns;
        lle_X__Z13convert_ulongs;
        lle_X__Z17convert_ulong_sats;
        lle_X__Z17convert_ulong_rtet;
        lle_X__Z21convert_ulong_sat_rtet;
        lle_X__Z17convert_ulong_rtzt;
        lle_X__Z21convert_ulong_sat_rtzt;
        lle_X__Z17convert_ulong_rtpt;
        lle_X__Z21convert_ulong_sat_rtpt;
        lle_X__Z17convert_ulong_rtnt;
        lle_X__Z21convert_ulong_sat_rtnt;
        lle_X__Z13convert_ulongt;
        lle_X__Z17convert_ulong_satt;
        lle_X__Z17convert_ulong_rtei;
        lle_X__Z21convert_ulong_sat_rtei;
        lle_X__Z17convert_ulong_rtzi;
        lle_X__Z21convert_ulong_sat_rtzi;
        lle_X__Z17convert_ulong_rtpi;
        lle_X__Z21convert_ulong_sat_rtpi;
        lle_X__Z17convert_ulong_rtni;
        lle_X__Z21convert_ulong_sat_rtni;
        lle_X__Z13convert_ulongi;
        lle_X__Z17convert_ulong_sati;
        lle_X__Z17convert_ulong_rtej;
        lle_X__Z21convert_ulong_sat_rtej;
        lle_X__Z17convert_ulong_rtzj;
        lle_X__Z21convert_ulong_sat_rtzj;
        lle_X__Z17convert_ulong_rtpj;
        lle_X__Z21convert_ulong_sat_rtpj;
        lle_X__Z17convert_ulong_rtnj;
        lle_X__Z21convert_ulong_sat_rtnj;
        lle_X__Z13convert_ulongj;
        lle_X__Z17convert_ulong_satj;
        lle_X__Z17convert_ulong_rtel;
        lle_X__Z21convert_ulong_sat_rtel;
        lle_X__Z17convert_ulong_rtzl;
        lle_X__Z21convert_ulong_sat_rtzl;
        lle_X__Z17convert_ulong_rtpl;
        lle_X__Z21convert_ulong_sat_rtpl;
        lle_X__Z17convert_ulong_rtnl;
        lle_X__Z21convert_ulong_sat_rtnl;
        lle_X__Z13convert_ulongl;
        lle_X__Z17convert_ulong_satl;
        lle_X__Z17convert_ulong_rtem;
        lle_X__Z21convert_ulong_sat_rtem;
        lle_X__Z17convert_ulong_rtzm;
        lle_X__Z21convert_ulong_sat_rtzm;
        lle_X__Z17convert_ulong_rtpm;
        lle_X__Z21convert_ulong_sat_rtpm;
        lle_X__Z17convert_ulong_rtnm;
        lle_X__Z21convert_ulong_sat_rtnm;
        lle_X__Z13convert_ulongm;
        lle_X__Z17convert_ulong_satm;
        lle_X__Z17convert_ulong_rtef;
        lle_X__Z21convert_ulong_sat_rtef;
        lle_X__Z17convert_ulong_rtzf;
        lle_X__Z21convert_ulong_sat_rtzf;
        lle_X__Z17convert_ulong_rtpf;
        lle_X__Z21convert_ulong_sat_rtpf;
        lle_X__Z17convert_ulong_rtnf;
        lle_X__Z21convert_ulong_sat_rtnf;
        lle_X__Z13convert_ulongf;
        lle_X__Z17convert_ulong_satf;
        lle_X__Z17convert_ulong_rted;
        lle_X__Z21convert_ulong_sat_rted;
        lle_X__Z17convert_ulong_rtzd;
        lle_X__Z21convert_ulong_sat_rtzd;
        lle_X__Z17convert_ulong_rtpd;
        lle_X__Z21convert_ulong_sat_rtpd;
        lle_X__Z17convert_ulong_rtnd;
        lle_X__Z21convert_ulong_sat_rtnd;
        lle_X__Z13convert_ulongd;
        lle_X__Z17convert_ulong_satd;
        lle_X__Z18convert_double_rtec;
        lle_X__Z22convert_double_sat_rtec;
        lle_X__Z18convert_double_rtzc;
        lle_X__Z22convert_double_sat_rtzc;
        lle_X__Z18convert_double_rtpc;
        lle_X__Z22convert_double_sat_rtpc;
        lle_X__Z18convert_double_rtnc;
        lle_X__Z22convert_double_sat_rtnc;
        lle_X__Z14convert_doublec;
        lle_X__Z18convert_double_satc;
        lle_X__Z18convert_double_rteh;
        lle_X__Z22convert_double_sat_rteh;
        lle_X__Z18convert_double_rtzh;
        lle_X__Z22convert_double_sat_rtzh;
        lle_X__Z18convert_double_rtph;
        lle_X__Z22convert_double_sat_rtph;
        lle_X__Z18convert_double_rtnh;
        lle_X__Z22convert_double_sat_rtnh;
        lle_X__Z14convert_doubleh;
        lle_X__Z18convert_double_sath;
        lle_X__Z18convert_double_rtes;
        lle_X__Z22convert_double_sat_rtes;
        lle_X__Z18convert_double_rtzs;
        lle_X__Z22convert_double_sat_rtzs;
        lle_X__Z18convert_double_rtps;
        lle_X__Z22convert_double_sat_rtps;
        lle_X__Z18convert_double_rtns;
        lle_X__Z22convert_double_sat_rtns;
        lle_X__Z14convert_doubles;
        lle_X__Z18convert_double_sats;
        lle_X__Z18convert_double_rtet;
        lle_X__Z22convert_double_sat_rtet;
        lle_X__Z18convert_double_rtzt;
        lle_X__Z22convert_double_sat_rtzt;
        lle_X__Z18convert_double_rtpt;
        lle_X__Z22convert_double_sat_rtpt;
        lle_X__Z18convert_double_rtnt;
        lle_X__Z22convert_double_sat_rtnt;
        lle_X__Z14convert_doublet;
        lle_X__Z18convert_double_satt;
        lle_X__Z18convert_double_rtei;
        lle_X__Z22convert_double_sat_rtei;
        lle_X__Z18convert_double_rtzi;
        lle_X__Z22convert_double_sat_rtzi;
        lle_X__Z18convert_double_rtpi;
        lle_X__Z22convert_double_sat_rtpi;
        lle_X__Z18convert_double_rtni;
        lle_X__Z22convert_double_sat_rtni;
        lle_X__Z14convert_doublei;
        lle_X__Z18convert_double_sati;
        lle_X__Z18convert_double_rtej;
        lle_X__Z22convert_double_sat_rtej;
        lle_X__Z18convert_double_rtzj;
        lle_X__Z22convert_double_sat_rtzj;
        lle_X__Z18convert_double_rtpj;
        lle_X__Z22convert_double_sat_rtpj;
        lle_X__Z18convert_double_rtnj;
        lle_X__Z22convert_double_sat_rtnj;
        lle_X__Z14convert_doublej;
        lle_X__Z18convert_double_satj;
        lle_X__Z18convert_double_rtel;
        lle_X__Z22convert_double_sat_rtel;
        lle_X__Z18convert_double_rtzl;
        lle_X__Z22convert_double_sat_rtzl;
        lle_X__Z18convert_double_rtpl;
        lle_X__Z22convert_double_sat_rtpl;
        lle_X__Z18convert_double_rtnl;
        lle_X__Z22convert_double_sat_rtnl;
        lle_X__Z14convert_doublel;
        lle_X__Z18convert_double_satl;
        lle_X__Z18convert_double_rtem;
        lle_X__Z22convert_double_sat_rtem;
        lle_X__Z18convert_double_rtzm;
        lle_X__Z22convert_double_sat_rtzm;
        lle_X__Z18convert_double_rtpm;
        lle_X__Z22convert_double_sat_rtpm;
        lle_X__Z18convert_double_rtnm;
        lle_X__Z22convert_double_sat_rtnm;
        lle_X__Z14convert_doublem;
        lle_X__Z18convert_double_satm;
        lle_X__Z18convert_double_rtef;
        lle_X__Z22convert_double_sat_rtef;
        lle_X__Z18convert_double_rtzf;
        lle_X__Z22convert_double_sat_rtzf;
        lle_X__Z18convert_double_rtpf;
        lle_X__Z22convert_double_sat_rtpf;
        lle_X__Z18convert_double_rtnf;
        lle_X__Z22convert_double_sat_rtnf;
        lle_X__Z14convert_doublef;
        lle_X__Z18convert_double_satf;
        lle_X__Z18convert_double_rted;
        lle_X__Z22convert_double_sat_rted;
        lle_X__Z18convert_double_rtzd;
        lle_X__Z22convert_double_sat_rtzd;
        lle_X__Z18convert_double_rtpd;
        lle_X__Z22convert_double_sat_rtpd;
        lle_X__Z18convert_double_rtnd;
        lle_X__Z22convert_double_sat_rtnd;
        lle_X__Z14convert_doubled;
        lle_X__Z18convert_double_satd;
        lle_X__Z17convert_char2_rteDv2_c;
        lle_X__Z21convert_char2_sat_rteDv2_c;
        lle_X__Z17convert_char2_rtzDv2_c;
        lle_X__Z21convert_char2_sat_rtzDv2_c;
        lle_X__Z17convert_char2_rtpDv2_c;
        lle_X__Z21convert_char2_sat_rtpDv2_c;
        lle_X__Z17convert_char2_rtnDv2_c;
        lle_X__Z21convert_char2_sat_rtnDv2_c;
        lle_X__Z13convert_char2Dv2_c;
        lle_X__Z17convert_char2_satDv2_c;
        lle_X__Z17convert_char2_rteDv2_h;
        lle_X__Z21convert_char2_sat_rteDv2_h;
        lle_X__Z17convert_char2_rtzDv2_h;
        lle_X__Z21convert_char2_sat_rtzDv2_h;
        lle_X__Z17convert_char2_rtpDv2_h;
        lle_X__Z21convert_char2_sat_rtpDv2_h;
        lle_X__Z17convert_char2_rtnDv2_h;
        lle_X__Z21convert_char2_sat_rtnDv2_h;
        lle_X__Z13convert_char2Dv2_h;
        lle_X__Z17convert_char2_satDv2_h;
        lle_X__Z17convert_char2_rteDv2_s;
        lle_X__Z21convert_char2_sat_rteDv2_s;
        lle_X__Z17convert_char2_rtzDv2_s;
        lle_X__Z21convert_char2_sat_rtzDv2_s;
        lle_X__Z17convert_char2_rtpDv2_s;
        lle_X__Z21convert_char2_sat_rtpDv2_s;
        lle_X__Z17convert_char2_rtnDv2_s;
        lle_X__Z21convert_char2_sat_rtnDv2_s;
        lle_X__Z13convert_char2Dv2_s;
        lle_X__Z17convert_char2_satDv2_s;
        lle_X__Z17convert_char2_rteDv2_t;
        lle_X__Z21convert_char2_sat_rteDv2_t;
        lle_X__Z17convert_char2_rtzDv2_t;
        lle_X__Z21convert_char2_sat_rtzDv2_t;
        lle_X__Z17convert_char2_rtpDv2_t;
        lle_X__Z21convert_char2_sat_rtpDv2_t;
        lle_X__Z17convert_char2_rtnDv2_t;
        lle_X__Z21convert_char2_sat_rtnDv2_t;
        lle_X__Z13convert_char2Dv2_t;
        lle_X__Z17convert_char2_satDv2_t;
        lle_X__Z17convert_char2_rteDv2_i;
        lle_X__Z21convert_char2_sat_rteDv2_i;
        lle_X__Z17convert_char2_rtzDv2_i;
        lle_X__Z21convert_char2_sat_rtzDv2_i;
        lle_X__Z17convert_char2_rtpDv2_i;
        lle_X__Z21convert_char2_sat_rtpDv2_i;
        lle_X__Z17convert_char2_rtnDv2_i;
        lle_X__Z21convert_char2_sat_rtnDv2_i;
        lle_X__Z13convert_char2Dv2_i;
        lle_X__Z17convert_char2_satDv2_i;
        lle_X__Z17convert_char2_rteDv2_j;
        lle_X__Z21convert_char2_sat_rteDv2_j;
        lle_X__Z17convert_char2_rtzDv2_j;
        lle_X__Z21convert_char2_sat_rtzDv2_j;
        lle_X__Z17convert_char2_rtpDv2_j;
        lle_X__Z21convert_char2_sat_rtpDv2_j;
        lle_X__Z17convert_char2_rtnDv2_j;
        lle_X__Z21convert_char2_sat_rtnDv2_j;
        lle_X__Z13convert_char2Dv2_j;
        lle_X__Z17convert_char2_satDv2_j;
        lle_X__Z17convert_char2_rteDv2_l;
        lle_X__Z21convert_char2_sat_rteDv2_l;
        lle_X__Z17convert_char2_rtzDv2_l;
        lle_X__Z21convert_char2_sat_rtzDv2_l;
        lle_X__Z17convert_char2_rtpDv2_l;
        lle_X__Z21convert_char2_sat_rtpDv2_l;
        lle_X__Z17convert_char2_rtnDv2_l;
        lle_X__Z21convert_char2_sat_rtnDv2_l;
        lle_X__Z13convert_char2Dv2_l;
        lle_X__Z17convert_char2_satDv2_l;
        lle_X__Z17convert_char2_rteDv2_m;
        lle_X__Z21convert_char2_sat_rteDv2_m;
        lle_X__Z17convert_char2_rtzDv2_m;
        lle_X__Z21convert_char2_sat_rtzDv2_m;
        lle_X__Z17convert_char2_rtpDv2_m;
        lle_X__Z21convert_char2_sat_rtpDv2_m;
        lle_X__Z17convert_char2_rtnDv2_m;
        lle_X__Z21convert_char2_sat_rtnDv2_m;
        lle_X__Z13convert_char2Dv2_m;
        lle_X__Z17convert_char2_satDv2_m;
        lle_X__Z17convert_char2_rteDv2_f;
        lle_X__Z21convert_char2_sat_rteDv2_f;
        lle_X__Z17convert_char2_rtzDv2_f;
        lle_X__Z21convert_char2_sat_rtzDv2_f;
        lle_X__Z17convert_char2_rtpDv2_f;
        lle_X__Z21convert_char2_sat_rtpDv2_f;
        lle_X__Z17convert_char2_rtnDv2_f;
        lle_X__Z21convert_char2_sat_rtnDv2_f;
        lle_X__Z13convert_char2Dv2_f;
        lle_X__Z17convert_char2_satDv2_f;
        lle_X__Z17convert_char2_rteDv2_d;
        lle_X__Z21convert_char2_sat_rteDv2_d;
        lle_X__Z17convert_char2_rtzDv2_d;
        lle_X__Z21convert_char2_sat_rtzDv2_d;
        lle_X__Z17convert_char2_rtpDv2_d;
        lle_X__Z21convert_char2_sat_rtpDv2_d;
        lle_X__Z17convert_char2_rtnDv2_d;
        lle_X__Z21convert_char2_sat_rtnDv2_d;
        lle_X__Z13convert_char2Dv2_d;
        lle_X__Z17convert_char2_satDv2_d;
        lle_X__Z18convert_uchar2_rteDv2_c;
        lle_X__Z22convert_uchar2_sat_rteDv2_c;
        lle_X__Z18convert_uchar2_rtzDv2_c;
        lle_X__Z22convert_uchar2_sat_rtzDv2_c;
        lle_X__Z18convert_uchar2_rtpDv2_c;
        lle_X__Z22convert_uchar2_sat_rtpDv2_c;
        lle_X__Z18convert_uchar2_rtnDv2_c;
        lle_X__Z22convert_uchar2_sat_rtnDv2_c;
        lle_X__Z14convert_uchar2Dv2_c;
        lle_X__Z18convert_uchar2_satDv2_c;
        lle_X__Z18convert_uchar2_rteDv2_h;
        lle_X__Z22convert_uchar2_sat_rteDv2_h;
        lle_X__Z18convert_uchar2_rtzDv2_h;
        lle_X__Z22convert_uchar2_sat_rtzDv2_h;
        lle_X__Z18convert_uchar2_rtpDv2_h;
        lle_X__Z22convert_uchar2_sat_rtpDv2_h;
        lle_X__Z18convert_uchar2_rtnDv2_h;
        lle_X__Z22convert_uchar2_sat_rtnDv2_h;
        lle_X__Z14convert_uchar2Dv2_h;
        lle_X__Z18convert_uchar2_satDv2_h;
        lle_X__Z18convert_uchar2_rteDv2_s;
        lle_X__Z22convert_uchar2_sat_rteDv2_s;
        lle_X__Z18convert_uchar2_rtzDv2_s;
        lle_X__Z22convert_uchar2_sat_rtzDv2_s;
        lle_X__Z18convert_uchar2_rtpDv2_s;
        lle_X__Z22convert_uchar2_sat_rtpDv2_s;
        lle_X__Z18convert_uchar2_rtnDv2_s;
        lle_X__Z22convert_uchar2_sat_rtnDv2_s;
        lle_X__Z14convert_uchar2Dv2_s;
        lle_X__Z18convert_uchar2_satDv2_s;
        lle_X__Z18convert_uchar2_rteDv2_t;
        lle_X__Z22convert_uchar2_sat_rteDv2_t;
        lle_X__Z18convert_uchar2_rtzDv2_t;
        lle_X__Z22convert_uchar2_sat_rtzDv2_t;
        lle_X__Z18convert_uchar2_rtpDv2_t;
        lle_X__Z22convert_uchar2_sat_rtpDv2_t;
        lle_X__Z18convert_uchar2_rtnDv2_t;
        lle_X__Z22convert_uchar2_sat_rtnDv2_t;
        lle_X__Z14convert_uchar2Dv2_t;
        lle_X__Z18convert_uchar2_satDv2_t;
        lle_X__Z18convert_uchar2_rteDv2_i;
        lle_X__Z22convert_uchar2_sat_rteDv2_i;
        lle_X__Z18convert_uchar2_rtzDv2_i;
        lle_X__Z22convert_uchar2_sat_rtzDv2_i;
        lle_X__Z18convert_uchar2_rtpDv2_i;
        lle_X__Z22convert_uchar2_sat_rtpDv2_i;
        lle_X__Z18convert_uchar2_rtnDv2_i;
        lle_X__Z22convert_uchar2_sat_rtnDv2_i;
        lle_X__Z14convert_uchar2Dv2_i;
        lle_X__Z18convert_uchar2_satDv2_i;
        lle_X__Z18convert_uchar2_rteDv2_j;
        lle_X__Z22convert_uchar2_sat_rteDv2_j;
        lle_X__Z18convert_uchar2_rtzDv2_j;
        lle_X__Z22convert_uchar2_sat_rtzDv2_j;
        lle_X__Z18convert_uchar2_rtpDv2_j;
        lle_X__Z22convert_uchar2_sat_rtpDv2_j;
        lle_X__Z18convert_uchar2_rtnDv2_j;
        lle_X__Z22convert_uchar2_sat_rtnDv2_j;
        lle_X__Z14convert_uchar2Dv2_j;
        lle_X__Z18convert_uchar2_satDv2_j;
        lle_X__Z18convert_uchar2_rteDv2_l;
        lle_X__Z22convert_uchar2_sat_rteDv2_l;
        lle_X__Z18convert_uchar2_rtzDv2_l;
        lle_X__Z22convert_uchar2_sat_rtzDv2_l;
        lle_X__Z18convert_uchar2_rtpDv2_l;
        lle_X__Z22convert_uchar2_sat_rtpDv2_l;
        lle_X__Z18convert_uchar2_rtnDv2_l;
        lle_X__Z22convert_uchar2_sat_rtnDv2_l;
        lle_X__Z14convert_uchar2Dv2_l;
        lle_X__Z18convert_uchar2_satDv2_l;
        lle_X__Z18convert_uchar2_rteDv2_m;
        lle_X__Z22convert_uchar2_sat_rteDv2_m;
        lle_X__Z18convert_uchar2_rtzDv2_m;
        lle_X__Z22convert_uchar2_sat_rtzDv2_m;
        lle_X__Z18convert_uchar2_rtpDv2_m;
        lle_X__Z22convert_uchar2_sat_rtpDv2_m;
        lle_X__Z18convert_uchar2_rtnDv2_m;
        lle_X__Z22convert_uchar2_sat_rtnDv2_m;
        lle_X__Z14convert_uchar2Dv2_m;
        lle_X__Z18convert_uchar2_satDv2_m;
        lle_X__Z18convert_uchar2_rteDv2_f;
        lle_X__Z22convert_uchar2_sat_rteDv2_f;
        lle_X__Z18convert_uchar2_rtzDv2_f;
        lle_X__Z22convert_uchar2_sat_rtzDv2_f;
        lle_X__Z18convert_uchar2_rtpDv2_f;
        lle_X__Z22convert_uchar2_sat_rtpDv2_f;
        lle_X__Z18convert_uchar2_rtnDv2_f;
        lle_X__Z22convert_uchar2_sat_rtnDv2_f;
        lle_X__Z14convert_uchar2Dv2_f;
        lle_X__Z18convert_uchar2_satDv2_f;
        lle_X__Z18convert_uchar2_rteDv2_d;
        lle_X__Z22convert_uchar2_sat_rteDv2_d;
        lle_X__Z18convert_uchar2_rtzDv2_d;
        lle_X__Z22convert_uchar2_sat_rtzDv2_d;
        lle_X__Z18convert_uchar2_rtpDv2_d;
        lle_X__Z22convert_uchar2_sat_rtpDv2_d;
        lle_X__Z18convert_uchar2_rtnDv2_d;
        lle_X__Z22convert_uchar2_sat_rtnDv2_d;
        lle_X__Z14convert_uchar2Dv2_d;
        lle_X__Z18convert_uchar2_satDv2_d;
        lle_X__Z18convert_short2_rteDv2_c;
        lle_X__Z22convert_short2_sat_rteDv2_c;
        lle_X__Z18convert_short2_rtzDv2_c;
        lle_X__Z22convert_short2_sat_rtzDv2_c;
        lle_X__Z18convert_short2_rtpDv2_c;
        lle_X__Z22convert_short2_sat_rtpDv2_c;
        lle_X__Z18convert_short2_rtnDv2_c;
        lle_X__Z22convert_short2_sat_rtnDv2_c;
        lle_X__Z14convert_short2Dv2_c;
        lle_X__Z18convert_short2_satDv2_c;
        lle_X__Z18convert_short2_rteDv2_h;
        lle_X__Z22convert_short2_sat_rteDv2_h;
        lle_X__Z18convert_short2_rtzDv2_h;
        lle_X__Z22convert_short2_sat_rtzDv2_h;
        lle_X__Z18convert_short2_rtpDv2_h;
        lle_X__Z22convert_short2_sat_rtpDv2_h;
        lle_X__Z18convert_short2_rtnDv2_h;
        lle_X__Z22convert_short2_sat_rtnDv2_h;
        lle_X__Z14convert_short2Dv2_h;
        lle_X__Z18convert_short2_satDv2_h;
        lle_X__Z18convert_short2_rteDv2_s;
        lle_X__Z22convert_short2_sat_rteDv2_s;
        lle_X__Z18convert_short2_rtzDv2_s;
        lle_X__Z22convert_short2_sat_rtzDv2_s;
        lle_X__Z18convert_short2_rtpDv2_s;
        lle_X__Z22convert_short2_sat_rtpDv2_s;
        lle_X__Z18convert_short2_rtnDv2_s;
        lle_X__Z22convert_short2_sat_rtnDv2_s;
        lle_X__Z14convert_short2Dv2_s;
        lle_X__Z18convert_short2_satDv2_s;
        lle_X__Z18convert_short2_rteDv2_t;
        lle_X__Z22convert_short2_sat_rteDv2_t;
        lle_X__Z18convert_short2_rtzDv2_t;
        lle_X__Z22convert_short2_sat_rtzDv2_t;
        lle_X__Z18convert_short2_rtpDv2_t;
        lle_X__Z22convert_short2_sat_rtpDv2_t;
        lle_X__Z18convert_short2_rtnDv2_t;
        lle_X__Z22convert_short2_sat_rtnDv2_t;
        lle_X__Z14convert_short2Dv2_t;
        lle_X__Z18convert_short2_satDv2_t;
        lle_X__Z18convert_short2_rteDv2_i;
        lle_X__Z22convert_short2_sat_rteDv2_i;
        lle_X__Z18convert_short2_rtzDv2_i;
        lle_X__Z22convert_short2_sat_rtzDv2_i;
        lle_X__Z18convert_short2_rtpDv2_i;
        lle_X__Z22convert_short2_sat_rtpDv2_i;
        lle_X__Z18convert_short2_rtnDv2_i;
        lle_X__Z22convert_short2_sat_rtnDv2_i;
        lle_X__Z14convert_short2Dv2_i;
        lle_X__Z18convert_short2_satDv2_i;
        lle_X__Z18convert_short2_rteDv2_j;
        lle_X__Z22convert_short2_sat_rteDv2_j;
        lle_X__Z18convert_short2_rtzDv2_j;
        lle_X__Z22convert_short2_sat_rtzDv2_j;
        lle_X__Z18convert_short2_rtpDv2_j;
        lle_X__Z22convert_short2_sat_rtpDv2_j;
        lle_X__Z18convert_short2_rtnDv2_j;
        lle_X__Z22convert_short2_sat_rtnDv2_j;
        lle_X__Z14convert_short2Dv2_j;
        lle_X__Z18convert_short2_satDv2_j;
        lle_X__Z18convert_short2_rteDv2_l;
        lle_X__Z22convert_short2_sat_rteDv2_l;
        lle_X__Z18convert_short2_rtzDv2_l;
        lle_X__Z22convert_short2_sat_rtzDv2_l;
        lle_X__Z18convert_short2_rtpDv2_l;
        lle_X__Z22convert_short2_sat_rtpDv2_l;
        lle_X__Z18convert_short2_rtnDv2_l;
        lle_X__Z22convert_short2_sat_rtnDv2_l;
        lle_X__Z14convert_short2Dv2_l;
        lle_X__Z18convert_short2_satDv2_l;
        lle_X__Z18convert_short2_rteDv2_m;
        lle_X__Z22convert_short2_sat_rteDv2_m;
        lle_X__Z18convert_short2_rtzDv2_m;
        lle_X__Z22convert_short2_sat_rtzDv2_m;
        lle_X__Z18convert_short2_rtpDv2_m;
        lle_X__Z22convert_short2_sat_rtpDv2_m;
        lle_X__Z18convert_short2_rtnDv2_m;
        lle_X__Z22convert_short2_sat_rtnDv2_m;
        lle_X__Z14convert_short2Dv2_m;
        lle_X__Z18convert_short2_satDv2_m;
        lle_X__Z18convert_short2_rteDv2_f;
        lle_X__Z22convert_short2_sat_rteDv2_f;
        lle_X__Z18convert_short2_rtzDv2_f;
        lle_X__Z22convert_short2_sat_rtzDv2_f;
        lle_X__Z18convert_short2_rtpDv2_f;
        lle_X__Z22convert_short2_sat_rtpDv2_f;
        lle_X__Z18convert_short2_rtnDv2_f;
        lle_X__Z22convert_short2_sat_rtnDv2_f;
        lle_X__Z14convert_short2Dv2_f;
        lle_X__Z18convert_short2_satDv2_f;
        lle_X__Z18convert_short2_rteDv2_d;
        lle_X__Z22convert_short2_sat_rteDv2_d;
        lle_X__Z18convert_short2_rtzDv2_d;
        lle_X__Z22convert_short2_sat_rtzDv2_d;
        lle_X__Z18convert_short2_rtpDv2_d;
        lle_X__Z22convert_short2_sat_rtpDv2_d;
        lle_X__Z18convert_short2_rtnDv2_d;
        lle_X__Z22convert_short2_sat_rtnDv2_d;
        lle_X__Z14convert_short2Dv2_d;
        lle_X__Z18convert_short2_satDv2_d;
        lle_X__Z19convert_ushort2_rteDv2_c;
        lle_X__Z23convert_ushort2_sat_rteDv2_c;
        lle_X__Z19convert_ushort2_rtzDv2_c;
        lle_X__Z23convert_ushort2_sat_rtzDv2_c;
        lle_X__Z19convert_ushort2_rtpDv2_c;
        lle_X__Z23convert_ushort2_sat_rtpDv2_c;
        lle_X__Z19convert_ushort2_rtnDv2_c;
        lle_X__Z23convert_ushort2_sat_rtnDv2_c;
        lle_X__Z15convert_ushort2Dv2_c;
        lle_X__Z19convert_ushort2_satDv2_c;
        lle_X__Z19convert_ushort2_rteDv2_h;
        lle_X__Z23convert_ushort2_sat_rteDv2_h;
        lle_X__Z19convert_ushort2_rtzDv2_h;
        lle_X__Z23convert_ushort2_sat_rtzDv2_h;
        lle_X__Z19convert_ushort2_rtpDv2_h;
        lle_X__Z23convert_ushort2_sat_rtpDv2_h;
        lle_X__Z19convert_ushort2_rtnDv2_h;
        lle_X__Z23convert_ushort2_sat_rtnDv2_h;
        lle_X__Z15convert_ushort2Dv2_h;
        lle_X__Z19convert_ushort2_satDv2_h;
        lle_X__Z19convert_ushort2_rteDv2_s;
        lle_X__Z23convert_ushort2_sat_rteDv2_s;
        lle_X__Z19convert_ushort2_rtzDv2_s;
        lle_X__Z23convert_ushort2_sat_rtzDv2_s;
        lle_X__Z19convert_ushort2_rtpDv2_s;
        lle_X__Z23convert_ushort2_sat_rtpDv2_s;
        lle_X__Z19convert_ushort2_rtnDv2_s;
        lle_X__Z23convert_ushort2_sat_rtnDv2_s;
        lle_X__Z15convert_ushort2Dv2_s;
        lle_X__Z19convert_ushort2_satDv2_s;
        lle_X__Z19convert_ushort2_rteDv2_t;
        lle_X__Z23convert_ushort2_sat_rteDv2_t;
        lle_X__Z19convert_ushort2_rtzDv2_t;
        lle_X__Z23convert_ushort2_sat_rtzDv2_t;
        lle_X__Z19convert_ushort2_rtpDv2_t;
        lle_X__Z23convert_ushort2_sat_rtpDv2_t;
        lle_X__Z19convert_ushort2_rtnDv2_t;
        lle_X__Z23convert_ushort2_sat_rtnDv2_t;
        lle_X__Z15convert_ushort2Dv2_t;
        lle_X__Z19convert_ushort2_satDv2_t;
        lle_X__Z19convert_ushort2_rteDv2_i;
        lle_X__Z23convert_ushort2_sat_rteDv2_i;
        lle_X__Z19convert_ushort2_rtzDv2_i;
        lle_X__Z23convert_ushort2_sat_rtzDv2_i;
        lle_X__Z19convert_ushort2_rtpDv2_i;
        lle_X__Z23convert_ushort2_sat_rtpDv2_i;
        lle_X__Z19convert_ushort2_rtnDv2_i;
        lle_X__Z23convert_ushort2_sat_rtnDv2_i;
        lle_X__Z15convert_ushort2Dv2_i;
        lle_X__Z19convert_ushort2_satDv2_i;
        lle_X__Z19convert_ushort2_rteDv2_j;
        lle_X__Z23convert_ushort2_sat_rteDv2_j;
        lle_X__Z19convert_ushort2_rtzDv2_j;
        lle_X__Z23convert_ushort2_sat_rtzDv2_j;
        lle_X__Z19convert_ushort2_rtpDv2_j;
        lle_X__Z23convert_ushort2_sat_rtpDv2_j;
        lle_X__Z19convert_ushort2_rtnDv2_j;
        lle_X__Z23convert_ushort2_sat_rtnDv2_j;
        lle_X__Z15convert_ushort2Dv2_j;
        lle_X__Z19convert_ushort2_satDv2_j;
        lle_X__Z19convert_ushort2_rteDv2_l;
        lle_X__Z23convert_ushort2_sat_rteDv2_l;
        lle_X__Z19convert_ushort2_rtzDv2_l;
        lle_X__Z23convert_ushort2_sat_rtzDv2_l;
        lle_X__Z19convert_ushort2_rtpDv2_l;
        lle_X__Z23convert_ushort2_sat_rtpDv2_l;
        lle_X__Z19convert_ushort2_rtnDv2_l;
        lle_X__Z23convert_ushort2_sat_rtnDv2_l;
        lle_X__Z15convert_ushort2Dv2_l;
        lle_X__Z19convert_ushort2_satDv2_l;
        lle_X__Z19convert_ushort2_rteDv2_m;
        lle_X__Z23convert_ushort2_sat_rteDv2_m;
        lle_X__Z19convert_ushort2_rtzDv2_m;
        lle_X__Z23convert_ushort2_sat_rtzDv2_m;
        lle_X__Z19convert_ushort2_rtpDv2_m;
        lle_X__Z23convert_ushort2_sat_rtpDv2_m;
        lle_X__Z19convert_ushort2_rtnDv2_m;
        lle_X__Z23convert_ushort2_sat_rtnDv2_m;
        lle_X__Z15convert_ushort2Dv2_m;
        lle_X__Z19convert_ushort2_satDv2_m;
        lle_X__Z19convert_ushort2_rteDv2_f;
        lle_X__Z23convert_ushort2_sat_rteDv2_f;
        lle_X__Z19convert_ushort2_rtzDv2_f;
        lle_X__Z23convert_ushort2_sat_rtzDv2_f;
        lle_X__Z19convert_ushort2_rtpDv2_f;
        lle_X__Z23convert_ushort2_sat_rtpDv2_f;
        lle_X__Z19convert_ushort2_rtnDv2_f;
        lle_X__Z23convert_ushort2_sat_rtnDv2_f;
        lle_X__Z15convert_ushort2Dv2_f;
        lle_X__Z19convert_ushort2_satDv2_f;
        lle_X__Z19convert_ushort2_rteDv2_d;
        lle_X__Z23convert_ushort2_sat_rteDv2_d;
        lle_X__Z19convert_ushort2_rtzDv2_d;
        lle_X__Z23convert_ushort2_sat_rtzDv2_d;
        lle_X__Z19convert_ushort2_rtpDv2_d;
        lle_X__Z23convert_ushort2_sat_rtpDv2_d;
        lle_X__Z19convert_ushort2_rtnDv2_d;
        lle_X__Z23convert_ushort2_sat_rtnDv2_d;
        lle_X__Z15convert_ushort2Dv2_d;
        lle_X__Z19convert_ushort2_satDv2_d;
        lle_X__Z16convert_int2_rteDv2_c;
        lle_X__Z20convert_int2_sat_rteDv2_c;
        lle_X__Z16convert_int2_rtzDv2_c;
        lle_X__Z20convert_int2_sat_rtzDv2_c;
        lle_X__Z16convert_int2_rtpDv2_c;
        lle_X__Z20convert_int2_sat_rtpDv2_c;
        lle_X__Z16convert_int2_rtnDv2_c;
        lle_X__Z20convert_int2_sat_rtnDv2_c;
        lle_X__Z12convert_int2Dv2_c;
        lle_X__Z16convert_int2_satDv2_c;
        lle_X__Z16convert_int2_rteDv2_h;
        lle_X__Z20convert_int2_sat_rteDv2_h;
        lle_X__Z16convert_int2_rtzDv2_h;
        lle_X__Z20convert_int2_sat_rtzDv2_h;
        lle_X__Z16convert_int2_rtpDv2_h;
        lle_X__Z20convert_int2_sat_rtpDv2_h;
        lle_X__Z16convert_int2_rtnDv2_h;
        lle_X__Z20convert_int2_sat_rtnDv2_h;
        lle_X__Z12convert_int2Dv2_h;
        lle_X__Z16convert_int2_satDv2_h;
        lle_X__Z16convert_int2_rteDv2_s;
        lle_X__Z20convert_int2_sat_rteDv2_s;
        lle_X__Z16convert_int2_rtzDv2_s;
        lle_X__Z20convert_int2_sat_rtzDv2_s;
        lle_X__Z16convert_int2_rtpDv2_s;
        lle_X__Z20convert_int2_sat_rtpDv2_s;
        lle_X__Z16convert_int2_rtnDv2_s;
        lle_X__Z20convert_int2_sat_rtnDv2_s;
        lle_X__Z12convert_int2Dv2_s;
        lle_X__Z16convert_int2_satDv2_s;
        lle_X__Z16convert_int2_rteDv2_t;
        lle_X__Z20convert_int2_sat_rteDv2_t;
        lle_X__Z16convert_int2_rtzDv2_t;
        lle_X__Z20convert_int2_sat_rtzDv2_t;
        lle_X__Z16convert_int2_rtpDv2_t;
        lle_X__Z20convert_int2_sat_rtpDv2_t;
        lle_X__Z16convert_int2_rtnDv2_t;
        lle_X__Z20convert_int2_sat_rtnDv2_t;
        lle_X__Z12convert_int2Dv2_t;
        lle_X__Z16convert_int2_satDv2_t;
        lle_X__Z16convert_int2_rteDv2_i;
        lle_X__Z20convert_int2_sat_rteDv2_i;
        lle_X__Z16convert_int2_rtzDv2_i;
        lle_X__Z20convert_int2_sat_rtzDv2_i;
        lle_X__Z16convert_int2_rtpDv2_i;
        lle_X__Z20convert_int2_sat_rtpDv2_i;
        lle_X__Z16convert_int2_rtnDv2_i;
        lle_X__Z20convert_int2_sat_rtnDv2_i;
        lle_X__Z12convert_int2Dv2_i;
        lle_X__Z16convert_int2_satDv2_i;
        lle_X__Z16convert_int2_rteDv2_j;
        lle_X__Z20convert_int2_sat_rteDv2_j;
        lle_X__Z16convert_int2_rtzDv2_j;
        lle_X__Z20convert_int2_sat_rtzDv2_j;
        lle_X__Z16convert_int2_rtpDv2_j;
        lle_X__Z20convert_int2_sat_rtpDv2_j;
        lle_X__Z16convert_int2_rtnDv2_j;
        lle_X__Z20convert_int2_sat_rtnDv2_j;
        lle_X__Z12convert_int2Dv2_j;
        lle_X__Z16convert_int2_satDv2_j;
        lle_X__Z16convert_int2_rteDv2_l;
        lle_X__Z20convert_int2_sat_rteDv2_l;
        lle_X__Z16convert_int2_rtzDv2_l;
        lle_X__Z20convert_int2_sat_rtzDv2_l;
        lle_X__Z16convert_int2_rtpDv2_l;
        lle_X__Z20convert_int2_sat_rtpDv2_l;
        lle_X__Z16convert_int2_rtnDv2_l;
        lle_X__Z20convert_int2_sat_rtnDv2_l;
        lle_X__Z12convert_int2Dv2_l;
        lle_X__Z16convert_int2_satDv2_l;
        lle_X__Z16convert_int2_rteDv2_m;
        lle_X__Z20convert_int2_sat_rteDv2_m;
        lle_X__Z16convert_int2_rtzDv2_m;
        lle_X__Z20convert_int2_sat_rtzDv2_m;
        lle_X__Z16convert_int2_rtpDv2_m;
        lle_X__Z20convert_int2_sat_rtpDv2_m;
        lle_X__Z16convert_int2_rtnDv2_m;
        lle_X__Z20convert_int2_sat_rtnDv2_m;
        lle_X__Z12convert_int2Dv2_m;
        lle_X__Z16convert_int2_satDv2_m;
        lle_X__Z16convert_int2_rteDv2_f;
        lle_X__Z20convert_int2_sat_rteDv2_f;
        lle_X__Z16convert_int2_rtzDv2_f;
        lle_X__Z20convert_int2_sat_rtzDv2_f;
        lle_X__Z16convert_int2_rtpDv2_f;
        lle_X__Z20convert_int2_sat_rtpDv2_f;
        lle_X__Z16convert_int2_rtnDv2_f;
        lle_X__Z20convert_int2_sat_rtnDv2_f;
        lle_X__Z12convert_int2Dv2_f;
        lle_X__Z16convert_int2_satDv2_f;
        lle_X__Z16convert_int2_rteDv2_d;
        lle_X__Z20convert_int2_sat_rteDv2_d;
        lle_X__Z16convert_int2_rtzDv2_d;
        lle_X__Z20convert_int2_sat_rtzDv2_d;
        lle_X__Z16convert_int2_rtpDv2_d;
        lle_X__Z20convert_int2_sat_rtpDv2_d;
        lle_X__Z16convert_int2_rtnDv2_d;
        lle_X__Z20convert_int2_sat_rtnDv2_d;
        lle_X__Z12convert_int2Dv2_d;
        lle_X__Z16convert_int2_satDv2_d;
        lle_X__Z17convert_uint2_rteDv2_c;
        lle_X__Z21convert_uint2_sat_rteDv2_c;
        lle_X__Z17convert_uint2_rtzDv2_c;
        lle_X__Z21convert_uint2_sat_rtzDv2_c;
        lle_X__Z17convert_uint2_rtpDv2_c;
        lle_X__Z21convert_uint2_sat_rtpDv2_c;
        lle_X__Z17convert_uint2_rtnDv2_c;
        lle_X__Z21convert_uint2_sat_rtnDv2_c;
        lle_X__Z13convert_uint2Dv2_c;
        lle_X__Z17convert_uint2_satDv2_c;
        lle_X__Z17convert_uint2_rteDv2_h;
        lle_X__Z21convert_uint2_sat_rteDv2_h;
        lle_X__Z17convert_uint2_rtzDv2_h;
        lle_X__Z21convert_uint2_sat_rtzDv2_h;
        lle_X__Z17convert_uint2_rtpDv2_h;
        lle_X__Z21convert_uint2_sat_rtpDv2_h;
        lle_X__Z17convert_uint2_rtnDv2_h;
        lle_X__Z21convert_uint2_sat_rtnDv2_h;
        lle_X__Z13convert_uint2Dv2_h;
        lle_X__Z17convert_uint2_satDv2_h;
        lle_X__Z17convert_uint2_rteDv2_s;
        lle_X__Z21convert_uint2_sat_rteDv2_s;
        lle_X__Z17convert_uint2_rtzDv2_s;
        lle_X__Z21convert_uint2_sat_rtzDv2_s;
        lle_X__Z17convert_uint2_rtpDv2_s;
        lle_X__Z21convert_uint2_sat_rtpDv2_s;
        lle_X__Z17convert_uint2_rtnDv2_s;
        lle_X__Z21convert_uint2_sat_rtnDv2_s;
        lle_X__Z13convert_uint2Dv2_s;
        lle_X__Z17convert_uint2_satDv2_s;
        lle_X__Z17convert_uint2_rteDv2_t;
        lle_X__Z21convert_uint2_sat_rteDv2_t;
        lle_X__Z17convert_uint2_rtzDv2_t;
        lle_X__Z21convert_uint2_sat_rtzDv2_t;
        lle_X__Z17convert_uint2_rtpDv2_t;
        lle_X__Z21convert_uint2_sat_rtpDv2_t;
        lle_X__Z17convert_uint2_rtnDv2_t;
        lle_X__Z21convert_uint2_sat_rtnDv2_t;
        lle_X__Z13convert_uint2Dv2_t;
        lle_X__Z17convert_uint2_satDv2_t;
        lle_X__Z17convert_uint2_rteDv2_i;
        lle_X__Z21convert_uint2_sat_rteDv2_i;
        lle_X__Z17convert_uint2_rtzDv2_i;
        lle_X__Z21convert_uint2_sat_rtzDv2_i;
        lle_X__Z17convert_uint2_rtpDv2_i;
        lle_X__Z21convert_uint2_sat_rtpDv2_i;
        lle_X__Z17convert_uint2_rtnDv2_i;
        lle_X__Z21convert_uint2_sat_rtnDv2_i;
        lle_X__Z13convert_uint2Dv2_i;
        lle_X__Z17convert_uint2_satDv2_i;
        lle_X__Z17convert_uint2_rteDv2_j;
        lle_X__Z21convert_uint2_sat_rteDv2_j;
        lle_X__Z17convert_uint2_rtzDv2_j;
        lle_X__Z21convert_uint2_sat_rtzDv2_j;
        lle_X__Z17convert_uint2_rtpDv2_j;
        lle_X__Z21convert_uint2_sat_rtpDv2_j;
        lle_X__Z17convert_uint2_rtnDv2_j;
        lle_X__Z21convert_uint2_sat_rtnDv2_j;
        lle_X__Z13convert_uint2Dv2_j;
        lle_X__Z17convert_uint2_satDv2_j;
        lle_X__Z17convert_uint2_rteDv2_l;
        lle_X__Z21convert_uint2_sat_rteDv2_l;
        lle_X__Z17convert_uint2_rtzDv2_l;
        lle_X__Z21convert_uint2_sat_rtzDv2_l;
        lle_X__Z17convert_uint2_rtpDv2_l;
        lle_X__Z21convert_uint2_sat_rtpDv2_l;
        lle_X__Z17convert_uint2_rtnDv2_l;
        lle_X__Z21convert_uint2_sat_rtnDv2_l;
        lle_X__Z13convert_uint2Dv2_l;
        lle_X__Z17convert_uint2_satDv2_l;
        lle_X__Z17convert_uint2_rteDv2_m;
        lle_X__Z21convert_uint2_sat_rteDv2_m;
        lle_X__Z17convert_uint2_rtzDv2_m;
        lle_X__Z21convert_uint2_sat_rtzDv2_m;
        lle_X__Z17convert_uint2_rtpDv2_m;
        lle_X__Z21convert_uint2_sat_rtpDv2_m;
        lle_X__Z17convert_uint2_rtnDv2_m;
        lle_X__Z21convert_uint2_sat_rtnDv2_m;
        lle_X__Z13convert_uint2Dv2_m;
        lle_X__Z17convert_uint2_satDv2_m;
        lle_X__Z17convert_uint2_rteDv2_f;
        lle_X__Z21convert_uint2_sat_rteDv2_f;
        lle_X__Z17convert_uint2_rtzDv2_f;
        lle_X__Z21convert_uint2_sat_rtzDv2_f;
        lle_X__Z17convert_uint2_rtpDv2_f;
        lle_X__Z21convert_uint2_sat_rtpDv2_f;
        lle_X__Z17convert_uint2_rtnDv2_f;
        lle_X__Z21convert_uint2_sat_rtnDv2_f;
        lle_X__Z13convert_uint2Dv2_f;
        lle_X__Z17convert_uint2_satDv2_f;
        lle_X__Z17convert_uint2_rteDv2_d;
        lle_X__Z21convert_uint2_sat_rteDv2_d;
        lle_X__Z17convert_uint2_rtzDv2_d;
        lle_X__Z21convert_uint2_sat_rtzDv2_d;
        lle_X__Z17convert_uint2_rtpDv2_d;
        lle_X__Z21convert_uint2_sat_rtpDv2_d;
        lle_X__Z17convert_uint2_rtnDv2_d;
        lle_X__Z21convert_uint2_sat_rtnDv2_d;
        lle_X__Z13convert_uint2Dv2_d;
        lle_X__Z17convert_uint2_satDv2_d;
        lle_X__Z17convert_long2_rteDv2_c;
        lle_X__Z21convert_long2_sat_rteDv2_c;
        lle_X__Z17convert_long2_rtzDv2_c;
        lle_X__Z21convert_long2_sat_rtzDv2_c;
        lle_X__Z17convert_long2_rtpDv2_c;
        lle_X__Z21convert_long2_sat_rtpDv2_c;
        lle_X__Z17convert_long2_rtnDv2_c;
        lle_X__Z21convert_long2_sat_rtnDv2_c;
        lle_X__Z13convert_long2Dv2_c;
        lle_X__Z17convert_long2_satDv2_c;
        lle_X__Z17convert_long2_rteDv2_h;
        lle_X__Z21convert_long2_sat_rteDv2_h;
        lle_X__Z17convert_long2_rtzDv2_h;
        lle_X__Z21convert_long2_sat_rtzDv2_h;
        lle_X__Z17convert_long2_rtpDv2_h;
        lle_X__Z21convert_long2_sat_rtpDv2_h;
        lle_X__Z17convert_long2_rtnDv2_h;
        lle_X__Z21convert_long2_sat_rtnDv2_h;
        lle_X__Z13convert_long2Dv2_h;
        lle_X__Z17convert_long2_satDv2_h;
        lle_X__Z17convert_long2_rteDv2_s;
        lle_X__Z21convert_long2_sat_rteDv2_s;
        lle_X__Z17convert_long2_rtzDv2_s;
        lle_X__Z21convert_long2_sat_rtzDv2_s;
        lle_X__Z17convert_long2_rtpDv2_s;
        lle_X__Z21convert_long2_sat_rtpDv2_s;
        lle_X__Z17convert_long2_rtnDv2_s;
        lle_X__Z21convert_long2_sat_rtnDv2_s;
        lle_X__Z13convert_long2Dv2_s;
        lle_X__Z17convert_long2_satDv2_s;
        lle_X__Z17convert_long2_rteDv2_t;
        lle_X__Z21convert_long2_sat_rteDv2_t;
        lle_X__Z17convert_long2_rtzDv2_t;
        lle_X__Z21convert_long2_sat_rtzDv2_t;
        lle_X__Z17convert_long2_rtpDv2_t;
        lle_X__Z21convert_long2_sat_rtpDv2_t;
        lle_X__Z17convert_long2_rtnDv2_t;
        lle_X__Z21convert_long2_sat_rtnDv2_t;
        lle_X__Z13convert_long2Dv2_t;
        lle_X__Z17convert_long2_satDv2_t;
        lle_X__Z17convert_long2_rteDv2_i;
        lle_X__Z21convert_long2_sat_rteDv2_i;
        lle_X__Z17convert_long2_rtzDv2_i;
        lle_X__Z21convert_long2_sat_rtzDv2_i;
        lle_X__Z17convert_long2_rtpDv2_i;
        lle_X__Z21convert_long2_sat_rtpDv2_i;
        lle_X__Z17convert_long2_rtnDv2_i;
        lle_X__Z21convert_long2_sat_rtnDv2_i;
        lle_X__Z13convert_long2Dv2_i;
        lle_X__Z17convert_long2_satDv2_i;
        lle_X__Z17convert_long2_rteDv2_j;
        lle_X__Z21convert_long2_sat_rteDv2_j;
        lle_X__Z17convert_long2_rtzDv2_j;
        lle_X__Z21convert_long2_sat_rtzDv2_j;
        lle_X__Z17convert_long2_rtpDv2_j;
        lle_X__Z21convert_long2_sat_rtpDv2_j;
        lle_X__Z17convert_long2_rtnDv2_j;
        lle_X__Z21convert_long2_sat_rtnDv2_j;
        lle_X__Z13convert_long2Dv2_j;
        lle_X__Z17convert_long2_satDv2_j;
        lle_X__Z17convert_long2_rteDv2_l;
        lle_X__Z21convert_long2_sat_rteDv2_l;
        lle_X__Z17convert_long2_rtzDv2_l;
        lle_X__Z21convert_long2_sat_rtzDv2_l;
        lle_X__Z17convert_long2_rtpDv2_l;
        lle_X__Z21convert_long2_sat_rtpDv2_l;
        lle_X__Z17convert_long2_rtnDv2_l;
        lle_X__Z21convert_long2_sat_rtnDv2_l;
        lle_X__Z13convert_long2Dv2_l;
        lle_X__Z17convert_long2_satDv2_l;
        lle_X__Z17convert_long2_rteDv2_m;
        lle_X__Z21convert_long2_sat_rteDv2_m;
        lle_X__Z17convert_long2_rtzDv2_m;
        lle_X__Z21convert_long2_sat_rtzDv2_m;
        lle_X__Z17convert_long2_rtpDv2_m;
        lle_X__Z21convert_long2_sat_rtpDv2_m;
        lle_X__Z17convert_long2_rtnDv2_m;
        lle_X__Z21convert_long2_sat_rtnDv2_m;
        lle_X__Z13convert_long2Dv2_m;
        lle_X__Z17convert_long2_satDv2_m;
        lle_X__Z17convert_long2_rteDv2_f;
        lle_X__Z21convert_long2_sat_rteDv2_f;
        lle_X__Z17convert_long2_rtzDv2_f;
        lle_X__Z21convert_long2_sat_rtzDv2_f;
        lle_X__Z17convert_long2_rtpDv2_f;
        lle_X__Z21convert_long2_sat_rtpDv2_f;
        lle_X__Z17convert_long2_rtnDv2_f;
        lle_X__Z21convert_long2_sat_rtnDv2_f;
        lle_X__Z13convert_long2Dv2_f;
        lle_X__Z17convert_long2_satDv2_f;
        lle_X__Z17convert_long2_rteDv2_d;
        lle_X__Z21convert_long2_sat_rteDv2_d;
        lle_X__Z17convert_long2_rtzDv2_d;
        lle_X__Z21convert_long2_sat_rtzDv2_d;
        lle_X__Z17convert_long2_rtpDv2_d;
        lle_X__Z21convert_long2_sat_rtpDv2_d;
        lle_X__Z17convert_long2_rtnDv2_d;
        lle_X__Z21convert_long2_sat_rtnDv2_d;
        lle_X__Z13convert_long2Dv2_d;
        lle_X__Z17convert_long2_satDv2_d;
        lle_X__Z18convert_ulong2_rteDv2_c;
        lle_X__Z22convert_ulong2_sat_rteDv2_c;
        lle_X__Z18convert_ulong2_rtzDv2_c;
        lle_X__Z22convert_ulong2_sat_rtzDv2_c;
        lle_X__Z18convert_ulong2_rtpDv2_c;
        lle_X__Z22convert_ulong2_sat_rtpDv2_c;
        lle_X__Z18convert_ulong2_rtnDv2_c;
        lle_X__Z22convert_ulong2_sat_rtnDv2_c;
        lle_X__Z14convert_ulong2Dv2_c;
        lle_X__Z18convert_ulong2_satDv2_c;
        lle_X__Z18convert_ulong2_rteDv2_h;
        lle_X__Z22convert_ulong2_sat_rteDv2_h;
        lle_X__Z18convert_ulong2_rtzDv2_h;
        lle_X__Z22convert_ulong2_sat_rtzDv2_h;
        lle_X__Z18convert_ulong2_rtpDv2_h;
        lle_X__Z22convert_ulong2_sat_rtpDv2_h;
        lle_X__Z18convert_ulong2_rtnDv2_h;
        lle_X__Z22convert_ulong2_sat_rtnDv2_h;
        lle_X__Z14convert_ulong2Dv2_h;
        lle_X__Z18convert_ulong2_satDv2_h;
        lle_X__Z18convert_ulong2_rteDv2_s;
        lle_X__Z22convert_ulong2_sat_rteDv2_s;
        lle_X__Z18convert_ulong2_rtzDv2_s;
        lle_X__Z22convert_ulong2_sat_rtzDv2_s;
        lle_X__Z18convert_ulong2_rtpDv2_s;
        lle_X__Z22convert_ulong2_sat_rtpDv2_s;
        lle_X__Z18convert_ulong2_rtnDv2_s;
        lle_X__Z22convert_ulong2_sat_rtnDv2_s;
        lle_X__Z14convert_ulong2Dv2_s;
        lle_X__Z18convert_ulong2_satDv2_s;
        lle_X__Z18convert_ulong2_rteDv2_t;
        lle_X__Z22convert_ulong2_sat_rteDv2_t;
        lle_X__Z18convert_ulong2_rtzDv2_t;
        lle_X__Z22convert_ulong2_sat_rtzDv2_t;
        lle_X__Z18convert_ulong2_rtpDv2_t;
        lle_X__Z22convert_ulong2_sat_rtpDv2_t;
        lle_X__Z18convert_ulong2_rtnDv2_t;
        lle_X__Z22convert_ulong2_sat_rtnDv2_t;
        lle_X__Z14convert_ulong2Dv2_t;
        lle_X__Z18convert_ulong2_satDv2_t;
        lle_X__Z18convert_ulong2_rteDv2_i;
        lle_X__Z22convert_ulong2_sat_rteDv2_i;
        lle_X__Z18convert_ulong2_rtzDv2_i;
        lle_X__Z22convert_ulong2_sat_rtzDv2_i;
        lle_X__Z18convert_ulong2_rtpDv2_i;
        lle_X__Z22convert_ulong2_sat_rtpDv2_i;
        lle_X__Z18convert_ulong2_rtnDv2_i;
        lle_X__Z22convert_ulong2_sat_rtnDv2_i;
        lle_X__Z14convert_ulong2Dv2_i;
        lle_X__Z18convert_ulong2_satDv2_i;
        lle_X__Z18convert_ulong2_rteDv2_j;
        lle_X__Z22convert_ulong2_sat_rteDv2_j;
        lle_X__Z18convert_ulong2_rtzDv2_j;
        lle_X__Z22convert_ulong2_sat_rtzDv2_j;
        lle_X__Z18convert_ulong2_rtpDv2_j;
        lle_X__Z22convert_ulong2_sat_rtpDv2_j;
        lle_X__Z18convert_ulong2_rtnDv2_j;
        lle_X__Z22convert_ulong2_sat_rtnDv2_j;
        lle_X__Z14convert_ulong2Dv2_j;
        lle_X__Z18convert_ulong2_satDv2_j;
        lle_X__Z18convert_ulong2_rteDv2_l;
        lle_X__Z22convert_ulong2_sat_rteDv2_l;
        lle_X__Z18convert_ulong2_rtzDv2_l;
        lle_X__Z22convert_ulong2_sat_rtzDv2_l;
        lle_X__Z18convert_ulong2_rtpDv2_l;
        lle_X__Z22convert_ulong2_sat_rtpDv2_l;
        lle_X__Z18convert_ulong2_rtnDv2_l;
        lle_X__Z22convert_ulong2_sat_rtnDv2_l;
        lle_X__Z14convert_ulong2Dv2_l;
        lle_X__Z18convert_ulong2_satDv2_l;
        lle_X__Z18convert_ulong2_rteDv2_m;
        lle_X__Z22convert_ulong2_sat_rteDv2_m;
        lle_X__Z18convert_ulong2_rtzDv2_m;
        lle_X__Z22convert_ulong2_sat_rtzDv2_m;
        lle_X__Z18convert_ulong2_rtpDv2_m;
        lle_X__Z22convert_ulong2_sat_rtpDv2_m;
        lle_X__Z18convert_ulong2_rtnDv2_m;
        lle_X__Z22convert_ulong2_sat_rtnDv2_m;
        lle_X__Z14convert_ulong2Dv2_m;
        lle_X__Z18convert_ulong2_satDv2_m;
        lle_X__Z18convert_ulong2_rteDv2_f;
        lle_X__Z22convert_ulong2_sat_rteDv2_f;
        lle_X__Z18convert_ulong2_rtzDv2_f;
        lle_X__Z22convert_ulong2_sat_rtzDv2_f;
        lle_X__Z18convert_ulong2_rtpDv2_f;
        lle_X__Z22convert_ulong2_sat_rtpDv2_f;
        lle_X__Z18convert_ulong2_rtnDv2_f;
        lle_X__Z22convert_ulong2_sat_rtnDv2_f;
        lle_X__Z14convert_ulong2Dv2_f;
        lle_X__Z18convert_ulong2_satDv2_f;
        lle_X__Z18convert_ulong2_rteDv2_d;
        lle_X__Z22convert_ulong2_sat_rteDv2_d;
        lle_X__Z18convert_ulong2_rtzDv2_d;
        lle_X__Z22convert_ulong2_sat_rtzDv2_d;
        lle_X__Z18convert_ulong2_rtpDv2_d;
        lle_X__Z22convert_ulong2_sat_rtpDv2_d;
        lle_X__Z18convert_ulong2_rtnDv2_d;
        lle_X__Z22convert_ulong2_sat_rtnDv2_d;
        lle_X__Z14convert_ulong2Dv2_d;
        lle_X__Z18convert_ulong2_satDv2_d;
        lle_X__Z19convert_double2_rteDv2_c;
        lle_X__Z23convert_double2_sat_rteDv2_c;
        lle_X__Z19convert_double2_rtzDv2_c;
        lle_X__Z23convert_double2_sat_rtzDv2_c;
        lle_X__Z19convert_double2_rtpDv2_c;
        lle_X__Z23convert_double2_sat_rtpDv2_c;
        lle_X__Z19convert_double2_rtnDv2_c;
        lle_X__Z23convert_double2_sat_rtnDv2_c;
        lle_X__Z15convert_double2Dv2_c;
        lle_X__Z19convert_double2_satDv2_c;
        lle_X__Z19convert_double2_rteDv2_h;
        lle_X__Z23convert_double2_sat_rteDv2_h;
        lle_X__Z19convert_double2_rtzDv2_h;
        lle_X__Z23convert_double2_sat_rtzDv2_h;
        lle_X__Z19convert_double2_rtpDv2_h;
        lle_X__Z23convert_double2_sat_rtpDv2_h;
        lle_X__Z19convert_double2_rtnDv2_h;
        lle_X__Z23convert_double2_sat_rtnDv2_h;
        lle_X__Z15convert_double2Dv2_h;
        lle_X__Z19convert_double2_satDv2_h;
        lle_X__Z19convert_double2_rteDv2_s;
        lle_X__Z23convert_double2_sat_rteDv2_s;
        lle_X__Z19convert_double2_rtzDv2_s;
        lle_X__Z23convert_double2_sat_rtzDv2_s;
        lle_X__Z19convert_double2_rtpDv2_s;
        lle_X__Z23convert_double2_sat_rtpDv2_s;
        lle_X__Z19convert_double2_rtnDv2_s;
        lle_X__Z23convert_double2_sat_rtnDv2_s;
        lle_X__Z15convert_double2Dv2_s;
        lle_X__Z19convert_double2_satDv2_s;
        lle_X__Z19convert_double2_rteDv2_t;
        lle_X__Z23convert_double2_sat_rteDv2_t;
        lle_X__Z19convert_double2_rtzDv2_t;
        lle_X__Z23convert_double2_sat_rtzDv2_t;
        lle_X__Z19convert_double2_rtpDv2_t;
        lle_X__Z23convert_double2_sat_rtpDv2_t;
        lle_X__Z19convert_double2_rtnDv2_t;
        lle_X__Z23convert_double2_sat_rtnDv2_t;
        lle_X__Z15convert_double2Dv2_t;
        lle_X__Z19convert_double2_satDv2_t;
        lle_X__Z19convert_double2_rteDv2_i;
        lle_X__Z23convert_double2_sat_rteDv2_i;
        lle_X__Z19convert_double2_rtzDv2_i;
        lle_X__Z23convert_double2_sat_rtzDv2_i;
        lle_X__Z19convert_double2_rtpDv2_i;
        lle_X__Z23convert_double2_sat_rtpDv2_i;
        lle_X__Z19convert_double2_rtnDv2_i;
        lle_X__Z23convert_double2_sat_rtnDv2_i;
        lle_X__Z15convert_double2Dv2_i;
        lle_X__Z19convert_double2_satDv2_i;
        lle_X__Z19convert_double2_rteDv2_j;
        lle_X__Z23convert_double2_sat_rteDv2_j;
        lle_X__Z19convert_double2_rtzDv2_j;
        lle_X__Z23convert_double2_sat_rtzDv2_j;
        lle_X__Z19convert_double2_rtpDv2_j;
        lle_X__Z23convert_double2_sat_rtpDv2_j;
        lle_X__Z19convert_double2_rtnDv2_j;
        lle_X__Z23convert_double2_sat_rtnDv2_j;
        lle_X__Z15convert_double2Dv2_j;
        lle_X__Z19convert_double2_satDv2_j;
        lle_X__Z19convert_double2_rteDv2_l;
        lle_X__Z23convert_double2_sat_rteDv2_l;
        lle_X__Z19convert_double2_rtzDv2_l;
        lle_X__Z23convert_double2_sat_rtzDv2_l;
        lle_X__Z19convert_double2_rtpDv2_l;
        lle_X__Z23convert_double2_sat_rtpDv2_l;
        lle_X__Z19convert_double2_rtnDv2_l;
        lle_X__Z23convert_double2_sat_rtnDv2_l;
        lle_X__Z15convert_double2Dv2_l;
        lle_X__Z19convert_double2_satDv2_l;
        lle_X__Z19convert_double2_rteDv2_m;
        lle_X__Z23convert_double2_sat_rteDv2_m;
        lle_X__Z19convert_double2_rtzDv2_m;
        lle_X__Z23convert_double2_sat_rtzDv2_m;
        lle_X__Z19convert_double2_rtpDv2_m;
        lle_X__Z23convert_double2_sat_rtpDv2_m;
        lle_X__Z19convert_double2_rtnDv2_m;
        lle_X__Z23convert_double2_sat_rtnDv2_m;
        lle_X__Z15convert_double2Dv2_m;
        lle_X__Z19convert_double2_satDv2_m;
        lle_X__Z19convert_double2_rteDv2_f;
        lle_X__Z23convert_double2_sat_rteDv2_f;
        lle_X__Z19convert_double2_rtzDv2_f;
        lle_X__Z23convert_double2_sat_rtzDv2_f;
        lle_X__Z19convert_double2_rtpDv2_f;
        lle_X__Z23convert_double2_sat_rtpDv2_f;
        lle_X__Z19convert_double2_rtnDv2_f;
        lle_X__Z23convert_double2_sat_rtnDv2_f;
        lle_X__Z15convert_double2Dv2_f;
        lle_X__Z19convert_double2_satDv2_f;
        lle_X__Z19convert_double2_rteDv2_d;
        lle_X__Z23convert_double2_sat_rteDv2_d;
        lle_X__Z19convert_double2_rtzDv2_d;
        lle_X__Z23convert_double2_sat_rtzDv2_d;
        lle_X__Z19convert_double2_rtpDv2_d;
        lle_X__Z23convert_double2_sat_rtpDv2_d;
        lle_X__Z19convert_double2_rtnDv2_d;
        lle_X__Z23convert_double2_sat_rtnDv2_d;
        lle_X__Z15convert_double2Dv2_d;
        lle_X__Z19convert_double2_satDv2_d;
        lle_X__Z17convert_char3_rteDv3_c;
        lle_X__Z21convert_char3_sat_rteDv3_c;
        lle_X__Z17convert_char3_rtzDv3_c;
        lle_X__Z21convert_char3_sat_rtzDv3_c;
        lle_X__Z17convert_char3_rtpDv3_c;
        lle_X__Z21convert_char3_sat_rtpDv3_c;
        lle_X__Z17convert_char3_rtnDv3_c;
        lle_X__Z21convert_char3_sat_rtnDv3_c;
        lle_X__Z13convert_char3Dv3_c;
        lle_X__Z17convert_char3_satDv3_c;
        lle_X__Z17convert_char3_rteDv3_h;
        lle_X__Z21convert_char3_sat_rteDv3_h;
        lle_X__Z17convert_char3_rtzDv3_h;
        lle_X__Z21convert_char3_sat_rtzDv3_h;
        lle_X__Z17convert_char3_rtpDv3_h;
        lle_X__Z21convert_char3_sat_rtpDv3_h;
        lle_X__Z17convert_char3_rtnDv3_h;
        lle_X__Z21convert_char3_sat_rtnDv3_h;
        lle_X__Z13convert_char3Dv3_h;
        lle_X__Z17convert_char3_satDv3_h;
        lle_X__Z17convert_char3_rteDv3_s;
        lle_X__Z21convert_char3_sat_rteDv3_s;
        lle_X__Z17convert_char3_rtzDv3_s;
        lle_X__Z21convert_char3_sat_rtzDv3_s;
        lle_X__Z17convert_char3_rtpDv3_s;
        lle_X__Z21convert_char3_sat_rtpDv3_s;
        lle_X__Z17convert_char3_rtnDv3_s;
        lle_X__Z21convert_char3_sat_rtnDv3_s;
        lle_X__Z13convert_char3Dv3_s;
        lle_X__Z17convert_char3_satDv3_s;
        lle_X__Z17convert_char3_rteDv3_t;
        lle_X__Z21convert_char3_sat_rteDv3_t;
        lle_X__Z17convert_char3_rtzDv3_t;
        lle_X__Z21convert_char3_sat_rtzDv3_t;
        lle_X__Z17convert_char3_rtpDv3_t;
        lle_X__Z21convert_char3_sat_rtpDv3_t;
        lle_X__Z17convert_char3_rtnDv3_t;
        lle_X__Z21convert_char3_sat_rtnDv3_t;
        lle_X__Z13convert_char3Dv3_t;
        lle_X__Z17convert_char3_satDv3_t;
        lle_X__Z17convert_char3_rteDv3_i;
        lle_X__Z21convert_char3_sat_rteDv3_i;
        lle_X__Z17convert_char3_rtzDv3_i;
        lle_X__Z21convert_char3_sat_rtzDv3_i;
        lle_X__Z17convert_char3_rtpDv3_i;
        lle_X__Z21convert_char3_sat_rtpDv3_i;
        lle_X__Z17convert_char3_rtnDv3_i;
        lle_X__Z21convert_char3_sat_rtnDv3_i;
        lle_X__Z13convert_char3Dv3_i;
        lle_X__Z17convert_char3_satDv3_i;
        lle_X__Z17convert_char3_rteDv3_j;
        lle_X__Z21convert_char3_sat_rteDv3_j;
        lle_X__Z17convert_char3_rtzDv3_j;
        lle_X__Z21convert_char3_sat_rtzDv3_j;
        lle_X__Z17convert_char3_rtpDv3_j;
        lle_X__Z21convert_char3_sat_rtpDv3_j;
        lle_X__Z17convert_char3_rtnDv3_j;
        lle_X__Z21convert_char3_sat_rtnDv3_j;
        lle_X__Z13convert_char3Dv3_j;
        lle_X__Z17convert_char3_satDv3_j;
        lle_X__Z17convert_char3_rteDv3_l;
        lle_X__Z21convert_char3_sat_rteDv3_l;
        lle_X__Z17convert_char3_rtzDv3_l;
        lle_X__Z21convert_char3_sat_rtzDv3_l;
        lle_X__Z17convert_char3_rtpDv3_l;
        lle_X__Z21convert_char3_sat_rtpDv3_l;
        lle_X__Z17convert_char3_rtnDv3_l;
        lle_X__Z21convert_char3_sat_rtnDv3_l;
        lle_X__Z13convert_char3Dv3_l;
        lle_X__Z17convert_char3_satDv3_l;
        lle_X__Z17convert_char3_rteDv3_m;
        lle_X__Z21convert_char3_sat_rteDv3_m;
        lle_X__Z17convert_char3_rtzDv3_m;
        lle_X__Z21convert_char3_sat_rtzDv3_m;
        lle_X__Z17convert_char3_rtpDv3_m;
        lle_X__Z21convert_char3_sat_rtpDv3_m;
        lle_X__Z17convert_char3_rtnDv3_m;
        lle_X__Z21convert_char3_sat_rtnDv3_m;
        lle_X__Z13convert_char3Dv3_m;
        lle_X__Z17convert_char3_satDv3_m;
        lle_X__Z17convert_char3_rteDv3_f;
        lle_X__Z21convert_char3_sat_rteDv3_f;
        lle_X__Z17convert_char3_rtzDv3_f;
        lle_X__Z21convert_char3_sat_rtzDv3_f;
        lle_X__Z17convert_char3_rtpDv3_f;
        lle_X__Z21convert_char3_sat_rtpDv3_f;
        lle_X__Z17convert_char3_rtnDv3_f;
        lle_X__Z21convert_char3_sat_rtnDv3_f;
        lle_X__Z13convert_char3Dv3_f;
        lle_X__Z17convert_char3_satDv3_f;
        lle_X__Z17convert_char3_rteDv3_d;
        lle_X__Z21convert_char3_sat_rteDv3_d;
        lle_X__Z17convert_char3_rtzDv3_d;
        lle_X__Z21convert_char3_sat_rtzDv3_d;
        lle_X__Z17convert_char3_rtpDv3_d;
        lle_X__Z21convert_char3_sat_rtpDv3_d;
        lle_X__Z17convert_char3_rtnDv3_d;
        lle_X__Z21convert_char3_sat_rtnDv3_d;
        lle_X__Z13convert_char3Dv3_d;
        lle_X__Z17convert_char3_satDv3_d;
        lle_X__Z18convert_uchar3_rteDv3_c;
        lle_X__Z22convert_uchar3_sat_rteDv3_c;
        lle_X__Z18convert_uchar3_rtzDv3_c;
        lle_X__Z22convert_uchar3_sat_rtzDv3_c;
        lle_X__Z18convert_uchar3_rtpDv3_c;
        lle_X__Z22convert_uchar3_sat_rtpDv3_c;
        lle_X__Z18convert_uchar3_rtnDv3_c;
        lle_X__Z22convert_uchar3_sat_rtnDv3_c;
        lle_X__Z14convert_uchar3Dv3_c;
        lle_X__Z18convert_uchar3_satDv3_c;
        lle_X__Z18convert_uchar3_rteDv3_h;
        lle_X__Z22convert_uchar3_sat_rteDv3_h;
        lle_X__Z18convert_uchar3_rtzDv3_h;
        lle_X__Z22convert_uchar3_sat_rtzDv3_h;
        lle_X__Z18convert_uchar3_rtpDv3_h;
        lle_X__Z22convert_uchar3_sat_rtpDv3_h;
        lle_X__Z18convert_uchar3_rtnDv3_h;
        lle_X__Z22convert_uchar3_sat_rtnDv3_h;
        lle_X__Z14convert_uchar3Dv3_h;
        lle_X__Z18convert_uchar3_satDv3_h;
        lle_X__Z18convert_uchar3_rteDv3_s;
        lle_X__Z22convert_uchar3_sat_rteDv3_s;
        lle_X__Z18convert_uchar3_rtzDv3_s;
        lle_X__Z22convert_uchar3_sat_rtzDv3_s;
        lle_X__Z18convert_uchar3_rtpDv3_s;
        lle_X__Z22convert_uchar3_sat_rtpDv3_s;
        lle_X__Z18convert_uchar3_rtnDv3_s;
        lle_X__Z22convert_uchar3_sat_rtnDv3_s;
        lle_X__Z14convert_uchar3Dv3_s;
        lle_X__Z18convert_uchar3_satDv3_s;
        lle_X__Z18convert_uchar3_rteDv3_t;
        lle_X__Z22convert_uchar3_sat_rteDv3_t;
        lle_X__Z18convert_uchar3_rtzDv3_t;
        lle_X__Z22convert_uchar3_sat_rtzDv3_t;
        lle_X__Z18convert_uchar3_rtpDv3_t;
        lle_X__Z22convert_uchar3_sat_rtpDv3_t;
        lle_X__Z18convert_uchar3_rtnDv3_t;
        lle_X__Z22convert_uchar3_sat_rtnDv3_t;
        lle_X__Z14convert_uchar3Dv3_t;
        lle_X__Z18convert_uchar3_satDv3_t;
        lle_X__Z18convert_uchar3_rteDv3_i;
        lle_X__Z22convert_uchar3_sat_rteDv3_i;
        lle_X__Z18convert_uchar3_rtzDv3_i;
        lle_X__Z22convert_uchar3_sat_rtzDv3_i;
        lle_X__Z18convert_uchar3_rtpDv3_i;
        lle_X__Z22convert_uchar3_sat_rtpDv3_i;
        lle_X__Z18convert_uchar3_rtnDv3_i;
        lle_X__Z22convert_uchar3_sat_rtnDv3_i;
        lle_X__Z14convert_uchar3Dv3_i;
        lle_X__Z18convert_uchar3_satDv3_i;
        lle_X__Z18convert_uchar3_rteDv3_j;
        lle_X__Z22convert_uchar3_sat_rteDv3_j;
        lle_X__Z18convert_uchar3_rtzDv3_j;
        lle_X__Z22convert_uchar3_sat_rtzDv3_j;
        lle_X__Z18convert_uchar3_rtpDv3_j;
        lle_X__Z22convert_uchar3_sat_rtpDv3_j;
        lle_X__Z18convert_uchar3_rtnDv3_j;
        lle_X__Z22convert_uchar3_sat_rtnDv3_j;
        lle_X__Z14convert_uchar3Dv3_j;
        lle_X__Z18convert_uchar3_satDv3_j;
        lle_X__Z18convert_uchar3_rteDv3_l;
        lle_X__Z22convert_uchar3_sat_rteDv3_l;
        lle_X__Z18convert_uchar3_rtzDv3_l;
        lle_X__Z22convert_uchar3_sat_rtzDv3_l;
        lle_X__Z18convert_uchar3_rtpDv3_l;
        lle_X__Z22convert_uchar3_sat_rtpDv3_l;
        lle_X__Z18convert_uchar3_rtnDv3_l;
        lle_X__Z22convert_uchar3_sat_rtnDv3_l;
        lle_X__Z14convert_uchar3Dv3_l;
        lle_X__Z18convert_uchar3_satDv3_l;
        lle_X__Z18convert_uchar3_rteDv3_m;
        lle_X__Z22convert_uchar3_sat_rteDv3_m;
        lle_X__Z18convert_uchar3_rtzDv3_m;
        lle_X__Z22convert_uchar3_sat_rtzDv3_m;
        lle_X__Z18convert_uchar3_rtpDv3_m;
        lle_X__Z22convert_uchar3_sat_rtpDv3_m;
        lle_X__Z18convert_uchar3_rtnDv3_m;
        lle_X__Z22convert_uchar3_sat_rtnDv3_m;
        lle_X__Z14convert_uchar3Dv3_m;
        lle_X__Z18convert_uchar3_satDv3_m;
        lle_X__Z18convert_uchar3_rteDv3_f;
        lle_X__Z22convert_uchar3_sat_rteDv3_f;
        lle_X__Z18convert_uchar3_rtzDv3_f;
        lle_X__Z22convert_uchar3_sat_rtzDv3_f;
        lle_X__Z18convert_uchar3_rtpDv3_f;
        lle_X__Z22convert_uchar3_sat_rtpDv3_f;
        lle_X__Z18convert_uchar3_rtnDv3_f;
        lle_X__Z22convert_uchar3_sat_rtnDv3_f;
        lle_X__Z14convert_uchar3Dv3_f;
        lle_X__Z18convert_uchar3_satDv3_f;
        lle_X__Z18convert_uchar3_rteDv3_d;
        lle_X__Z22convert_uchar3_sat_rteDv3_d;
        lle_X__Z18convert_uchar3_rtzDv3_d;
        lle_X__Z22convert_uchar3_sat_rtzDv3_d;
        lle_X__Z18convert_uchar3_rtpDv3_d;
        lle_X__Z22convert_uchar3_sat_rtpDv3_d;
        lle_X__Z18convert_uchar3_rtnDv3_d;
        lle_X__Z22convert_uchar3_sat_rtnDv3_d;
        lle_X__Z14convert_uchar3Dv3_d;
        lle_X__Z18convert_uchar3_satDv3_d;
        lle_X__Z18convert_short3_rteDv3_c;
        lle_X__Z22convert_short3_sat_rteDv3_c;
        lle_X__Z18convert_short3_rtzDv3_c;
        lle_X__Z22convert_short3_sat_rtzDv3_c;
        lle_X__Z18convert_short3_rtpDv3_c;
        lle_X__Z22convert_short3_sat_rtpDv3_c;
        lle_X__Z18convert_short3_rtnDv3_c;
        lle_X__Z22convert_short3_sat_rtnDv3_c;
        lle_X__Z14convert_short3Dv3_c;
        lle_X__Z18convert_short3_satDv3_c;
        lle_X__Z18convert_short3_rteDv3_h;
        lle_X__Z22convert_short3_sat_rteDv3_h;
        lle_X__Z18convert_short3_rtzDv3_h;
        lle_X__Z22convert_short3_sat_rtzDv3_h;
        lle_X__Z18convert_short3_rtpDv3_h;
        lle_X__Z22convert_short3_sat_rtpDv3_h;
        lle_X__Z18convert_short3_rtnDv3_h;
        lle_X__Z22convert_short3_sat_rtnDv3_h;
        lle_X__Z14convert_short3Dv3_h;
        lle_X__Z18convert_short3_satDv3_h;
        lle_X__Z18convert_short3_rteDv3_s;
        lle_X__Z22convert_short3_sat_rteDv3_s;
        lle_X__Z18convert_short3_rtzDv3_s;
        lle_X__Z22convert_short3_sat_rtzDv3_s;
        lle_X__Z18convert_short3_rtpDv3_s;
        lle_X__Z22convert_short3_sat_rtpDv3_s;
        lle_X__Z18convert_short3_rtnDv3_s;
        lle_X__Z22convert_short3_sat_rtnDv3_s;
        lle_X__Z14convert_short3Dv3_s;
        lle_X__Z18convert_short3_satDv3_s;
        lle_X__Z18convert_short3_rteDv3_t;
        lle_X__Z22convert_short3_sat_rteDv3_t;
        lle_X__Z18convert_short3_rtzDv3_t;
        lle_X__Z22convert_short3_sat_rtzDv3_t;
        lle_X__Z18convert_short3_rtpDv3_t;
        lle_X__Z22convert_short3_sat_rtpDv3_t;
        lle_X__Z18convert_short3_rtnDv3_t;
        lle_X__Z22convert_short3_sat_rtnDv3_t;
        lle_X__Z14convert_short3Dv3_t;
        lle_X__Z18convert_short3_satDv3_t;
        lle_X__Z18convert_short3_rteDv3_i;
        lle_X__Z22convert_short3_sat_rteDv3_i;
        lle_X__Z18convert_short3_rtzDv3_i;
        lle_X__Z22convert_short3_sat_rtzDv3_i;
        lle_X__Z18convert_short3_rtpDv3_i;
        lle_X__Z22convert_short3_sat_rtpDv3_i;
        lle_X__Z18convert_short3_rtnDv3_i;
        lle_X__Z22convert_short3_sat_rtnDv3_i;
        lle_X__Z14convert_short3Dv3_i;
        lle_X__Z18convert_short3_satDv3_i;
        lle_X__Z18convert_short3_rteDv3_j;
        lle_X__Z22convert_short3_sat_rteDv3_j;
        lle_X__Z18convert_short3_rtzDv3_j;
        lle_X__Z22convert_short3_sat_rtzDv3_j;
        lle_X__Z18convert_short3_rtpDv3_j;
        lle_X__Z22convert_short3_sat_rtpDv3_j;
        lle_X__Z18convert_short3_rtnDv3_j;
        lle_X__Z22convert_short3_sat_rtnDv3_j;
        lle_X__Z14convert_short3Dv3_j;
        lle_X__Z18convert_short3_satDv3_j;
        lle_X__Z18convert_short3_rteDv3_l;
        lle_X__Z22convert_short3_sat_rteDv3_l;
        lle_X__Z18convert_short3_rtzDv3_l;
        lle_X__Z22convert_short3_sat_rtzDv3_l;
        lle_X__Z18convert_short3_rtpDv3_l;
        lle_X__Z22convert_short3_sat_rtpDv3_l;
        lle_X__Z18convert_short3_rtnDv3_l;
        lle_X__Z22convert_short3_sat_rtnDv3_l;
        lle_X__Z14convert_short3Dv3_l;
        lle_X__Z18convert_short3_satDv3_l;
        lle_X__Z18convert_short3_rteDv3_m;
        lle_X__Z22convert_short3_sat_rteDv3_m;
        lle_X__Z18convert_short3_rtzDv3_m;
        lle_X__Z22convert_short3_sat_rtzDv3_m;
        lle_X__Z18convert_short3_rtpDv3_m;
        lle_X__Z22convert_short3_sat_rtpDv3_m;
        lle_X__Z18convert_short3_rtnDv3_m;
        lle_X__Z22convert_short3_sat_rtnDv3_m;
        lle_X__Z14convert_short3Dv3_m;
        lle_X__Z18convert_short3_satDv3_m;
        lle_X__Z18convert_short3_rteDv3_f;
        lle_X__Z22convert_short3_sat_rteDv3_f;
        lle_X__Z18convert_short3_rtzDv3_f;
        lle_X__Z22convert_short3_sat_rtzDv3_f;
        lle_X__Z18convert_short3_rtpDv3_f;
        lle_X__Z22convert_short3_sat_rtpDv3_f;
        lle_X__Z18convert_short3_rtnDv3_f;
        lle_X__Z22convert_short3_sat_rtnDv3_f;
        lle_X__Z14convert_short3Dv3_f;
        lle_X__Z18convert_short3_satDv3_f;
        lle_X__Z18convert_short3_rteDv3_d;
        lle_X__Z22convert_short3_sat_rteDv3_d;
        lle_X__Z18convert_short3_rtzDv3_d;
        lle_X__Z22convert_short3_sat_rtzDv3_d;
        lle_X__Z18convert_short3_rtpDv3_d;
        lle_X__Z22convert_short3_sat_rtpDv3_d;
        lle_X__Z18convert_short3_rtnDv3_d;
        lle_X__Z22convert_short3_sat_rtnDv3_d;
        lle_X__Z14convert_short3Dv3_d;
        lle_X__Z18convert_short3_satDv3_d;
        lle_X__Z19convert_ushort3_rteDv3_c;
        lle_X__Z23convert_ushort3_sat_rteDv3_c;
        lle_X__Z19convert_ushort3_rtzDv3_c;
        lle_X__Z23convert_ushort3_sat_rtzDv3_c;
        lle_X__Z19convert_ushort3_rtpDv3_c;
        lle_X__Z23convert_ushort3_sat_rtpDv3_c;
        lle_X__Z19convert_ushort3_rtnDv3_c;
        lle_X__Z23convert_ushort3_sat_rtnDv3_c;
        lle_X__Z15convert_ushort3Dv3_c;
        lle_X__Z19convert_ushort3_satDv3_c;
        lle_X__Z19convert_ushort3_rteDv3_h;
        lle_X__Z23convert_ushort3_sat_rteDv3_h;
        lle_X__Z19convert_ushort3_rtzDv3_h;
        lle_X__Z23convert_ushort3_sat_rtzDv3_h;
        lle_X__Z19convert_ushort3_rtpDv3_h;
        lle_X__Z23convert_ushort3_sat_rtpDv3_h;
        lle_X__Z19convert_ushort3_rtnDv3_h;
        lle_X__Z23convert_ushort3_sat_rtnDv3_h;
        lle_X__Z15convert_ushort3Dv3_h;
        lle_X__Z19convert_ushort3_satDv3_h;
        lle_X__Z19convert_ushort3_rteDv3_s;
        lle_X__Z23convert_ushort3_sat_rteDv3_s;
        lle_X__Z19convert_ushort3_rtzDv3_s;
        lle_X__Z23convert_ushort3_sat_rtzDv3_s;
        lle_X__Z19convert_ushort3_rtpDv3_s;
        lle_X__Z23convert_ushort3_sat_rtpDv3_s;
        lle_X__Z19convert_ushort3_rtnDv3_s;
        lle_X__Z23convert_ushort3_sat_rtnDv3_s;
        lle_X__Z15convert_ushort3Dv3_s;
        lle_X__Z19convert_ushort3_satDv3_s;
        lle_X__Z19convert_ushort3_rteDv3_t;
        lle_X__Z23convert_ushort3_sat_rteDv3_t;
        lle_X__Z19convert_ushort3_rtzDv3_t;
        lle_X__Z23convert_ushort3_sat_rtzDv3_t;
        lle_X__Z19convert_ushort3_rtpDv3_t;
        lle_X__Z23convert_ushort3_sat_rtpDv3_t;
        lle_X__Z19convert_ushort3_rtnDv3_t;
        lle_X__Z23convert_ushort3_sat_rtnDv3_t;
        lle_X__Z15convert_ushort3Dv3_t;
        lle_X__Z19convert_ushort3_satDv3_t;
        lle_X__Z19convert_ushort3_rteDv3_i;
        lle_X__Z23convert_ushort3_sat_rteDv3_i;
        lle_X__Z19convert_ushort3_rtzDv3_i;
        lle_X__Z23convert_ushort3_sat_rtzDv3_i;
        lle_X__Z19convert_ushort3_rtpDv3_i;
        lle_X__Z23convert_ushort3_sat_rtpDv3_i;
        lle_X__Z19convert_ushort3_rtnDv3_i;
        lle_X__Z23convert_ushort3_sat_rtnDv3_i;
        lle_X__Z15convert_ushort3Dv3_i;
        lle_X__Z19convert_ushort3_satDv3_i;
        lle_X__Z19convert_ushort3_rteDv3_j;
        lle_X__Z23convert_ushort3_sat_rteDv3_j;
        lle_X__Z19convert_ushort3_rtzDv3_j;
        lle_X__Z23convert_ushort3_sat_rtzDv3_j;
        lle_X__Z19convert_ushort3_rtpDv3_j;
        lle_X__Z23convert_ushort3_sat_rtpDv3_j;
        lle_X__Z19convert_ushort3_rtnDv3_j;
        lle_X__Z23convert_ushort3_sat_rtnDv3_j;
        lle_X__Z15convert_ushort3Dv3_j;
        lle_X__Z19convert_ushort3_satDv3_j;
        lle_X__Z19convert_ushort3_rteDv3_l;
        lle_X__Z23convert_ushort3_sat_rteDv3_l;
        lle_X__Z19convert_ushort3_rtzDv3_l;
        lle_X__Z23convert_ushort3_sat_rtzDv3_l;
        lle_X__Z19convert_ushort3_rtpDv3_l;
        lle_X__Z23convert_ushort3_sat_rtpDv3_l;
        lle_X__Z19convert_ushort3_rtnDv3_l;
        lle_X__Z23convert_ushort3_sat_rtnDv3_l;
        lle_X__Z15convert_ushort3Dv3_l;
        lle_X__Z19convert_ushort3_satDv3_l;
        lle_X__Z19convert_ushort3_rteDv3_m;
        lle_X__Z23convert_ushort3_sat_rteDv3_m;
        lle_X__Z19convert_ushort3_rtzDv3_m;
        lle_X__Z23convert_ushort3_sat_rtzDv3_m;
        lle_X__Z19convert_ushort3_rtpDv3_m;
        lle_X__Z23convert_ushort3_sat_rtpDv3_m;
        lle_X__Z19convert_ushort3_rtnDv3_m;
        lle_X__Z23convert_ushort3_sat_rtnDv3_m;
        lle_X__Z15convert_ushort3Dv3_m;
        lle_X__Z19convert_ushort3_satDv3_m;
        lle_X__Z19convert_ushort3_rteDv3_f;
        lle_X__Z23convert_ushort3_sat_rteDv3_f;
        lle_X__Z19convert_ushort3_rtzDv3_f;
        lle_X__Z23convert_ushort3_sat_rtzDv3_f;
        lle_X__Z19convert_ushort3_rtpDv3_f;
        lle_X__Z23convert_ushort3_sat_rtpDv3_f;
        lle_X__Z19convert_ushort3_rtnDv3_f;
        lle_X__Z23convert_ushort3_sat_rtnDv3_f;
        lle_X__Z15convert_ushort3Dv3_f;
        lle_X__Z19convert_ushort3_satDv3_f;
        lle_X__Z19convert_ushort3_rteDv3_d;
        lle_X__Z23convert_ushort3_sat_rteDv3_d;
        lle_X__Z19convert_ushort3_rtzDv3_d;
        lle_X__Z23convert_ushort3_sat_rtzDv3_d;
        lle_X__Z19convert_ushort3_rtpDv3_d;
        lle_X__Z23convert_ushort3_sat_rtpDv3_d;
        lle_X__Z19convert_ushort3_rtnDv3_d;
        lle_X__Z23convert_ushort3_sat_rtnDv3_d;
        lle_X__Z15convert_ushort3Dv3_d;
        lle_X__Z19convert_ushort3_satDv3_d;
        lle_X__Z16convert_int3_rteDv3_c;
        lle_X__Z20convert_int3_sat_rteDv3_c;
        lle_X__Z16convert_int3_rtzDv3_c;
        lle_X__Z20convert_int3_sat_rtzDv3_c;
        lle_X__Z16convert_int3_rtpDv3_c;
        lle_X__Z20convert_int3_sat_rtpDv3_c;
        lle_X__Z16convert_int3_rtnDv3_c;
        lle_X__Z20convert_int3_sat_rtnDv3_c;
        lle_X__Z12convert_int3Dv3_c;
        lle_X__Z16convert_int3_satDv3_c;
        lle_X__Z16convert_int3_rteDv3_h;
        lle_X__Z20convert_int3_sat_rteDv3_h;
        lle_X__Z16convert_int3_rtzDv3_h;
        lle_X__Z20convert_int3_sat_rtzDv3_h;
        lle_X__Z16convert_int3_rtpDv3_h;
        lle_X__Z20convert_int3_sat_rtpDv3_h;
        lle_X__Z16convert_int3_rtnDv3_h;
        lle_X__Z20convert_int3_sat_rtnDv3_h;
        lle_X__Z12convert_int3Dv3_h;
        lle_X__Z16convert_int3_satDv3_h;
        lle_X__Z16convert_int3_rteDv3_s;
        lle_X__Z20convert_int3_sat_rteDv3_s;
        lle_X__Z16convert_int3_rtzDv3_s;
        lle_X__Z20convert_int3_sat_rtzDv3_s;
        lle_X__Z16convert_int3_rtpDv3_s;
        lle_X__Z20convert_int3_sat_rtpDv3_s;
        lle_X__Z16convert_int3_rtnDv3_s;
        lle_X__Z20convert_int3_sat_rtnDv3_s;
        lle_X__Z12convert_int3Dv3_s;
        lle_X__Z16convert_int3_satDv3_s;
        lle_X__Z16convert_int3_rteDv3_t;
        lle_X__Z20convert_int3_sat_rteDv3_t;
        lle_X__Z16convert_int3_rtzDv3_t;
        lle_X__Z20convert_int3_sat_rtzDv3_t;
        lle_X__Z16convert_int3_rtpDv3_t;
        lle_X__Z20convert_int3_sat_rtpDv3_t;
        lle_X__Z16convert_int3_rtnDv3_t;
        lle_X__Z20convert_int3_sat_rtnDv3_t;
        lle_X__Z12convert_int3Dv3_t;
        lle_X__Z16convert_int3_satDv3_t;
        lle_X__Z16convert_int3_rteDv3_i;
        lle_X__Z20convert_int3_sat_rteDv3_i;
        lle_X__Z16convert_int3_rtzDv3_i;
        lle_X__Z20convert_int3_sat_rtzDv3_i;
        lle_X__Z16convert_int3_rtpDv3_i;
        lle_X__Z20convert_int3_sat_rtpDv3_i;
        lle_X__Z16convert_int3_rtnDv3_i;
        lle_X__Z20convert_int3_sat_rtnDv3_i;
        lle_X__Z12convert_int3Dv3_i;
        lle_X__Z16convert_int3_satDv3_i;
        lle_X__Z16convert_int3_rteDv3_j;
        lle_X__Z20convert_int3_sat_rteDv3_j;
        lle_X__Z16convert_int3_rtzDv3_j;
        lle_X__Z20convert_int3_sat_rtzDv3_j;
        lle_X__Z16convert_int3_rtpDv3_j;
        lle_X__Z20convert_int3_sat_rtpDv3_j;
        lle_X__Z16convert_int3_rtnDv3_j;
        lle_X__Z20convert_int3_sat_rtnDv3_j;
        lle_X__Z12convert_int3Dv3_j;
        lle_X__Z16convert_int3_satDv3_j;
        lle_X__Z16convert_int3_rteDv3_l;
        lle_X__Z20convert_int3_sat_rteDv3_l;
        lle_X__Z16convert_int3_rtzDv3_l;
        lle_X__Z20convert_int3_sat_rtzDv3_l;
        lle_X__Z16convert_int3_rtpDv3_l;
        lle_X__Z20convert_int3_sat_rtpDv3_l;
        lle_X__Z16convert_int3_rtnDv3_l;
        lle_X__Z20convert_int3_sat_rtnDv3_l;
        lle_X__Z12convert_int3Dv3_l;
        lle_X__Z16convert_int3_satDv3_l;
        lle_X__Z16convert_int3_rteDv3_m;
        lle_X__Z20convert_int3_sat_rteDv3_m;
        lle_X__Z16convert_int3_rtzDv3_m;
        lle_X__Z20convert_int3_sat_rtzDv3_m;
        lle_X__Z16convert_int3_rtpDv3_m;
        lle_X__Z20convert_int3_sat_rtpDv3_m;
        lle_X__Z16convert_int3_rtnDv3_m;
        lle_X__Z20convert_int3_sat_rtnDv3_m;
        lle_X__Z12convert_int3Dv3_m;
        lle_X__Z16convert_int3_satDv3_m;
        lle_X__Z16convert_int3_rteDv3_f;
        lle_X__Z20convert_int3_sat_rteDv3_f;
        lle_X__Z16convert_int3_rtzDv3_f;
        lle_X__Z20convert_int3_sat_rtzDv3_f;
        lle_X__Z16convert_int3_rtpDv3_f;
        lle_X__Z20convert_int3_sat_rtpDv3_f;
        lle_X__Z16convert_int3_rtnDv3_f;
        lle_X__Z20convert_int3_sat_rtnDv3_f;
        lle_X__Z12convert_int3Dv3_f;
        lle_X__Z16convert_int3_satDv3_f;
        lle_X__Z16convert_int3_rteDv3_d;
        lle_X__Z20convert_int3_sat_rteDv3_d;
        lle_X__Z16convert_int3_rtzDv3_d;
        lle_X__Z20convert_int3_sat_rtzDv3_d;
        lle_X__Z16convert_int3_rtpDv3_d;
        lle_X__Z20convert_int3_sat_rtpDv3_d;
        lle_X__Z16convert_int3_rtnDv3_d;
        lle_X__Z20convert_int3_sat_rtnDv3_d;
        lle_X__Z12convert_int3Dv3_d;
        lle_X__Z16convert_int3_satDv3_d;
        lle_X__Z17convert_uint3_rteDv3_c;
        lle_X__Z21convert_uint3_sat_rteDv3_c;
        lle_X__Z17convert_uint3_rtzDv3_c;
        lle_X__Z21convert_uint3_sat_rtzDv3_c;
        lle_X__Z17convert_uint3_rtpDv3_c;
        lle_X__Z21convert_uint3_sat_rtpDv3_c;
        lle_X__Z17convert_uint3_rtnDv3_c;
        lle_X__Z21convert_uint3_sat_rtnDv3_c;
        lle_X__Z13convert_uint3Dv3_c;
        lle_X__Z17convert_uint3_satDv3_c;
        lle_X__Z17convert_uint3_rteDv3_h;
        lle_X__Z21convert_uint3_sat_rteDv3_h;
        lle_X__Z17convert_uint3_rtzDv3_h;
        lle_X__Z21convert_uint3_sat_rtzDv3_h;
        lle_X__Z17convert_uint3_rtpDv3_h;
        lle_X__Z21convert_uint3_sat_rtpDv3_h;
        lle_X__Z17convert_uint3_rtnDv3_h;
        lle_X__Z21convert_uint3_sat_rtnDv3_h;
        lle_X__Z13convert_uint3Dv3_h;
        lle_X__Z17convert_uint3_satDv3_h;
        lle_X__Z17convert_uint3_rteDv3_s;
        lle_X__Z21convert_uint3_sat_rteDv3_s;
        lle_X__Z17convert_uint3_rtzDv3_s;
        lle_X__Z21convert_uint3_sat_rtzDv3_s;
        lle_X__Z17convert_uint3_rtpDv3_s;
        lle_X__Z21convert_uint3_sat_rtpDv3_s;
        lle_X__Z17convert_uint3_rtnDv3_s;
        lle_X__Z21convert_uint3_sat_rtnDv3_s;
        lle_X__Z13convert_uint3Dv3_s;
        lle_X__Z17convert_uint3_satDv3_s;
        lle_X__Z17convert_uint3_rteDv3_t;
        lle_X__Z21convert_uint3_sat_rteDv3_t;
        lle_X__Z17convert_uint3_rtzDv3_t;
        lle_X__Z21convert_uint3_sat_rtzDv3_t;
        lle_X__Z17convert_uint3_rtpDv3_t;
        lle_X__Z21convert_uint3_sat_rtpDv3_t;
        lle_X__Z17convert_uint3_rtnDv3_t;
        lle_X__Z21convert_uint3_sat_rtnDv3_t;
        lle_X__Z13convert_uint3Dv3_t;
        lle_X__Z17convert_uint3_satDv3_t;
        lle_X__Z17convert_uint3_rteDv3_i;
        lle_X__Z21convert_uint3_sat_rteDv3_i;
        lle_X__Z17convert_uint3_rtzDv3_i;
        lle_X__Z21convert_uint3_sat_rtzDv3_i;
        lle_X__Z17convert_uint3_rtpDv3_i;
        lle_X__Z21convert_uint3_sat_rtpDv3_i;
        lle_X__Z17convert_uint3_rtnDv3_i;
        lle_X__Z21convert_uint3_sat_rtnDv3_i;
        lle_X__Z13convert_uint3Dv3_i;
        lle_X__Z17convert_uint3_satDv3_i;
        lle_X__Z17convert_uint3_rteDv3_j;
        lle_X__Z21convert_uint3_sat_rteDv3_j;
        lle_X__Z17convert_uint3_rtzDv3_j;
        lle_X__Z21convert_uint3_sat_rtzDv3_j;
        lle_X__Z17convert_uint3_rtpDv3_j;
        lle_X__Z21convert_uint3_sat_rtpDv3_j;
        lle_X__Z17convert_uint3_rtnDv3_j;
        lle_X__Z21convert_uint3_sat_rtnDv3_j;
        lle_X__Z13convert_uint3Dv3_j;
        lle_X__Z17convert_uint3_satDv3_j;
        lle_X__Z17convert_uint3_rteDv3_l;
        lle_X__Z21convert_uint3_sat_rteDv3_l;
        lle_X__Z17convert_uint3_rtzDv3_l;
        lle_X__Z21convert_uint3_sat_rtzDv3_l;
        lle_X__Z17convert_uint3_rtpDv3_l;
        lle_X__Z21convert_uint3_sat_rtpDv3_l;
        lle_X__Z17convert_uint3_rtnDv3_l;
        lle_X__Z21convert_uint3_sat_rtnDv3_l;
        lle_X__Z13convert_uint3Dv3_l;
        lle_X__Z17convert_uint3_satDv3_l;
        lle_X__Z17convert_uint3_rteDv3_m;
        lle_X__Z21convert_uint3_sat_rteDv3_m;
        lle_X__Z17convert_uint3_rtzDv3_m;
        lle_X__Z21convert_uint3_sat_rtzDv3_m;
        lle_X__Z17convert_uint3_rtpDv3_m;
        lle_X__Z21convert_uint3_sat_rtpDv3_m;
        lle_X__Z17convert_uint3_rtnDv3_m;
        lle_X__Z21convert_uint3_sat_rtnDv3_m;
        lle_X__Z13convert_uint3Dv3_m;
        lle_X__Z17convert_uint3_satDv3_m;
        lle_X__Z17convert_uint3_rteDv3_f;
        lle_X__Z21convert_uint3_sat_rteDv3_f;
        lle_X__Z17convert_uint3_rtzDv3_f;
        lle_X__Z21convert_uint3_sat_rtzDv3_f;
        lle_X__Z17convert_uint3_rtpDv3_f;
        lle_X__Z21convert_uint3_sat_rtpDv3_f;
        lle_X__Z17convert_uint3_rtnDv3_f;
        lle_X__Z21convert_uint3_sat_rtnDv3_f;
        lle_X__Z13convert_uint3Dv3_f;
        lle_X__Z17convert_uint3_satDv3_f;
        lle_X__Z17convert_uint3_rteDv3_d;
        lle_X__Z21convert_uint3_sat_rteDv3_d;
        lle_X__Z17convert_uint3_rtzDv3_d;
        lle_X__Z21convert_uint3_sat_rtzDv3_d;
        lle_X__Z17convert_uint3_rtpDv3_d;
        lle_X__Z21convert_uint3_sat_rtpDv3_d;
        lle_X__Z17convert_uint3_rtnDv3_d;
        lle_X__Z21convert_uint3_sat_rtnDv3_d;
        lle_X__Z13convert_uint3Dv3_d;
        lle_X__Z17convert_uint3_satDv3_d;
        lle_X__Z17convert_long3_rteDv3_c;
        lle_X__Z21convert_long3_sat_rteDv3_c;
        lle_X__Z17convert_long3_rtzDv3_c;
        lle_X__Z21convert_long3_sat_rtzDv3_c;
        lle_X__Z17convert_long3_rtpDv3_c;
        lle_X__Z21convert_long3_sat_rtpDv3_c;
        lle_X__Z17convert_long3_rtnDv3_c;
        lle_X__Z21convert_long3_sat_rtnDv3_c;
        lle_X__Z13convert_long3Dv3_c;
        lle_X__Z17convert_long3_satDv3_c;
        lle_X__Z17convert_long3_rteDv3_h;
        lle_X__Z21convert_long3_sat_rteDv3_h;
        lle_X__Z17convert_long3_rtzDv3_h;
        lle_X__Z21convert_long3_sat_rtzDv3_h;
        lle_X__Z17convert_long3_rtpDv3_h;
        lle_X__Z21convert_long3_sat_rtpDv3_h;
        lle_X__Z17convert_long3_rtnDv3_h;
        lle_X__Z21convert_long3_sat_rtnDv3_h;
        lle_X__Z13convert_long3Dv3_h;
        lle_X__Z17convert_long3_satDv3_h;
        lle_X__Z17convert_long3_rteDv3_s;
        lle_X__Z21convert_long3_sat_rteDv3_s;
        lle_X__Z17convert_long3_rtzDv3_s;
        lle_X__Z21convert_long3_sat_rtzDv3_s;
        lle_X__Z17convert_long3_rtpDv3_s;
        lle_X__Z21convert_long3_sat_rtpDv3_s;
        lle_X__Z17convert_long3_rtnDv3_s;
        lle_X__Z21convert_long3_sat_rtnDv3_s;
        lle_X__Z13convert_long3Dv3_s;
        lle_X__Z17convert_long3_satDv3_s;
        lle_X__Z17convert_long3_rteDv3_t;
        lle_X__Z21convert_long3_sat_rteDv3_t;
        lle_X__Z17convert_long3_rtzDv3_t;
        lle_X__Z21convert_long3_sat_rtzDv3_t;
        lle_X__Z17convert_long3_rtpDv3_t;
        lle_X__Z21convert_long3_sat_rtpDv3_t;
        lle_X__Z17convert_long3_rtnDv3_t;
        lle_X__Z21convert_long3_sat_rtnDv3_t;
        lle_X__Z13convert_long3Dv3_t;
        lle_X__Z17convert_long3_satDv3_t;
        lle_X__Z17convert_long3_rteDv3_i;
        lle_X__Z21convert_long3_sat_rteDv3_i;
        lle_X__Z17convert_long3_rtzDv3_i;
        lle_X__Z21convert_long3_sat_rtzDv3_i;
        lle_X__Z17convert_long3_rtpDv3_i;
        lle_X__Z21convert_long3_sat_rtpDv3_i;
        lle_X__Z17convert_long3_rtnDv3_i;
        lle_X__Z21convert_long3_sat_rtnDv3_i;
        lle_X__Z13convert_long3Dv3_i;
        lle_X__Z17convert_long3_satDv3_i;
        lle_X__Z17convert_long3_rteDv3_j;
        lle_X__Z21convert_long3_sat_rteDv3_j;
        lle_X__Z17convert_long3_rtzDv3_j;
        lle_X__Z21convert_long3_sat_rtzDv3_j;
        lle_X__Z17convert_long3_rtpDv3_j;
        lle_X__Z21convert_long3_sat_rtpDv3_j;
        lle_X__Z17convert_long3_rtnDv3_j;
        lle_X__Z21convert_long3_sat_rtnDv3_j;
        lle_X__Z13convert_long3Dv3_j;
        lle_X__Z17convert_long3_satDv3_j;
        lle_X__Z17convert_long3_rteDv3_l;
        lle_X__Z21convert_long3_sat_rteDv3_l;
        lle_X__Z17convert_long3_rtzDv3_l;
        lle_X__Z21convert_long3_sat_rtzDv3_l;
        lle_X__Z17convert_long3_rtpDv3_l;
        lle_X__Z21convert_long3_sat_rtpDv3_l;
        lle_X__Z17convert_long3_rtnDv3_l;
        lle_X__Z21convert_long3_sat_rtnDv3_l;
        lle_X__Z13convert_long3Dv3_l;
        lle_X__Z17convert_long3_satDv3_l;
        lle_X__Z17convert_long3_rteDv3_m;
        lle_X__Z21convert_long3_sat_rteDv3_m;
        lle_X__Z17convert_long3_rtzDv3_m;
        lle_X__Z21convert_long3_sat_rtzDv3_m;
        lle_X__Z17convert_long3_rtpDv3_m;
        lle_X__Z21convert_long3_sat_rtpDv3_m;
        lle_X__Z17convert_long3_rtnDv3_m;
        lle_X__Z21convert_long3_sat_rtnDv3_m;
        lle_X__Z13convert_long3Dv3_m;
        lle_X__Z17convert_long3_satDv3_m;
        lle_X__Z17convert_long3_rteDv3_f;
        lle_X__Z21convert_long3_sat_rteDv3_f;
        lle_X__Z17convert_long3_rtzDv3_f;
        lle_X__Z21convert_long3_sat_rtzDv3_f;
        lle_X__Z17convert_long3_rtpDv3_f;
        lle_X__Z21convert_long3_sat_rtpDv3_f;
        lle_X__Z17convert_long3_rtnDv3_f;
        lle_X__Z21convert_long3_sat_rtnDv3_f;
        lle_X__Z13convert_long3Dv3_f;
        lle_X__Z17convert_long3_satDv3_f;
        lle_X__Z17convert_long3_rteDv3_d;
        lle_X__Z21convert_long3_sat_rteDv3_d;
        lle_X__Z17convert_long3_rtzDv3_d;
        lle_X__Z21convert_long3_sat_rtzDv3_d;
        lle_X__Z17convert_long3_rtpDv3_d;
        lle_X__Z21convert_long3_sat_rtpDv3_d;
        lle_X__Z17convert_long3_rtnDv3_d;
        lle_X__Z21convert_long3_sat_rtnDv3_d;
        lle_X__Z13convert_long3Dv3_d;
        lle_X__Z17convert_long3_satDv3_d;
        lle_X__Z18convert_ulong3_rteDv3_c;
        lle_X__Z22convert_ulong3_sat_rteDv3_c;
        lle_X__Z18convert_ulong3_rtzDv3_c;
        lle_X__Z22convert_ulong3_sat_rtzDv3_c;
        lle_X__Z18convert_ulong3_rtpDv3_c;
        lle_X__Z22convert_ulong3_sat_rtpDv3_c;
        lle_X__Z18convert_ulong3_rtnDv3_c;
        lle_X__Z22convert_ulong3_sat_rtnDv3_c;
        lle_X__Z14convert_ulong3Dv3_c;
        lle_X__Z18convert_ulong3_satDv3_c;
        lle_X__Z18convert_ulong3_rteDv3_h;
        lle_X__Z22convert_ulong3_sat_rteDv3_h;
        lle_X__Z18convert_ulong3_rtzDv3_h;
        lle_X__Z22convert_ulong3_sat_rtzDv3_h;
        lle_X__Z18convert_ulong3_rtpDv3_h;
        lle_X__Z22convert_ulong3_sat_rtpDv3_h;
        lle_X__Z18convert_ulong3_rtnDv3_h;
        lle_X__Z22convert_ulong3_sat_rtnDv3_h;
        lle_X__Z14convert_ulong3Dv3_h;
        lle_X__Z18convert_ulong3_satDv3_h;
        lle_X__Z18convert_ulong3_rteDv3_s;
        lle_X__Z22convert_ulong3_sat_rteDv3_s;
        lle_X__Z18convert_ulong3_rtzDv3_s;
        lle_X__Z22convert_ulong3_sat_rtzDv3_s;
        lle_X__Z18convert_ulong3_rtpDv3_s;
        lle_X__Z22convert_ulong3_sat_rtpDv3_s;
        lle_X__Z18convert_ulong3_rtnDv3_s;
        lle_X__Z22convert_ulong3_sat_rtnDv3_s;
        lle_X__Z14convert_ulong3Dv3_s;
        lle_X__Z18convert_ulong3_satDv3_s;
        lle_X__Z18convert_ulong3_rteDv3_t;
        lle_X__Z22convert_ulong3_sat_rteDv3_t;
        lle_X__Z18convert_ulong3_rtzDv3_t;
        lle_X__Z22convert_ulong3_sat_rtzDv3_t;
        lle_X__Z18convert_ulong3_rtpDv3_t;
        lle_X__Z22convert_ulong3_sat_rtpDv3_t;
        lle_X__Z18convert_ulong3_rtnDv3_t;
        lle_X__Z22convert_ulong3_sat_rtnDv3_t;
        lle_X__Z14convert_ulong3Dv3_t;
        lle_X__Z18convert_ulong3_satDv3_t;
        lle_X__Z18convert_ulong3_rteDv3_i;
        lle_X__Z22convert_ulong3_sat_rteDv3_i;
        lle_X__Z18convert_ulong3_rtzDv3_i;
        lle_X__Z22convert_ulong3_sat_rtzDv3_i;
        lle_X__Z18convert_ulong3_rtpDv3_i;
        lle_X__Z22convert_ulong3_sat_rtpDv3_i;
        lle_X__Z18convert_ulong3_rtnDv3_i;
        lle_X__Z22convert_ulong3_sat_rtnDv3_i;
        lle_X__Z14convert_ulong3Dv3_i;
        lle_X__Z18convert_ulong3_satDv3_i;
        lle_X__Z18convert_ulong3_rteDv3_j;
        lle_X__Z22convert_ulong3_sat_rteDv3_j;
        lle_X__Z18convert_ulong3_rtzDv3_j;
        lle_X__Z22convert_ulong3_sat_rtzDv3_j;
        lle_X__Z18convert_ulong3_rtpDv3_j;
        lle_X__Z22convert_ulong3_sat_rtpDv3_j;
        lle_X__Z18convert_ulong3_rtnDv3_j;
        lle_X__Z22convert_ulong3_sat_rtnDv3_j;
        lle_X__Z14convert_ulong3Dv3_j;
        lle_X__Z18convert_ulong3_satDv3_j;
        lle_X__Z18convert_ulong3_rteDv3_l;
        lle_X__Z22convert_ulong3_sat_rteDv3_l;
        lle_X__Z18convert_ulong3_rtzDv3_l;
        lle_X__Z22convert_ulong3_sat_rtzDv3_l;
        lle_X__Z18convert_ulong3_rtpDv3_l;
        lle_X__Z22convert_ulong3_sat_rtpDv3_l;
        lle_X__Z18convert_ulong3_rtnDv3_l;
        lle_X__Z22convert_ulong3_sat_rtnDv3_l;
        lle_X__Z14convert_ulong3Dv3_l;
        lle_X__Z18convert_ulong3_satDv3_l;
        lle_X__Z18convert_ulong3_rteDv3_m;
        lle_X__Z22convert_ulong3_sat_rteDv3_m;
        lle_X__Z18convert_ulong3_rtzDv3_m;
        lle_X__Z22convert_ulong3_sat_rtzDv3_m;
        lle_X__Z18convert_ulong3_rtpDv3_m;
        lle_X__Z22convert_ulong3_sat_rtpDv3_m;
        lle_X__Z18convert_ulong3_rtnDv3_m;
        lle_X__Z22convert_ulong3_sat_rtnDv3_m;
        lle_X__Z14convert_ulong3Dv3_m;
        lle_X__Z18convert_ulong3_satDv3_m;
        lle_X__Z18convert_ulong3_rteDv3_f;
        lle_X__Z22convert_ulong3_sat_rteDv3_f;
        lle_X__Z18convert_ulong3_rtzDv3_f;
        lle_X__Z22convert_ulong3_sat_rtzDv3_f;
        lle_X__Z18convert_ulong3_rtpDv3_f;
        lle_X__Z22convert_ulong3_sat_rtpDv3_f;
        lle_X__Z18convert_ulong3_rtnDv3_f;
        lle_X__Z22convert_ulong3_sat_rtnDv3_f;
        lle_X__Z14convert_ulong3Dv3_f;
        lle_X__Z18convert_ulong3_satDv3_f;
        lle_X__Z18convert_ulong3_rteDv3_d;
        lle_X__Z22convert_ulong3_sat_rteDv3_d;
        lle_X__Z18convert_ulong3_rtzDv3_d;
        lle_X__Z22convert_ulong3_sat_rtzDv3_d;
        lle_X__Z18convert_ulong3_rtpDv3_d;
        lle_X__Z22convert_ulong3_sat_rtpDv3_d;
        lle_X__Z18convert_ulong3_rtnDv3_d;
        lle_X__Z22convert_ulong3_sat_rtnDv3_d;
        lle_X__Z14convert_ulong3Dv3_d;
        lle_X__Z18convert_ulong3_satDv3_d;
        lle_X__Z19convert_double3_rteDv3_c;
        lle_X__Z23convert_double3_sat_rteDv3_c;
        lle_X__Z19convert_double3_rtzDv3_c;
        lle_X__Z23convert_double3_sat_rtzDv3_c;
        lle_X__Z19convert_double3_rtpDv3_c;
        lle_X__Z23convert_double3_sat_rtpDv3_c;
        lle_X__Z19convert_double3_rtnDv3_c;
        lle_X__Z23convert_double3_sat_rtnDv3_c;
        lle_X__Z15convert_double3Dv3_c;
        lle_X__Z19convert_double3_satDv3_c;
        lle_X__Z19convert_double3_rteDv3_h;
        lle_X__Z23convert_double3_sat_rteDv3_h;
        lle_X__Z19convert_double3_rtzDv3_h;
        lle_X__Z23convert_double3_sat_rtzDv3_h;
        lle_X__Z19convert_double3_rtpDv3_h;
        lle_X__Z23convert_double3_sat_rtpDv3_h;
        lle_X__Z19convert_double3_rtnDv3_h;
        lle_X__Z23convert_double3_sat_rtnDv3_h;
        lle_X__Z15convert_double3Dv3_h;
        lle_X__Z19convert_double3_satDv3_h;
        lle_X__Z19convert_double3_rteDv3_s;
        lle_X__Z23convert_double3_sat_rteDv3_s;
        lle_X__Z19convert_double3_rtzDv3_s;
        lle_X__Z23convert_double3_sat_rtzDv3_s;
        lle_X__Z19convert_double3_rtpDv3_s;
        lle_X__Z23convert_double3_sat_rtpDv3_s;
        lle_X__Z19convert_double3_rtnDv3_s;
        lle_X__Z23convert_double3_sat_rtnDv3_s;
        lle_X__Z15convert_double3Dv3_s;
        lle_X__Z19convert_double3_satDv3_s;
        lle_X__Z19convert_double3_rteDv3_t;
        lle_X__Z23convert_double3_sat_rteDv3_t;
        lle_X__Z19convert_double3_rtzDv3_t;
        lle_X__Z23convert_double3_sat_rtzDv3_t;
        lle_X__Z19convert_double3_rtpDv3_t;
        lle_X__Z23convert_double3_sat_rtpDv3_t;
        lle_X__Z19convert_double3_rtnDv3_t;
        lle_X__Z23convert_double3_sat_rtnDv3_t;
        lle_X__Z15convert_double3Dv3_t;
        lle_X__Z19convert_double3_satDv3_t;
        lle_X__Z19convert_double3_rteDv3_i;
        lle_X__Z23convert_double3_sat_rteDv3_i;
        lle_X__Z19convert_double3_rtzDv3_i;
        lle_X__Z23convert_double3_sat_rtzDv3_i;
        lle_X__Z19convert_double3_rtpDv3_i;
        lle_X__Z23convert_double3_sat_rtpDv3_i;
        lle_X__Z19convert_double3_rtnDv3_i;
        lle_X__Z23convert_double3_sat_rtnDv3_i;
        lle_X__Z15convert_double3Dv3_i;
        lle_X__Z19convert_double3_satDv3_i;
        lle_X__Z19convert_double3_rteDv3_j;
        lle_X__Z23convert_double3_sat_rteDv3_j;
        lle_X__Z19convert_double3_rtzDv3_j;
        lle_X__Z23convert_double3_sat_rtzDv3_j;
        lle_X__Z19convert_double3_rtpDv3_j;
        lle_X__Z23convert_double3_sat_rtpDv3_j;
        lle_X__Z19convert_double3_rtnDv3_j;
        lle_X__Z23convert_double3_sat_rtnDv3_j;
        lle_X__Z15convert_double3Dv3_j;
        lle_X__Z19convert_double3_satDv3_j;
        lle_X__Z19convert_double3_rteDv3_l;
        lle_X__Z23convert_double3_sat_rteDv3_l;
        lle_X__Z19convert_double3_rtzDv3_l;
        lle_X__Z23convert_double3_sat_rtzDv3_l;
        lle_X__Z19convert_double3_rtpDv3_l;
        lle_X__Z23convert_double3_sat_rtpDv3_l;
        lle_X__Z19convert_double3_rtnDv3_l;
        lle_X__Z23convert_double3_sat_rtnDv3_l;
        lle_X__Z15convert_double3Dv3_l;
        lle_X__Z19convert_double3_satDv3_l;
        lle_X__Z19convert_double3_rteDv3_m;
        lle_X__Z23convert_double3_sat_rteDv3_m;
        lle_X__Z19convert_double3_rtzDv3_m;
        lle_X__Z23convert_double3_sat_rtzDv3_m;
        lle_X__Z19convert_double3_rtpDv3_m;
        lle_X__Z23convert_double3_sat_rtpDv3_m;
        lle_X__Z19convert_double3_rtnDv3_m;
        lle_X__Z23convert_double3_sat_rtnDv3_m;
        lle_X__Z15convert_double3Dv3_m;
        lle_X__Z19convert_double3_satDv3_m;
        lle_X__Z19convert_double3_rteDv3_f;
        lle_X__Z23convert_double3_sat_rteDv3_f;
        lle_X__Z19convert_double3_rtzDv3_f;
        lle_X__Z23convert_double3_sat_rtzDv3_f;
        lle_X__Z19convert_double3_rtpDv3_f;
        lle_X__Z23convert_double3_sat_rtpDv3_f;
        lle_X__Z19convert_double3_rtnDv3_f;
        lle_X__Z23convert_double3_sat_rtnDv3_f;
        lle_X__Z15convert_double3Dv3_f;
        lle_X__Z19convert_double3_satDv3_f;
        lle_X__Z19convert_double3_rteDv3_d;
        lle_X__Z23convert_double3_sat_rteDv3_d;
        lle_X__Z19convert_double3_rtzDv3_d;
        lle_X__Z23convert_double3_sat_rtzDv3_d;
        lle_X__Z19convert_double3_rtpDv3_d;
        lle_X__Z23convert_double3_sat_rtpDv3_d;
        lle_X__Z19convert_double3_rtnDv3_d;
        lle_X__Z23convert_double3_sat_rtnDv3_d;
        lle_X__Z15convert_double3Dv3_d;
        lle_X__Z19convert_double3_satDv3_d;
        lle_X__Z17convert_char4_rteDv4_c;
        lle_X__Z21convert_char4_sat_rteDv4_c;
        lle_X__Z17convert_char4_rtzDv4_c;
        lle_X__Z21convert_char4_sat_rtzDv4_c;
        lle_X__Z17convert_char4_rtpDv4_c;
        lle_X__Z21convert_char4_sat_rtpDv4_c;
        lle_X__Z17convert_char4_rtnDv4_c;
        lle_X__Z21convert_char4_sat_rtnDv4_c;
        lle_X__Z13convert_char4Dv4_c;
        lle_X__Z17convert_char4_satDv4_c;
        lle_X__Z17convert_char4_rteDv4_h;
        lle_X__Z21convert_char4_sat_rteDv4_h;
        lle_X__Z17convert_char4_rtzDv4_h;
        lle_X__Z21convert_char4_sat_rtzDv4_h;
        lle_X__Z17convert_char4_rtpDv4_h;
        lle_X__Z21convert_char4_sat_rtpDv4_h;
        lle_X__Z17convert_char4_rtnDv4_h;
        lle_X__Z21convert_char4_sat_rtnDv4_h;
        lle_X__Z13convert_char4Dv4_h;
        lle_X__Z17convert_char4_satDv4_h;
        lle_X__Z17convert_char4_rteDv4_s;
        lle_X__Z21convert_char4_sat_rteDv4_s;
        lle_X__Z17convert_char4_rtzDv4_s;
        lle_X__Z21convert_char4_sat_rtzDv4_s;
        lle_X__Z17convert_char4_rtpDv4_s;
        lle_X__Z21convert_char4_sat_rtpDv4_s;
        lle_X__Z17convert_char4_rtnDv4_s;
        lle_X__Z21convert_char4_sat_rtnDv4_s;
        lle_X__Z13convert_char4Dv4_s;
        lle_X__Z17convert_char4_satDv4_s;
        lle_X__Z17convert_char4_rteDv4_t;
        lle_X__Z21convert_char4_sat_rteDv4_t;
        lle_X__Z17convert_char4_rtzDv4_t;
        lle_X__Z21convert_char4_sat_rtzDv4_t;
        lle_X__Z17convert_char4_rtpDv4_t;
        lle_X__Z21convert_char4_sat_rtpDv4_t;
        lle_X__Z17convert_char4_rtnDv4_t;
        lle_X__Z21convert_char4_sat_rtnDv4_t;
        lle_X__Z13convert_char4Dv4_t;
        lle_X__Z17convert_char4_satDv4_t;
        lle_X__Z17convert_char4_rteDv4_i;
        lle_X__Z21convert_char4_sat_rteDv4_i;
        lle_X__Z17convert_char4_rtzDv4_i;
        lle_X__Z21convert_char4_sat_rtzDv4_i;
        lle_X__Z17convert_char4_rtpDv4_i;
        lle_X__Z21convert_char4_sat_rtpDv4_i;
        lle_X__Z17convert_char4_rtnDv4_i;
        lle_X__Z21convert_char4_sat_rtnDv4_i;
        lle_X__Z13convert_char4Dv4_i;
        lle_X__Z17convert_char4_satDv4_i;
        lle_X__Z17convert_char4_rteDv4_j;
        lle_X__Z21convert_char4_sat_rteDv4_j;
        lle_X__Z17convert_char4_rtzDv4_j;
        lle_X__Z21convert_char4_sat_rtzDv4_j;
        lle_X__Z17convert_char4_rtpDv4_j;
        lle_X__Z21convert_char4_sat_rtpDv4_j;
        lle_X__Z17convert_char4_rtnDv4_j;
        lle_X__Z21convert_char4_sat_rtnDv4_j;
        lle_X__Z13convert_char4Dv4_j;
        lle_X__Z17convert_char4_satDv4_j;
        lle_X__Z17convert_char4_rteDv4_l;
        lle_X__Z21convert_char4_sat_rteDv4_l;
        lle_X__Z17convert_char4_rtzDv4_l;
        lle_X__Z21convert_char4_sat_rtzDv4_l;
        lle_X__Z17convert_char4_rtpDv4_l;
        lle_X__Z21convert_char4_sat_rtpDv4_l;
        lle_X__Z17convert_char4_rtnDv4_l;
        lle_X__Z21convert_char4_sat_rtnDv4_l;
        lle_X__Z13convert_char4Dv4_l;
        lle_X__Z17convert_char4_satDv4_l;
        lle_X__Z17convert_char4_rteDv4_m;
        lle_X__Z21convert_char4_sat_rteDv4_m;
        lle_X__Z17convert_char4_rtzDv4_m;
        lle_X__Z21convert_char4_sat_rtzDv4_m;
        lle_X__Z17convert_char4_rtpDv4_m;
        lle_X__Z21convert_char4_sat_rtpDv4_m;
        lle_X__Z17convert_char4_rtnDv4_m;
        lle_X__Z21convert_char4_sat_rtnDv4_m;
        lle_X__Z13convert_char4Dv4_m;
        lle_X__Z17convert_char4_satDv4_m;
        lle_X__Z17convert_char4_rteDv4_f;
        lle_X__Z21convert_char4_sat_rteDv4_f;
        lle_X__Z17convert_char4_rtzDv4_f;
        lle_X__Z21convert_char4_sat_rtzDv4_f;
        lle_X__Z17convert_char4_rtpDv4_f;
        lle_X__Z21convert_char4_sat_rtpDv4_f;
        lle_X__Z17convert_char4_rtnDv4_f;
        lle_X__Z21convert_char4_sat_rtnDv4_f;
        lle_X__Z13convert_char4Dv4_f;
        lle_X__Z17convert_char4_satDv4_f;
        lle_X__Z17convert_char4_rteDv4_d;
        lle_X__Z21convert_char4_sat_rteDv4_d;
        lle_X__Z17convert_char4_rtzDv4_d;
        lle_X__Z21convert_char4_sat_rtzDv4_d;
        lle_X__Z17convert_char4_rtpDv4_d;
        lle_X__Z21convert_char4_sat_rtpDv4_d;
        lle_X__Z17convert_char4_rtnDv4_d;
        lle_X__Z21convert_char4_sat_rtnDv4_d;
        lle_X__Z13convert_char4Dv4_d;
        lle_X__Z17convert_char4_satDv4_d;
        lle_X__Z18convert_uchar4_rteDv4_c;
        lle_X__Z22convert_uchar4_sat_rteDv4_c;
        lle_X__Z18convert_uchar4_rtzDv4_c;
        lle_X__Z22convert_uchar4_sat_rtzDv4_c;
        lle_X__Z18convert_uchar4_rtpDv4_c;
        lle_X__Z22convert_uchar4_sat_rtpDv4_c;
        lle_X__Z18convert_uchar4_rtnDv4_c;
        lle_X__Z22convert_uchar4_sat_rtnDv4_c;
        lle_X__Z14convert_uchar4Dv4_c;
        lle_X__Z18convert_uchar4_satDv4_c;
        lle_X__Z18convert_uchar4_rteDv4_h;
        lle_X__Z22convert_uchar4_sat_rteDv4_h;
        lle_X__Z18convert_uchar4_rtzDv4_h;
        lle_X__Z22convert_uchar4_sat_rtzDv4_h;
        lle_X__Z18convert_uchar4_rtpDv4_h;
        lle_X__Z22convert_uchar4_sat_rtpDv4_h;
        lle_X__Z18convert_uchar4_rtnDv4_h;
        lle_X__Z22convert_uchar4_sat_rtnDv4_h;
        lle_X__Z14convert_uchar4Dv4_h;
        lle_X__Z18convert_uchar4_satDv4_h;
        lle_X__Z18convert_uchar4_rteDv4_s;
        lle_X__Z22convert_uchar4_sat_rteDv4_s;
        lle_X__Z18convert_uchar4_rtzDv4_s;
        lle_X__Z22convert_uchar4_sat_rtzDv4_s;
        lle_X__Z18convert_uchar4_rtpDv4_s;
        lle_X__Z22convert_uchar4_sat_rtpDv4_s;
        lle_X__Z18convert_uchar4_rtnDv4_s;
        lle_X__Z22convert_uchar4_sat_rtnDv4_s;
        lle_X__Z14convert_uchar4Dv4_s;
        lle_X__Z18convert_uchar4_satDv4_s;
        lle_X__Z18convert_uchar4_rteDv4_t;
        lle_X__Z22convert_uchar4_sat_rteDv4_t;
        lle_X__Z18convert_uchar4_rtzDv4_t;
        lle_X__Z22convert_uchar4_sat_rtzDv4_t;
        lle_X__Z18convert_uchar4_rtpDv4_t;
        lle_X__Z22convert_uchar4_sat_rtpDv4_t;
        lle_X__Z18convert_uchar4_rtnDv4_t;
        lle_X__Z22convert_uchar4_sat_rtnDv4_t;
        lle_X__Z14convert_uchar4Dv4_t;
        lle_X__Z18convert_uchar4_satDv4_t;
        lle_X__Z18convert_uchar4_rteDv4_i;
        lle_X__Z22convert_uchar4_sat_rteDv4_i;
        lle_X__Z18convert_uchar4_rtzDv4_i;
        lle_X__Z22convert_uchar4_sat_rtzDv4_i;
        lle_X__Z18convert_uchar4_rtpDv4_i;
        lle_X__Z22convert_uchar4_sat_rtpDv4_i;
        lle_X__Z18convert_uchar4_rtnDv4_i;
        lle_X__Z22convert_uchar4_sat_rtnDv4_i;
        lle_X__Z14convert_uchar4Dv4_i;
        lle_X__Z18convert_uchar4_satDv4_i;
        lle_X__Z18convert_uchar4_rteDv4_j;
        lle_X__Z22convert_uchar4_sat_rteDv4_j;
        lle_X__Z18convert_uchar4_rtzDv4_j;
        lle_X__Z22convert_uchar4_sat_rtzDv4_j;
        lle_X__Z18convert_uchar4_rtpDv4_j;
        lle_X__Z22convert_uchar4_sat_rtpDv4_j;
        lle_X__Z18convert_uchar4_rtnDv4_j;
        lle_X__Z22convert_uchar4_sat_rtnDv4_j;
        lle_X__Z14convert_uchar4Dv4_j;
        lle_X__Z18convert_uchar4_satDv4_j;
        lle_X__Z18convert_uchar4_rteDv4_l;
        lle_X__Z22convert_uchar4_sat_rteDv4_l;
        lle_X__Z18convert_uchar4_rtzDv4_l;
        lle_X__Z22convert_uchar4_sat_rtzDv4_l;
        lle_X__Z18convert_uchar4_rtpDv4_l;
        lle_X__Z22convert_uchar4_sat_rtpDv4_l;
        lle_X__Z18convert_uchar4_rtnDv4_l;
        lle_X__Z22convert_uchar4_sat_rtnDv4_l;
        lle_X__Z14convert_uchar4Dv4_l;
        lle_X__Z18convert_uchar4_satDv4_l;
        lle_X__Z18convert_uchar4_rteDv4_m;
        lle_X__Z22convert_uchar4_sat_rteDv4_m;
        lle_X__Z18convert_uchar4_rtzDv4_m;
        lle_X__Z22convert_uchar4_sat_rtzDv4_m;
        lle_X__Z18convert_uchar4_rtpDv4_m;
        lle_X__Z22convert_uchar4_sat_rtpDv4_m;
        lle_X__Z18convert_uchar4_rtnDv4_m;
        lle_X__Z22convert_uchar4_sat_rtnDv4_m;
        lle_X__Z14convert_uchar4Dv4_m;
        lle_X__Z18convert_uchar4_satDv4_m;
        lle_X__Z18convert_uchar4_rteDv4_f;
        lle_X__Z22convert_uchar4_sat_rteDv4_f;
        lle_X__Z18convert_uchar4_rtzDv4_f;
        lle_X__Z22convert_uchar4_sat_rtzDv4_f;
        lle_X__Z18convert_uchar4_rtpDv4_f;
        lle_X__Z22convert_uchar4_sat_rtpDv4_f;
        lle_X__Z18convert_uchar4_rtnDv4_f;
        lle_X__Z22convert_uchar4_sat_rtnDv4_f;
        lle_X__Z14convert_uchar4Dv4_f;
        lle_X__Z18convert_uchar4_satDv4_f;
        lle_X__Z18convert_uchar4_rteDv4_d;
        lle_X__Z22convert_uchar4_sat_rteDv4_d;
        lle_X__Z18convert_uchar4_rtzDv4_d;
        lle_X__Z22convert_uchar4_sat_rtzDv4_d;
        lle_X__Z18convert_uchar4_rtpDv4_d;
        lle_X__Z22convert_uchar4_sat_rtpDv4_d;
        lle_X__Z18convert_uchar4_rtnDv4_d;
        lle_X__Z22convert_uchar4_sat_rtnDv4_d;
        lle_X__Z14convert_uchar4Dv4_d;
        lle_X__Z18convert_uchar4_satDv4_d;
        lle_X__Z18convert_short4_rteDv4_c;
        lle_X__Z22convert_short4_sat_rteDv4_c;
        lle_X__Z18convert_short4_rtzDv4_c;
        lle_X__Z22convert_short4_sat_rtzDv4_c;
        lle_X__Z18convert_short4_rtpDv4_c;
        lle_X__Z22convert_short4_sat_rtpDv4_c;
        lle_X__Z18convert_short4_rtnDv4_c;
        lle_X__Z22convert_short4_sat_rtnDv4_c;
        lle_X__Z14convert_short4Dv4_c;
        lle_X__Z18convert_short4_satDv4_c;
        lle_X__Z18convert_short4_rteDv4_h;
        lle_X__Z22convert_short4_sat_rteDv4_h;
        lle_X__Z18convert_short4_rtzDv4_h;
        lle_X__Z22convert_short4_sat_rtzDv4_h;
        lle_X__Z18convert_short4_rtpDv4_h;
        lle_X__Z22convert_short4_sat_rtpDv4_h;
        lle_X__Z18convert_short4_rtnDv4_h;
        lle_X__Z22convert_short4_sat_rtnDv4_h;
        lle_X__Z14convert_short4Dv4_h;
        lle_X__Z18convert_short4_satDv4_h;
        lle_X__Z18convert_short4_rteDv4_s;
        lle_X__Z22convert_short4_sat_rteDv4_s;
        lle_X__Z18convert_short4_rtzDv4_s;
        lle_X__Z22convert_short4_sat_rtzDv4_s;
        lle_X__Z18convert_short4_rtpDv4_s;
        lle_X__Z22convert_short4_sat_rtpDv4_s;
        lle_X__Z18convert_short4_rtnDv4_s;
        lle_X__Z22convert_short4_sat_rtnDv4_s;
        lle_X__Z14convert_short4Dv4_s;
        lle_X__Z18convert_short4_satDv4_s;
        lle_X__Z18convert_short4_rteDv4_t;
        lle_X__Z22convert_short4_sat_rteDv4_t;
        lle_X__Z18convert_short4_rtzDv4_t;
        lle_X__Z22convert_short4_sat_rtzDv4_t;
        lle_X__Z18convert_short4_rtpDv4_t;
        lle_X__Z22convert_short4_sat_rtpDv4_t;
        lle_X__Z18convert_short4_rtnDv4_t;
        lle_X__Z22convert_short4_sat_rtnDv4_t;
        lle_X__Z14convert_short4Dv4_t;
        lle_X__Z18convert_short4_satDv4_t;
        lle_X__Z18convert_short4_rteDv4_i;
        lle_X__Z22convert_short4_sat_rteDv4_i;
        lle_X__Z18convert_short4_rtzDv4_i;
        lle_X__Z22convert_short4_sat_rtzDv4_i;
        lle_X__Z18convert_short4_rtpDv4_i;
        lle_X__Z22convert_short4_sat_rtpDv4_i;
        lle_X__Z18convert_short4_rtnDv4_i;
        lle_X__Z22convert_short4_sat_rtnDv4_i;
        lle_X__Z14convert_short4Dv4_i;
        lle_X__Z18convert_short4_satDv4_i;
        lle_X__Z18convert_short4_rteDv4_j;
        lle_X__Z22convert_short4_sat_rteDv4_j;
        lle_X__Z18convert_short4_rtzDv4_j;
        lle_X__Z22convert_short4_sat_rtzDv4_j;
        lle_X__Z18convert_short4_rtpDv4_j;
        lle_X__Z22convert_short4_sat_rtpDv4_j;
        lle_X__Z18convert_short4_rtnDv4_j;
        lle_X__Z22convert_short4_sat_rtnDv4_j;
        lle_X__Z14convert_short4Dv4_j;
        lle_X__Z18convert_short4_satDv4_j;
        lle_X__Z18convert_short4_rteDv4_l;
        lle_X__Z22convert_short4_sat_rteDv4_l;
        lle_X__Z18convert_short4_rtzDv4_l;
        lle_X__Z22convert_short4_sat_rtzDv4_l;
        lle_X__Z18convert_short4_rtpDv4_l;
        lle_X__Z22convert_short4_sat_rtpDv4_l;
        lle_X__Z18convert_short4_rtnDv4_l;
        lle_X__Z22convert_short4_sat_rtnDv4_l;
        lle_X__Z14convert_short4Dv4_l;
        lle_X__Z18convert_short4_satDv4_l;
        lle_X__Z18convert_short4_rteDv4_m;
        lle_X__Z22convert_short4_sat_rteDv4_m;
        lle_X__Z18convert_short4_rtzDv4_m;
        lle_X__Z22convert_short4_sat_rtzDv4_m;
        lle_X__Z18convert_short4_rtpDv4_m;
        lle_X__Z22convert_short4_sat_rtpDv4_m;
        lle_X__Z18convert_short4_rtnDv4_m;
        lle_X__Z22convert_short4_sat_rtnDv4_m;
        lle_X__Z14convert_short4Dv4_m;
        lle_X__Z18convert_short4_satDv4_m;
        lle_X__Z18convert_short4_rteDv4_f;
        lle_X__Z22convert_short4_sat_rteDv4_f;
        lle_X__Z18convert_short4_rtzDv4_f;
        lle_X__Z22convert_short4_sat_rtzDv4_f;
        lle_X__Z18convert_short4_rtpDv4_f;
        lle_X__Z22convert_short4_sat_rtpDv4_f;
        lle_X__Z18convert_short4_rtnDv4_f;
        lle_X__Z22convert_short4_sat_rtnDv4_f;
        lle_X__Z14convert_short4Dv4_f;
        lle_X__Z18convert_short4_satDv4_f;
        lle_X__Z18convert_short4_rteDv4_d;
        lle_X__Z22convert_short4_sat_rteDv4_d;
        lle_X__Z18convert_short4_rtzDv4_d;
        lle_X__Z22convert_short4_sat_rtzDv4_d;
        lle_X__Z18convert_short4_rtpDv4_d;
        lle_X__Z22convert_short4_sat_rtpDv4_d;
        lle_X__Z18convert_short4_rtnDv4_d;
        lle_X__Z22convert_short4_sat_rtnDv4_d;
        lle_X__Z14convert_short4Dv4_d;
        lle_X__Z18convert_short4_satDv4_d;
        lle_X__Z19convert_ushort4_rteDv4_c;
        lle_X__Z23convert_ushort4_sat_rteDv4_c;
        lle_X__Z19convert_ushort4_rtzDv4_c;
        lle_X__Z23convert_ushort4_sat_rtzDv4_c;
        lle_X__Z19convert_ushort4_rtpDv4_c;
        lle_X__Z23convert_ushort4_sat_rtpDv4_c;
        lle_X__Z19convert_ushort4_rtnDv4_c;
        lle_X__Z23convert_ushort4_sat_rtnDv4_c;
        lle_X__Z15convert_ushort4Dv4_c;
        lle_X__Z19convert_ushort4_satDv4_c;
        lle_X__Z19convert_ushort4_rteDv4_h;
        lle_X__Z23convert_ushort4_sat_rteDv4_h;
        lle_X__Z19convert_ushort4_rtzDv4_h;
        lle_X__Z23convert_ushort4_sat_rtzDv4_h;
        lle_X__Z19convert_ushort4_rtpDv4_h;
        lle_X__Z23convert_ushort4_sat_rtpDv4_h;
        lle_X__Z19convert_ushort4_rtnDv4_h;
        lle_X__Z23convert_ushort4_sat_rtnDv4_h;
        lle_X__Z15convert_ushort4Dv4_h;
        lle_X__Z19convert_ushort4_satDv4_h;
        lle_X__Z19convert_ushort4_rteDv4_s;
        lle_X__Z23convert_ushort4_sat_rteDv4_s;
        lle_X__Z19convert_ushort4_rtzDv4_s;
        lle_X__Z23convert_ushort4_sat_rtzDv4_s;
        lle_X__Z19convert_ushort4_rtpDv4_s;
        lle_X__Z23convert_ushort4_sat_rtpDv4_s;
        lle_X__Z19convert_ushort4_rtnDv4_s;
        lle_X__Z23convert_ushort4_sat_rtnDv4_s;
        lle_X__Z15convert_ushort4Dv4_s;
        lle_X__Z19convert_ushort4_satDv4_s;
        lle_X__Z19convert_ushort4_rteDv4_t;
        lle_X__Z23convert_ushort4_sat_rteDv4_t;
        lle_X__Z19convert_ushort4_rtzDv4_t;
        lle_X__Z23convert_ushort4_sat_rtzDv4_t;
        lle_X__Z19convert_ushort4_rtpDv4_t;
        lle_X__Z23convert_ushort4_sat_rtpDv4_t;
        lle_X__Z19convert_ushort4_rtnDv4_t;
        lle_X__Z23convert_ushort4_sat_rtnDv4_t;
        lle_X__Z15convert_ushort4Dv4_t;
        lle_X__Z19convert_ushort4_satDv4_t;
        lle_X__Z19convert_ushort4_rteDv4_i;
        lle_X__Z23convert_ushort4_sat_rteDv4_i;
        lle_X__Z19convert_ushort4_rtzDv4_i;
        lle_X__Z23convert_ushort4_sat_rtzDv4_i;
        lle_X__Z19convert_ushort4_rtpDv4_i;
        lle_X__Z23convert_ushort4_sat_rtpDv4_i;
        lle_X__Z19convert_ushort4_rtnDv4_i;
        lle_X__Z23convert_ushort4_sat_rtnDv4_i;
        lle_X__Z15convert_ushort4Dv4_i;
        lle_X__Z19convert_ushort4_satDv4_i;
        lle_X__Z19convert_ushort4_rteDv4_j;
        lle_X__Z23convert_ushort4_sat_rteDv4_j;
        lle_X__Z19convert_ushort4_rtzDv4_j;
        lle_X__Z23convert_ushort4_sat_rtzDv4_j;
        lle_X__Z19convert_ushort4_rtpDv4_j;
        lle_X__Z23convert_ushort4_sat_rtpDv4_j;
        lle_X__Z19convert_ushort4_rtnDv4_j;
        lle_X__Z23convert_ushort4_sat_rtnDv4_j;
        lle_X__Z15convert_ushort4Dv4_j;
        lle_X__Z19convert_ushort4_satDv4_j;
        lle_X__Z19convert_ushort4_rteDv4_l;
        lle_X__Z23convert_ushort4_sat_rteDv4_l;
        lle_X__Z19convert_ushort4_rtzDv4_l;
        lle_X__Z23convert_ushort4_sat_rtzDv4_l;
        lle_X__Z19convert_ushort4_rtpDv4_l;
        lle_X__Z23convert_ushort4_sat_rtpDv4_l;
        lle_X__Z19convert_ushort4_rtnDv4_l;
        lle_X__Z23convert_ushort4_sat_rtnDv4_l;
        lle_X__Z15convert_ushort4Dv4_l;
        lle_X__Z19convert_ushort4_satDv4_l;
        lle_X__Z19convert_ushort4_rteDv4_m;
        lle_X__Z23convert_ushort4_sat_rteDv4_m;
        lle_X__Z19convert_ushort4_rtzDv4_m;
        lle_X__Z23convert_ushort4_sat_rtzDv4_m;
        lle_X__Z19convert_ushort4_rtpDv4_m;
        lle_X__Z23convert_ushort4_sat_rtpDv4_m;
        lle_X__Z19convert_ushort4_rtnDv4_m;
        lle_X__Z23convert_ushort4_sat_rtnDv4_m;
        lle_X__Z15convert_ushort4Dv4_m;
        lle_X__Z19convert_ushort4_satDv4_m;
        lle_X__Z19convert_ushort4_rteDv4_f;
        lle_X__Z23convert_ushort4_sat_rteDv4_f;
        lle_X__Z19convert_ushort4_rtzDv4_f;
        lle_X__Z23convert_ushort4_sat_rtzDv4_f;
        lle_X__Z19convert_ushort4_rtpDv4_f;
        lle_X__Z23convert_ushort4_sat_rtpDv4_f;
        lle_X__Z19convert_ushort4_rtnDv4_f;
        lle_X__Z23convert_ushort4_sat_rtnDv4_f;
        lle_X__Z15convert_ushort4Dv4_f;
        lle_X__Z19convert_ushort4_satDv4_f;
        lle_X__Z19convert_ushort4_rteDv4_d;
        lle_X__Z23convert_ushort4_sat_rteDv4_d;
        lle_X__Z19convert_ushort4_rtzDv4_d;
        lle_X__Z23convert_ushort4_sat_rtzDv4_d;
        lle_X__Z19convert_ushort4_rtpDv4_d;
        lle_X__Z23convert_ushort4_sat_rtpDv4_d;
        lle_X__Z19convert_ushort4_rtnDv4_d;
        lle_X__Z23convert_ushort4_sat_rtnDv4_d;
        lle_X__Z15convert_ushort4Dv4_d;
        lle_X__Z19convert_ushort4_satDv4_d;
        lle_X__Z16convert_int4_rteDv4_c;
        lle_X__Z20convert_int4_sat_rteDv4_c;
        lle_X__Z16convert_int4_rtzDv4_c;
        lle_X__Z20convert_int4_sat_rtzDv4_c;
        lle_X__Z16convert_int4_rtpDv4_c;
        lle_X__Z20convert_int4_sat_rtpDv4_c;
        lle_X__Z16convert_int4_rtnDv4_c;
        lle_X__Z20convert_int4_sat_rtnDv4_c;
        lle_X__Z12convert_int4Dv4_c;
        lle_X__Z16convert_int4_satDv4_c;
        lle_X__Z16convert_int4_rteDv4_h;
        lle_X__Z20convert_int4_sat_rteDv4_h;
        lle_X__Z16convert_int4_rtzDv4_h;
        lle_X__Z20convert_int4_sat_rtzDv4_h;
        lle_X__Z16convert_int4_rtpDv4_h;
        lle_X__Z20convert_int4_sat_rtpDv4_h;
        lle_X__Z16convert_int4_rtnDv4_h;
        lle_X__Z20convert_int4_sat_rtnDv4_h;
        lle_X__Z12convert_int4Dv4_h;
        lle_X__Z16convert_int4_satDv4_h;
        lle_X__Z16convert_int4_rteDv4_s;
        lle_X__Z20convert_int4_sat_rteDv4_s;
        lle_X__Z16convert_int4_rtzDv4_s;
        lle_X__Z20convert_int4_sat_rtzDv4_s;
        lle_X__Z16convert_int4_rtpDv4_s;
        lle_X__Z20convert_int4_sat_rtpDv4_s;
        lle_X__Z16convert_int4_rtnDv4_s;
        lle_X__Z20convert_int4_sat_rtnDv4_s;
        lle_X__Z12convert_int4Dv4_s;
        lle_X__Z16convert_int4_satDv4_s;
        lle_X__Z16convert_int4_rteDv4_t;
        lle_X__Z20convert_int4_sat_rteDv4_t;
        lle_X__Z16convert_int4_rtzDv4_t;
        lle_X__Z20convert_int4_sat_rtzDv4_t;
        lle_X__Z16convert_int4_rtpDv4_t;
        lle_X__Z20convert_int4_sat_rtpDv4_t;
        lle_X__Z16convert_int4_rtnDv4_t;
        lle_X__Z20convert_int4_sat_rtnDv4_t;
        lle_X__Z12convert_int4Dv4_t;
        lle_X__Z16convert_int4_satDv4_t;
        lle_X__Z16convert_int4_rteDv4_i;
        lle_X__Z20convert_int4_sat_rteDv4_i;
        lle_X__Z16convert_int4_rtzDv4_i;
        lle_X__Z20convert_int4_sat_rtzDv4_i;
        lle_X__Z16convert_int4_rtpDv4_i;
        lle_X__Z20convert_int4_sat_rtpDv4_i;
        lle_X__Z16convert_int4_rtnDv4_i;
        lle_X__Z20convert_int4_sat_rtnDv4_i;
        lle_X__Z12convert_int4Dv4_i;
        lle_X__Z16convert_int4_satDv4_i;
        lle_X__Z16convert_int4_rteDv4_j;
        lle_X__Z20convert_int4_sat_rteDv4_j;
        lle_X__Z16convert_int4_rtzDv4_j;
        lle_X__Z20convert_int4_sat_rtzDv4_j;
        lle_X__Z16convert_int4_rtpDv4_j;
        lle_X__Z20convert_int4_sat_rtpDv4_j;
        lle_X__Z16convert_int4_rtnDv4_j;
        lle_X__Z20convert_int4_sat_rtnDv4_j;
        lle_X__Z12convert_int4Dv4_j;
        lle_X__Z16convert_int4_satDv4_j;
        lle_X__Z16convert_int4_rteDv4_l;
        lle_X__Z20convert_int4_sat_rteDv4_l;
        lle_X__Z16convert_int4_rtzDv4_l;
        lle_X__Z20convert_int4_sat_rtzDv4_l;
        lle_X__Z16convert_int4_rtpDv4_l;
        lle_X__Z20convert_int4_sat_rtpDv4_l;
        lle_X__Z16convert_int4_rtnDv4_l;
        lle_X__Z20convert_int4_sat_rtnDv4_l;
        lle_X__Z12convert_int4Dv4_l;
        lle_X__Z16convert_int4_satDv4_l;
        lle_X__Z16convert_int4_rteDv4_m;
        lle_X__Z20convert_int4_sat_rteDv4_m;
        lle_X__Z16convert_int4_rtzDv4_m;
        lle_X__Z20convert_int4_sat_rtzDv4_m;
        lle_X__Z16convert_int4_rtpDv4_m;
        lle_X__Z20convert_int4_sat_rtpDv4_m;
        lle_X__Z16convert_int4_rtnDv4_m;
        lle_X__Z20convert_int4_sat_rtnDv4_m;
        lle_X__Z12convert_int4Dv4_m;
        lle_X__Z16convert_int4_satDv4_m;
        lle_X__Z16convert_int4_rteDv4_f;
        lle_X__Z20convert_int4_sat_rteDv4_f;
        lle_X__Z16convert_int4_rtzDv4_f;
        lle_X__Z20convert_int4_sat_rtzDv4_f;
        lle_X__Z16convert_int4_rtpDv4_f;
        lle_X__Z20convert_int4_sat_rtpDv4_f;
        lle_X__Z16convert_int4_rtnDv4_f;
        lle_X__Z20convert_int4_sat_rtnDv4_f;
        lle_X__Z12convert_int4Dv4_f;
        lle_X__Z16convert_int4_satDv4_f;
        lle_X__Z16convert_int4_rteDv4_d;
        lle_X__Z20convert_int4_sat_rteDv4_d;
        lle_X__Z16convert_int4_rtzDv4_d;
        lle_X__Z20convert_int4_sat_rtzDv4_d;
        lle_X__Z16convert_int4_rtpDv4_d;
        lle_X__Z20convert_int4_sat_rtpDv4_d;
        lle_X__Z16convert_int4_rtnDv4_d;
        lle_X__Z20convert_int4_sat_rtnDv4_d;
        lle_X__Z12convert_int4Dv4_d;
        lle_X__Z16convert_int4_satDv4_d;
        lle_X__Z17convert_uint4_rteDv4_c;
        lle_X__Z21convert_uint4_sat_rteDv4_c;
        lle_X__Z17convert_uint4_rtzDv4_c;
        lle_X__Z21convert_uint4_sat_rtzDv4_c;
        lle_X__Z17convert_uint4_rtpDv4_c;
        lle_X__Z21convert_uint4_sat_rtpDv4_c;
        lle_X__Z17convert_uint4_rtnDv4_c;
        lle_X__Z21convert_uint4_sat_rtnDv4_c;
        lle_X__Z13convert_uint4Dv4_c;
        lle_X__Z17convert_uint4_satDv4_c;
        lle_X__Z17convert_uint4_rteDv4_h;
        lle_X__Z21convert_uint4_sat_rteDv4_h;
        lle_X__Z17convert_uint4_rtzDv4_h;
        lle_X__Z21convert_uint4_sat_rtzDv4_h;
        lle_X__Z17convert_uint4_rtpDv4_h;
        lle_X__Z21convert_uint4_sat_rtpDv4_h;
        lle_X__Z17convert_uint4_rtnDv4_h;
        lle_X__Z21convert_uint4_sat_rtnDv4_h;
        lle_X__Z13convert_uint4Dv4_h;
        lle_X__Z17convert_uint4_satDv4_h;
        lle_X__Z17convert_uint4_rteDv4_s;
        lle_X__Z21convert_uint4_sat_rteDv4_s;
        lle_X__Z17convert_uint4_rtzDv4_s;
        lle_X__Z21convert_uint4_sat_rtzDv4_s;
        lle_X__Z17convert_uint4_rtpDv4_s;
        lle_X__Z21convert_uint4_sat_rtpDv4_s;
        lle_X__Z17convert_uint4_rtnDv4_s;
        lle_X__Z21convert_uint4_sat_rtnDv4_s;
        lle_X__Z13convert_uint4Dv4_s;
        lle_X__Z17convert_uint4_satDv4_s;
        lle_X__Z17convert_uint4_rteDv4_t;
        lle_X__Z21convert_uint4_sat_rteDv4_t;
        lle_X__Z17convert_uint4_rtzDv4_t;
        lle_X__Z21convert_uint4_sat_rtzDv4_t;
        lle_X__Z17convert_uint4_rtpDv4_t;
        lle_X__Z21convert_uint4_sat_rtpDv4_t;
        lle_X__Z17convert_uint4_rtnDv4_t;
        lle_X__Z21convert_uint4_sat_rtnDv4_t;
        lle_X__Z13convert_uint4Dv4_t;
        lle_X__Z17convert_uint4_satDv4_t;
        lle_X__Z17convert_uint4_rteDv4_i;
        lle_X__Z21convert_uint4_sat_rteDv4_i;
        lle_X__Z17convert_uint4_rtzDv4_i;
        lle_X__Z21convert_uint4_sat_rtzDv4_i;
        lle_X__Z17convert_uint4_rtpDv4_i;
        lle_X__Z21convert_uint4_sat_rtpDv4_i;
        lle_X__Z17convert_uint4_rtnDv4_i;
        lle_X__Z21convert_uint4_sat_rtnDv4_i;
        lle_X__Z13convert_uint4Dv4_i;
        lle_X__Z17convert_uint4_satDv4_i;
        lle_X__Z17convert_uint4_rteDv4_j;
        lle_X__Z21convert_uint4_sat_rteDv4_j;
        lle_X__Z17convert_uint4_rtzDv4_j;
        lle_X__Z21convert_uint4_sat_rtzDv4_j;
        lle_X__Z17convert_uint4_rtpDv4_j;
        lle_X__Z21convert_uint4_sat_rtpDv4_j;
        lle_X__Z17convert_uint4_rtnDv4_j;
        lle_X__Z21convert_uint4_sat_rtnDv4_j;
        lle_X__Z13convert_uint4Dv4_j;
        lle_X__Z17convert_uint4_satDv4_j;
        lle_X__Z17convert_uint4_rteDv4_l;
        lle_X__Z21convert_uint4_sat_rteDv4_l;
        lle_X__Z17convert_uint4_rtzDv4_l;
        lle_X__Z21convert_uint4_sat_rtzDv4_l;
        lle_X__Z17convert_uint4_rtpDv4_l;
        lle_X__Z21convert_uint4_sat_rtpDv4_l;
        lle_X__Z17convert_uint4_rtnDv4_l;
        lle_X__Z21convert_uint4_sat_rtnDv4_l;
        lle_X__Z13convert_uint4Dv4_l;
        lle_X__Z17convert_uint4_satDv4_l;
        lle_X__Z17convert_uint4_rteDv4_m;
        lle_X__Z21convert_uint4_sat_rteDv4_m;
        lle_X__Z17convert_uint4_rtzDv4_m;
        lle_X__Z21convert_uint4_sat_rtzDv4_m;
        lle_X__Z17convert_uint4_rtpDv4_m;
        lle_X__Z21convert_uint4_sat_rtpDv4_m;
        lle_X__Z17convert_uint4_rtnDv4_m;
        lle_X__Z21convert_uint4_sat_rtnDv4_m;
        lle_X__Z13convert_uint4Dv4_m;
        lle_X__Z17convert_uint4_satDv4_m;
        lle_X__Z17convert_uint4_rteDv4_f;
        lle_X__Z21convert_uint4_sat_rteDv4_f;
        lle_X__Z17convert_uint4_rtzDv4_f;
        lle_X__Z21convert_uint4_sat_rtzDv4_f;
        lle_X__Z17convert_uint4_rtpDv4_f;
        lle_X__Z21convert_uint4_sat_rtpDv4_f;
        lle_X__Z17convert_uint4_rtnDv4_f;
        lle_X__Z21convert_uint4_sat_rtnDv4_f;
        lle_X__Z13convert_uint4Dv4_f;
        lle_X__Z17convert_uint4_satDv4_f;
        lle_X__Z17convert_uint4_rteDv4_d;
        lle_X__Z21convert_uint4_sat_rteDv4_d;
        lle_X__Z17convert_uint4_rtzDv4_d;
        lle_X__Z21convert_uint4_sat_rtzDv4_d;
        lle_X__Z17convert_uint4_rtpDv4_d;
        lle_X__Z21convert_uint4_sat_rtpDv4_d;
        lle_X__Z17convert_uint4_rtnDv4_d;
        lle_X__Z21convert_uint4_sat_rtnDv4_d;
        lle_X__Z13convert_uint4Dv4_d;
        lle_X__Z17convert_uint4_satDv4_d;
        lle_X__Z17convert_long4_rteDv4_c;
        lle_X__Z21convert_long4_sat_rteDv4_c;
        lle_X__Z17convert_long4_rtzDv4_c;
        lle_X__Z21convert_long4_sat_rtzDv4_c;
        lle_X__Z17convert_long4_rtpDv4_c;
        lle_X__Z21convert_long4_sat_rtpDv4_c;
        lle_X__Z17convert_long4_rtnDv4_c;
        lle_X__Z21convert_long4_sat_rtnDv4_c;
        lle_X__Z13convert_long4Dv4_c;
        lle_X__Z17convert_long4_satDv4_c;
        lle_X__Z17convert_long4_rteDv4_h;
        lle_X__Z21convert_long4_sat_rteDv4_h;
        lle_X__Z17convert_long4_rtzDv4_h;
        lle_X__Z21convert_long4_sat_rtzDv4_h;
        lle_X__Z17convert_long4_rtpDv4_h;
        lle_X__Z21convert_long4_sat_rtpDv4_h;
        lle_X__Z17convert_long4_rtnDv4_h;
        lle_X__Z21convert_long4_sat_rtnDv4_h;
        lle_X__Z13convert_long4Dv4_h;
        lle_X__Z17convert_long4_satDv4_h;
        lle_X__Z17convert_long4_rteDv4_s;
        lle_X__Z21convert_long4_sat_rteDv4_s;
        lle_X__Z17convert_long4_rtzDv4_s;
        lle_X__Z21convert_long4_sat_rtzDv4_s;
        lle_X__Z17convert_long4_rtpDv4_s;
        lle_X__Z21convert_long4_sat_rtpDv4_s;
        lle_X__Z17convert_long4_rtnDv4_s;
        lle_X__Z21convert_long4_sat_rtnDv4_s;
        lle_X__Z13convert_long4Dv4_s;
        lle_X__Z17convert_long4_satDv4_s;
        lle_X__Z17convert_long4_rteDv4_t;
        lle_X__Z21convert_long4_sat_rteDv4_t;
        lle_X__Z17convert_long4_rtzDv4_t;
        lle_X__Z21convert_long4_sat_rtzDv4_t;
        lle_X__Z17convert_long4_rtpDv4_t;
        lle_X__Z21convert_long4_sat_rtpDv4_t;
        lle_X__Z17convert_long4_rtnDv4_t;
        lle_X__Z21convert_long4_sat_rtnDv4_t;
        lle_X__Z13convert_long4Dv4_t;
        lle_X__Z17convert_long4_satDv4_t;
        lle_X__Z17convert_long4_rteDv4_i;
        lle_X__Z21convert_long4_sat_rteDv4_i;
        lle_X__Z17convert_long4_rtzDv4_i;
        lle_X__Z21convert_long4_sat_rtzDv4_i;
        lle_X__Z17convert_long4_rtpDv4_i;
        lle_X__Z21convert_long4_sat_rtpDv4_i;
        lle_X__Z17convert_long4_rtnDv4_i;
        lle_X__Z21convert_long4_sat_rtnDv4_i;
        lle_X__Z13convert_long4Dv4_i;
        lle_X__Z17convert_long4_satDv4_i;
        lle_X__Z17convert_long4_rteDv4_j;
        lle_X__Z21convert_long4_sat_rteDv4_j;
        lle_X__Z17convert_long4_rtzDv4_j;
        lle_X__Z21convert_long4_sat_rtzDv4_j;
        lle_X__Z17convert_long4_rtpDv4_j;
        lle_X__Z21convert_long4_sat_rtpDv4_j;
        lle_X__Z17convert_long4_rtnDv4_j;
        lle_X__Z21convert_long4_sat_rtnDv4_j;
        lle_X__Z13convert_long4Dv4_j;
        lle_X__Z17convert_long4_satDv4_j;
        lle_X__Z17convert_long4_rteDv4_l;
        lle_X__Z21convert_long4_sat_rteDv4_l;
        lle_X__Z17convert_long4_rtzDv4_l;
        lle_X__Z21convert_long4_sat_rtzDv4_l;
        lle_X__Z17convert_long4_rtpDv4_l;
        lle_X__Z21convert_long4_sat_rtpDv4_l;
        lle_X__Z17convert_long4_rtnDv4_l;
        lle_X__Z21convert_long4_sat_rtnDv4_l;
        lle_X__Z13convert_long4Dv4_l;
        lle_X__Z17convert_long4_satDv4_l;
        lle_X__Z17convert_long4_rteDv4_m;
        lle_X__Z21convert_long4_sat_rteDv4_m;
        lle_X__Z17convert_long4_rtzDv4_m;
        lle_X__Z21convert_long4_sat_rtzDv4_m;
        lle_X__Z17convert_long4_rtpDv4_m;
        lle_X__Z21convert_long4_sat_rtpDv4_m;
        lle_X__Z17convert_long4_rtnDv4_m;
        lle_X__Z21convert_long4_sat_rtnDv4_m;
        lle_X__Z13convert_long4Dv4_m;
        lle_X__Z17convert_long4_satDv4_m;
        lle_X__Z17convert_long4_rteDv4_f;
        lle_X__Z21convert_long4_sat_rteDv4_f;
        lle_X__Z17convert_long4_rtzDv4_f;
        lle_X__Z21convert_long4_sat_rtzDv4_f;
        lle_X__Z17convert_long4_rtpDv4_f;
        lle_X__Z21convert_long4_sat_rtpDv4_f;
        lle_X__Z17convert_long4_rtnDv4_f;
        lle_X__Z21convert_long4_sat_rtnDv4_f;
        lle_X__Z13convert_long4Dv4_f;
        lle_X__Z17convert_long4_satDv4_f;
        lle_X__Z17convert_long4_rteDv4_d;
        lle_X__Z21convert_long4_sat_rteDv4_d;
        lle_X__Z17convert_long4_rtzDv4_d;
        lle_X__Z21convert_long4_sat_rtzDv4_d;
        lle_X__Z17convert_long4_rtpDv4_d;
        lle_X__Z21convert_long4_sat_rtpDv4_d;
        lle_X__Z17convert_long4_rtnDv4_d;
        lle_X__Z21convert_long4_sat_rtnDv4_d;
        lle_X__Z13convert_long4Dv4_d;
        lle_X__Z17convert_long4_satDv4_d;
        lle_X__Z18convert_ulong4_rteDv4_c;
        lle_X__Z22convert_ulong4_sat_rteDv4_c;
        lle_X__Z18convert_ulong4_rtzDv4_c;
        lle_X__Z22convert_ulong4_sat_rtzDv4_c;
        lle_X__Z18convert_ulong4_rtpDv4_c;
        lle_X__Z22convert_ulong4_sat_rtpDv4_c;
        lle_X__Z18convert_ulong4_rtnDv4_c;
        lle_X__Z22convert_ulong4_sat_rtnDv4_c;
        lle_X__Z14convert_ulong4Dv4_c;
        lle_X__Z18convert_ulong4_satDv4_c;
        lle_X__Z18convert_ulong4_rteDv4_h;
        lle_X__Z22convert_ulong4_sat_rteDv4_h;
        lle_X__Z18convert_ulong4_rtzDv4_h;
        lle_X__Z22convert_ulong4_sat_rtzDv4_h;
        lle_X__Z18convert_ulong4_rtpDv4_h;
        lle_X__Z22convert_ulong4_sat_rtpDv4_h;
        lle_X__Z18convert_ulong4_rtnDv4_h;
        lle_X__Z22convert_ulong4_sat_rtnDv4_h;
        lle_X__Z14convert_ulong4Dv4_h;
        lle_X__Z18convert_ulong4_satDv4_h;
        lle_X__Z18convert_ulong4_rteDv4_s;
        lle_X__Z22convert_ulong4_sat_rteDv4_s;
        lle_X__Z18convert_ulong4_rtzDv4_s;
        lle_X__Z22convert_ulong4_sat_rtzDv4_s;
        lle_X__Z18convert_ulong4_rtpDv4_s;
        lle_X__Z22convert_ulong4_sat_rtpDv4_s;
        lle_X__Z18convert_ulong4_rtnDv4_s;
        lle_X__Z22convert_ulong4_sat_rtnDv4_s;
        lle_X__Z14convert_ulong4Dv4_s;
        lle_X__Z18convert_ulong4_satDv4_s;
        lle_X__Z18convert_ulong4_rteDv4_t;
        lle_X__Z22convert_ulong4_sat_rteDv4_t;
        lle_X__Z18convert_ulong4_rtzDv4_t;
        lle_X__Z22convert_ulong4_sat_rtzDv4_t;
        lle_X__Z18convert_ulong4_rtpDv4_t;
        lle_X__Z22convert_ulong4_sat_rtpDv4_t;
        lle_X__Z18convert_ulong4_rtnDv4_t;
        lle_X__Z22convert_ulong4_sat_rtnDv4_t;
        lle_X__Z14convert_ulong4Dv4_t;
        lle_X__Z18convert_ulong4_satDv4_t;
        lle_X__Z18convert_ulong4_rteDv4_i;
        lle_X__Z22convert_ulong4_sat_rteDv4_i;
        lle_X__Z18convert_ulong4_rtzDv4_i;
        lle_X__Z22convert_ulong4_sat_rtzDv4_i;
        lle_X__Z18convert_ulong4_rtpDv4_i;
        lle_X__Z22convert_ulong4_sat_rtpDv4_i;
        lle_X__Z18convert_ulong4_rtnDv4_i;
        lle_X__Z22convert_ulong4_sat_rtnDv4_i;
        lle_X__Z14convert_ulong4Dv4_i;
        lle_X__Z18convert_ulong4_satDv4_i;
        lle_X__Z18convert_ulong4_rteDv4_j;
        lle_X__Z22convert_ulong4_sat_rteDv4_j;
        lle_X__Z18convert_ulong4_rtzDv4_j;
        lle_X__Z22convert_ulong4_sat_rtzDv4_j;
        lle_X__Z18convert_ulong4_rtpDv4_j;
        lle_X__Z22convert_ulong4_sat_rtpDv4_j;
        lle_X__Z18convert_ulong4_rtnDv4_j;
        lle_X__Z22convert_ulong4_sat_rtnDv4_j;
        lle_X__Z14convert_ulong4Dv4_j;
        lle_X__Z18convert_ulong4_satDv4_j;
        lle_X__Z18convert_ulong4_rteDv4_l;
        lle_X__Z22convert_ulong4_sat_rteDv4_l;
        lle_X__Z18convert_ulong4_rtzDv4_l;
        lle_X__Z22convert_ulong4_sat_rtzDv4_l;
        lle_X__Z18convert_ulong4_rtpDv4_l;
        lle_X__Z22convert_ulong4_sat_rtpDv4_l;
        lle_X__Z18convert_ulong4_rtnDv4_l;
        lle_X__Z22convert_ulong4_sat_rtnDv4_l;
        lle_X__Z14convert_ulong4Dv4_l;
        lle_X__Z18convert_ulong4_satDv4_l;
        lle_X__Z18convert_ulong4_rteDv4_m;
        lle_X__Z22convert_ulong4_sat_rteDv4_m;
        lle_X__Z18convert_ulong4_rtzDv4_m;
        lle_X__Z22convert_ulong4_sat_rtzDv4_m;
        lle_X__Z18convert_ulong4_rtpDv4_m;
        lle_X__Z22convert_ulong4_sat_rtpDv4_m;
        lle_X__Z18convert_ulong4_rtnDv4_m;
        lle_X__Z22convert_ulong4_sat_rtnDv4_m;
        lle_X__Z14convert_ulong4Dv4_m;
        lle_X__Z18convert_ulong4_satDv4_m;
        lle_X__Z18convert_ulong4_rteDv4_f;
        lle_X__Z22convert_ulong4_sat_rteDv4_f;
        lle_X__Z18convert_ulong4_rtzDv4_f;
        lle_X__Z22convert_ulong4_sat_rtzDv4_f;
        lle_X__Z18convert_ulong4_rtpDv4_f;
        lle_X__Z22convert_ulong4_sat_rtpDv4_f;
        lle_X__Z18convert_ulong4_rtnDv4_f;
        lle_X__Z22convert_ulong4_sat_rtnDv4_f;
        lle_X__Z14convert_ulong4Dv4_f;
        lle_X__Z18convert_ulong4_satDv4_f;
        lle_X__Z18convert_ulong4_rteDv4_d;
        lle_X__Z22convert_ulong4_sat_rteDv4_d;
        lle_X__Z18convert_ulong4_rtzDv4_d;
        lle_X__Z22convert_ulong4_sat_rtzDv4_d;
        lle_X__Z18convert_ulong4_rtpDv4_d;
        lle_X__Z22convert_ulong4_sat_rtpDv4_d;
        lle_X__Z18convert_ulong4_rtnDv4_d;
        lle_X__Z22convert_ulong4_sat_rtnDv4_d;
        lle_X__Z14convert_ulong4Dv4_d;
        lle_X__Z18convert_ulong4_satDv4_d;
        lle_X__Z19convert_double4_rteDv4_c;
        lle_X__Z23convert_double4_sat_rteDv4_c;
        lle_X__Z19convert_double4_rtzDv4_c;
        lle_X__Z23convert_double4_sat_rtzDv4_c;
        lle_X__Z19convert_double4_rtpDv4_c;
        lle_X__Z23convert_double4_sat_rtpDv4_c;
        lle_X__Z19convert_double4_rtnDv4_c;
        lle_X__Z23convert_double4_sat_rtnDv4_c;
        lle_X__Z15convert_double4Dv4_c;
        lle_X__Z19convert_double4_satDv4_c;
        lle_X__Z19convert_double4_rteDv4_h;
        lle_X__Z23convert_double4_sat_rteDv4_h;
        lle_X__Z19convert_double4_rtzDv4_h;
        lle_X__Z23convert_double4_sat_rtzDv4_h;
        lle_X__Z19convert_double4_rtpDv4_h;
        lle_X__Z23convert_double4_sat_rtpDv4_h;
        lle_X__Z19convert_double4_rtnDv4_h;
        lle_X__Z23convert_double4_sat_rtnDv4_h;
        lle_X__Z15convert_double4Dv4_h;
        lle_X__Z19convert_double4_satDv4_h;
        lle_X__Z19convert_double4_rteDv4_s;
        lle_X__Z23convert_double4_sat_rteDv4_s;
        lle_X__Z19convert_double4_rtzDv4_s;
        lle_X__Z23convert_double4_sat_rtzDv4_s;
        lle_X__Z19convert_double4_rtpDv4_s;
        lle_X__Z23convert_double4_sat_rtpDv4_s;
        lle_X__Z19convert_double4_rtnDv4_s;
        lle_X__Z23convert_double4_sat_rtnDv4_s;
        lle_X__Z15convert_double4Dv4_s;
        lle_X__Z19convert_double4_satDv4_s;
        lle_X__Z19convert_double4_rteDv4_t;
        lle_X__Z23convert_double4_sat_rteDv4_t;
        lle_X__Z19convert_double4_rtzDv4_t;
        lle_X__Z23convert_double4_sat_rtzDv4_t;
        lle_X__Z19convert_double4_rtpDv4_t;
        lle_X__Z23convert_double4_sat_rtpDv4_t;
        lle_X__Z19convert_double4_rtnDv4_t;
        lle_X__Z23convert_double4_sat_rtnDv4_t;
        lle_X__Z15convert_double4Dv4_t;
        lle_X__Z19convert_double4_satDv4_t;
        lle_X__Z19convert_double4_rteDv4_i;
        lle_X__Z23convert_double4_sat_rteDv4_i;
        lle_X__Z19convert_double4_rtzDv4_i;
        lle_X__Z23convert_double4_sat_rtzDv4_i;
        lle_X__Z19convert_double4_rtpDv4_i;
        lle_X__Z23convert_double4_sat_rtpDv4_i;
        lle_X__Z19convert_double4_rtnDv4_i;
        lle_X__Z23convert_double4_sat_rtnDv4_i;
        lle_X__Z15convert_double4Dv4_i;
        lle_X__Z19convert_double4_satDv4_i;
        lle_X__Z19convert_double4_rteDv4_j;
        lle_X__Z23convert_double4_sat_rteDv4_j;
        lle_X__Z19convert_double4_rtzDv4_j;
        lle_X__Z23convert_double4_sat_rtzDv4_j;
        lle_X__Z19convert_double4_rtpDv4_j;
        lle_X__Z23convert_double4_sat_rtpDv4_j;
        lle_X__Z19convert_double4_rtnDv4_j;
        lle_X__Z23convert_double4_sat_rtnDv4_j;
        lle_X__Z15convert_double4Dv4_j;
        lle_X__Z19convert_double4_satDv4_j;
        lle_X__Z19convert_double4_rteDv4_l;
        lle_X__Z23convert_double4_sat_rteDv4_l;
        lle_X__Z19convert_double4_rtzDv4_l;
        lle_X__Z23convert_double4_sat_rtzDv4_l;
        lle_X__Z19convert_double4_rtpDv4_l;
        lle_X__Z23convert_double4_sat_rtpDv4_l;
        lle_X__Z19convert_double4_rtnDv4_l;
        lle_X__Z23convert_double4_sat_rtnDv4_l;
        lle_X__Z15convert_double4Dv4_l;
        lle_X__Z19convert_double4_satDv4_l;
        lle_X__Z19convert_double4_rteDv4_m;
        lle_X__Z23convert_double4_sat_rteDv4_m;
        lle_X__Z19convert_double4_rtzDv4_m;
        lle_X__Z23convert_double4_sat_rtzDv4_m;
        lle_X__Z19convert_double4_rtpDv4_m;
        lle_X__Z23convert_double4_sat_rtpDv4_m;
        lle_X__Z19convert_double4_rtnDv4_m;
        lle_X__Z23convert_double4_sat_rtnDv4_m;
        lle_X__Z15convert_double4Dv4_m;
        lle_X__Z19convert_double4_satDv4_m;
        lle_X__Z19convert_double4_rteDv4_f;
        lle_X__Z23convert_double4_sat_rteDv4_f;
        lle_X__Z19convert_double4_rtzDv4_f;
        lle_X__Z23convert_double4_sat_rtzDv4_f;
        lle_X__Z19convert_double4_rtpDv4_f;
        lle_X__Z23convert_double4_sat_rtpDv4_f;
        lle_X__Z19convert_double4_rtnDv4_f;
        lle_X__Z23convert_double4_sat_rtnDv4_f;
        lle_X__Z15convert_double4Dv4_f;
        lle_X__Z19convert_double4_satDv4_f;
        lle_X__Z19convert_double4_rteDv4_d;
        lle_X__Z23convert_double4_sat_rteDv4_d;
        lle_X__Z19convert_double4_rtzDv4_d;
        lle_X__Z23convert_double4_sat_rtzDv4_d;
        lle_X__Z19convert_double4_rtpDv4_d;
        lle_X__Z23convert_double4_sat_rtpDv4_d;
        lle_X__Z19convert_double4_rtnDv4_d;
        lle_X__Z23convert_double4_sat_rtnDv4_d;
        lle_X__Z15convert_double4Dv4_d;
        lle_X__Z19convert_double4_satDv4_d;
        lle_X__Z17convert_char8_rteDv8_c;
        lle_X__Z21convert_char8_sat_rteDv8_c;
        lle_X__Z17convert_char8_rtzDv8_c;
        lle_X__Z21convert_char8_sat_rtzDv8_c;
        lle_X__Z17convert_char8_rtpDv8_c;
        lle_X__Z21convert_char8_sat_rtpDv8_c;
        lle_X__Z17convert_char8_rtnDv8_c;
        lle_X__Z21convert_char8_sat_rtnDv8_c;
        lle_X__Z13convert_char8Dv8_c;
        lle_X__Z17convert_char8_satDv8_c;
        lle_X__Z17convert_char8_rteDv8_h;
        lle_X__Z21convert_char8_sat_rteDv8_h;
        lle_X__Z17convert_char8_rtzDv8_h;
        lle_X__Z21convert_char8_sat_rtzDv8_h;
        lle_X__Z17convert_char8_rtpDv8_h;
        lle_X__Z21convert_char8_sat_rtpDv8_h;
        lle_X__Z17convert_char8_rtnDv8_h;
        lle_X__Z21convert_char8_sat_rtnDv8_h;
        lle_X__Z13convert_char8Dv8_h;
        lle_X__Z17convert_char8_satDv8_h;
        lle_X__Z17convert_char8_rteDv8_s;
        lle_X__Z21convert_char8_sat_rteDv8_s;
        lle_X__Z17convert_char8_rtzDv8_s;
        lle_X__Z21convert_char8_sat_rtzDv8_s;
        lle_X__Z17convert_char8_rtpDv8_s;
        lle_X__Z21convert_char8_sat_rtpDv8_s;
        lle_X__Z17convert_char8_rtnDv8_s;
        lle_X__Z21convert_char8_sat_rtnDv8_s;
        lle_X__Z13convert_char8Dv8_s;
        lle_X__Z17convert_char8_satDv8_s;
        lle_X__Z17convert_char8_rteDv8_t;
        lle_X__Z21convert_char8_sat_rteDv8_t;
        lle_X__Z17convert_char8_rtzDv8_t;
        lle_X__Z21convert_char8_sat_rtzDv8_t;
        lle_X__Z17convert_char8_rtpDv8_t;
        lle_X__Z21convert_char8_sat_rtpDv8_t;
        lle_X__Z17convert_char8_rtnDv8_t;
        lle_X__Z21convert_char8_sat_rtnDv8_t;
        lle_X__Z13convert_char8Dv8_t;
        lle_X__Z17convert_char8_satDv8_t;
        lle_X__Z17convert_char8_rteDv8_i;
        lle_X__Z21convert_char8_sat_rteDv8_i;
        lle_X__Z17convert_char8_rtzDv8_i;
        lle_X__Z21convert_char8_sat_rtzDv8_i;
        lle_X__Z17convert_char8_rtpDv8_i;
        lle_X__Z21convert_char8_sat_rtpDv8_i;
        lle_X__Z17convert_char8_rtnDv8_i;
        lle_X__Z21convert_char8_sat_rtnDv8_i;
        lle_X__Z13convert_char8Dv8_i;
        lle_X__Z17convert_char8_satDv8_i;
        lle_X__Z17convert_char8_rteDv8_j;
        lle_X__Z21convert_char8_sat_rteDv8_j;
        lle_X__Z17convert_char8_rtzDv8_j;
        lle_X__Z21convert_char8_sat_rtzDv8_j;
        lle_X__Z17convert_char8_rtpDv8_j;
        lle_X__Z21convert_char8_sat_rtpDv8_j;
        lle_X__Z17convert_char8_rtnDv8_j;
        lle_X__Z21convert_char8_sat_rtnDv8_j;
        lle_X__Z13convert_char8Dv8_j;
        lle_X__Z17convert_char8_satDv8_j;
        lle_X__Z17convert_char8_rteDv8_l;
        lle_X__Z21convert_char8_sat_rteDv8_l;
        lle_X__Z17convert_char8_rtzDv8_l;
        lle_X__Z21convert_char8_sat_rtzDv8_l;
        lle_X__Z17convert_char8_rtpDv8_l;
        lle_X__Z21convert_char8_sat_rtpDv8_l;
        lle_X__Z17convert_char8_rtnDv8_l;
        lle_X__Z21convert_char8_sat_rtnDv8_l;
        lle_X__Z13convert_char8Dv8_l;
        lle_X__Z17convert_char8_satDv8_l;
        lle_X__Z17convert_char8_rteDv8_m;
        lle_X__Z21convert_char8_sat_rteDv8_m;
        lle_X__Z17convert_char8_rtzDv8_m;
        lle_X__Z21convert_char8_sat_rtzDv8_m;
        lle_X__Z17convert_char8_rtpDv8_m;
        lle_X__Z21convert_char8_sat_rtpDv8_m;
        lle_X__Z17convert_char8_rtnDv8_m;
        lle_X__Z21convert_char8_sat_rtnDv8_m;
        lle_X__Z13convert_char8Dv8_m;
        lle_X__Z17convert_char8_satDv8_m;
        lle_X__Z17convert_char8_rteDv8_f;
        lle_X__Z21convert_char8_sat_rteDv8_f;
        lle_X__Z17convert_char8_rtzDv8_f;
        lle_X__Z21convert_char8_sat_rtzDv8_f;
        lle_X__Z17convert_char8_rtpDv8_f;
        lle_X__Z21convert_char8_sat_rtpDv8_f;
        lle_X__Z17convert_char8_rtnDv8_f;
        lle_X__Z21convert_char8_sat_rtnDv8_f;
        lle_X__Z13convert_char8Dv8_f;
        lle_X__Z17convert_char8_satDv8_f;
        lle_X__Z17convert_char8_rteDv8_d;
        lle_X__Z21convert_char8_sat_rteDv8_d;
        lle_X__Z17convert_char8_rtzDv8_d;
        lle_X__Z21convert_char8_sat_rtzDv8_d;
        lle_X__Z17convert_char8_rtpDv8_d;
        lle_X__Z21convert_char8_sat_rtpDv8_d;
        lle_X__Z17convert_char8_rtnDv8_d;
        lle_X__Z21convert_char8_sat_rtnDv8_d;
        lle_X__Z13convert_char8Dv8_d;
        lle_X__Z17convert_char8_satDv8_d;
        lle_X__Z18convert_uchar8_rteDv8_c;
        lle_X__Z22convert_uchar8_sat_rteDv8_c;
        lle_X__Z18convert_uchar8_rtzDv8_c;
        lle_X__Z22convert_uchar8_sat_rtzDv8_c;
        lle_X__Z18convert_uchar8_rtpDv8_c;
        lle_X__Z22convert_uchar8_sat_rtpDv8_c;
        lle_X__Z18convert_uchar8_rtnDv8_c;
        lle_X__Z22convert_uchar8_sat_rtnDv8_c;
        lle_X__Z14convert_uchar8Dv8_c;
        lle_X__Z18convert_uchar8_satDv8_c;
        lle_X__Z18convert_uchar8_rteDv8_h;
        lle_X__Z22convert_uchar8_sat_rteDv8_h;
        lle_X__Z18convert_uchar8_rtzDv8_h;
        lle_X__Z22convert_uchar8_sat_rtzDv8_h;
        lle_X__Z18convert_uchar8_rtpDv8_h;
        lle_X__Z22convert_uchar8_sat_rtpDv8_h;
        lle_X__Z18convert_uchar8_rtnDv8_h;
        lle_X__Z22convert_uchar8_sat_rtnDv8_h;
        lle_X__Z14convert_uchar8Dv8_h;
        lle_X__Z18convert_uchar8_satDv8_h;
        lle_X__Z18convert_uchar8_rteDv8_s;
        lle_X__Z22convert_uchar8_sat_rteDv8_s;
        lle_X__Z18convert_uchar8_rtzDv8_s;
        lle_X__Z22convert_uchar8_sat_rtzDv8_s;
        lle_X__Z18convert_uchar8_rtpDv8_s;
        lle_X__Z22convert_uchar8_sat_rtpDv8_s;
        lle_X__Z18convert_uchar8_rtnDv8_s;
        lle_X__Z22convert_uchar8_sat_rtnDv8_s;
        lle_X__Z14convert_uchar8Dv8_s;
        lle_X__Z18convert_uchar8_satDv8_s;
        lle_X__Z18convert_uchar8_rteDv8_t;
        lle_X__Z22convert_uchar8_sat_rteDv8_t;
        lle_X__Z18convert_uchar8_rtzDv8_t;
        lle_X__Z22convert_uchar8_sat_rtzDv8_t;
        lle_X__Z18convert_uchar8_rtpDv8_t;
        lle_X__Z22convert_uchar8_sat_rtpDv8_t;
        lle_X__Z18convert_uchar8_rtnDv8_t;
        lle_X__Z22convert_uchar8_sat_rtnDv8_t;
        lle_X__Z14convert_uchar8Dv8_t;
        lle_X__Z18convert_uchar8_satDv8_t;
        lle_X__Z18convert_uchar8_rteDv8_i;
        lle_X__Z22convert_uchar8_sat_rteDv8_i;
        lle_X__Z18convert_uchar8_rtzDv8_i;
        lle_X__Z22convert_uchar8_sat_rtzDv8_i;
        lle_X__Z18convert_uchar8_rtpDv8_i;
        lle_X__Z22convert_uchar8_sat_rtpDv8_i;
        lle_X__Z18convert_uchar8_rtnDv8_i;
        lle_X__Z22convert_uchar8_sat_rtnDv8_i;
        lle_X__Z14convert_uchar8Dv8_i;
        lle_X__Z18convert_uchar8_satDv8_i;
        lle_X__Z18convert_uchar8_rteDv8_j;
        lle_X__Z22convert_uchar8_sat_rteDv8_j;
        lle_X__Z18convert_uchar8_rtzDv8_j;
        lle_X__Z22convert_uchar8_sat_rtzDv8_j;
        lle_X__Z18convert_uchar8_rtpDv8_j;
        lle_X__Z22convert_uchar8_sat_rtpDv8_j;
        lle_X__Z18convert_uchar8_rtnDv8_j;
        lle_X__Z22convert_uchar8_sat_rtnDv8_j;
        lle_X__Z14convert_uchar8Dv8_j;
        lle_X__Z18convert_uchar8_satDv8_j;
        lle_X__Z18convert_uchar8_rteDv8_l;
        lle_X__Z22convert_uchar8_sat_rteDv8_l;
        lle_X__Z18convert_uchar8_rtzDv8_l;
        lle_X__Z22convert_uchar8_sat_rtzDv8_l;
        lle_X__Z18convert_uchar8_rtpDv8_l;
        lle_X__Z22convert_uchar8_sat_rtpDv8_l;
        lle_X__Z18convert_uchar8_rtnDv8_l;
        lle_X__Z22convert_uchar8_sat_rtnDv8_l;
        lle_X__Z14convert_uchar8Dv8_l;
        lle_X__Z18convert_uchar8_satDv8_l;
        lle_X__Z18convert_uchar8_rteDv8_m;
        lle_X__Z22convert_uchar8_sat_rteDv8_m;
        lle_X__Z18convert_uchar8_rtzDv8_m;
        lle_X__Z22convert_uchar8_sat_rtzDv8_m;
        lle_X__Z18convert_uchar8_rtpDv8_m;
        lle_X__Z22convert_uchar8_sat_rtpDv8_m;
        lle_X__Z18convert_uchar8_rtnDv8_m;
        lle_X__Z22convert_uchar8_sat_rtnDv8_m;
        lle_X__Z14convert_uchar8Dv8_m;
        lle_X__Z18convert_uchar8_satDv8_m;
        lle_X__Z18convert_uchar8_rteDv8_f;
        lle_X__Z22convert_uchar8_sat_rteDv8_f;
        lle_X__Z18convert_uchar8_rtzDv8_f;
        lle_X__Z22convert_uchar8_sat_rtzDv8_f;
        lle_X__Z18convert_uchar8_rtpDv8_f;
        lle_X__Z22convert_uchar8_sat_rtpDv8_f;
        lle_X__Z18convert_uchar8_rtnDv8_f;
        lle_X__Z22convert_uchar8_sat_rtnDv8_f;
        lle_X__Z14convert_uchar8Dv8_f;
        lle_X__Z18convert_uchar8_satDv8_f;
        lle_X__Z18convert_uchar8_rteDv8_d;
        lle_X__Z22convert_uchar8_sat_rteDv8_d;
        lle_X__Z18convert_uchar8_rtzDv8_d;
        lle_X__Z22convert_uchar8_sat_rtzDv8_d;
        lle_X__Z18convert_uchar8_rtpDv8_d;
        lle_X__Z22convert_uchar8_sat_rtpDv8_d;
        lle_X__Z18convert_uchar8_rtnDv8_d;
        lle_X__Z22convert_uchar8_sat_rtnDv8_d;
        lle_X__Z14convert_uchar8Dv8_d;
        lle_X__Z18convert_uchar8_satDv8_d;
        lle_X__Z18convert_short8_rteDv8_c;
        lle_X__Z22convert_short8_sat_rteDv8_c;
        lle_X__Z18convert_short8_rtzDv8_c;
        lle_X__Z22convert_short8_sat_rtzDv8_c;
        lle_X__Z18convert_short8_rtpDv8_c;
        lle_X__Z22convert_short8_sat_rtpDv8_c;
        lle_X__Z18convert_short8_rtnDv8_c;
        lle_X__Z22convert_short8_sat_rtnDv8_c;
        lle_X__Z14convert_short8Dv8_c;
        lle_X__Z18convert_short8_satDv8_c;
        lle_X__Z18convert_short8_rteDv8_h;
        lle_X__Z22convert_short8_sat_rteDv8_h;
        lle_X__Z18convert_short8_rtzDv8_h;
        lle_X__Z22convert_short8_sat_rtzDv8_h;
        lle_X__Z18convert_short8_rtpDv8_h;
        lle_X__Z22convert_short8_sat_rtpDv8_h;
        lle_X__Z18convert_short8_rtnDv8_h;
        lle_X__Z22convert_short8_sat_rtnDv8_h;
        lle_X__Z14convert_short8Dv8_h;
        lle_X__Z18convert_short8_satDv8_h;
        lle_X__Z18convert_short8_rteDv8_s;
        lle_X__Z22convert_short8_sat_rteDv8_s;
        lle_X__Z18convert_short8_rtzDv8_s;
        lle_X__Z22convert_short8_sat_rtzDv8_s;
        lle_X__Z18convert_short8_rtpDv8_s;
        lle_X__Z22convert_short8_sat_rtpDv8_s;
        lle_X__Z18convert_short8_rtnDv8_s;
        lle_X__Z22convert_short8_sat_rtnDv8_s;
        lle_X__Z14convert_short8Dv8_s;
        lle_X__Z18convert_short8_satDv8_s;
        lle_X__Z18convert_short8_rteDv8_t;
        lle_X__Z22convert_short8_sat_rteDv8_t;
        lle_X__Z18convert_short8_rtzDv8_t;
        lle_X__Z22convert_short8_sat_rtzDv8_t;
        lle_X__Z18convert_short8_rtpDv8_t;
        lle_X__Z22convert_short8_sat_rtpDv8_t;
        lle_X__Z18convert_short8_rtnDv8_t;
        lle_X__Z22convert_short8_sat_rtnDv8_t;
        lle_X__Z14convert_short8Dv8_t;
        lle_X__Z18convert_short8_satDv8_t;
        lle_X__Z18convert_short8_rteDv8_i;
        lle_X__Z22convert_short8_sat_rteDv8_i;
        lle_X__Z18convert_short8_rtzDv8_i;
        lle_X__Z22convert_short8_sat_rtzDv8_i;
        lle_X__Z18convert_short8_rtpDv8_i;
        lle_X__Z22convert_short8_sat_rtpDv8_i;
        lle_X__Z18convert_short8_rtnDv8_i;
        lle_X__Z22convert_short8_sat_rtnDv8_i;
        lle_X__Z14convert_short8Dv8_i;
        lle_X__Z18convert_short8_satDv8_i;
        lle_X__Z18convert_short8_rteDv8_j;
        lle_X__Z22convert_short8_sat_rteDv8_j;
        lle_X__Z18convert_short8_rtzDv8_j;
        lle_X__Z22convert_short8_sat_rtzDv8_j;
        lle_X__Z18convert_short8_rtpDv8_j;
        lle_X__Z22convert_short8_sat_rtpDv8_j;
        lle_X__Z18convert_short8_rtnDv8_j;
        lle_X__Z22convert_short8_sat_rtnDv8_j;
        lle_X__Z14convert_short8Dv8_j;
        lle_X__Z18convert_short8_satDv8_j;
        lle_X__Z18convert_short8_rteDv8_l;
        lle_X__Z22convert_short8_sat_rteDv8_l;
        lle_X__Z18convert_short8_rtzDv8_l;
        lle_X__Z22convert_short8_sat_rtzDv8_l;
        lle_X__Z18convert_short8_rtpDv8_l;
        lle_X__Z22convert_short8_sat_rtpDv8_l;
        lle_X__Z18convert_short8_rtnDv8_l;
        lle_X__Z22convert_short8_sat_rtnDv8_l;
        lle_X__Z14convert_short8Dv8_l;
        lle_X__Z18convert_short8_satDv8_l;
        lle_X__Z18convert_short8_rteDv8_m;
        lle_X__Z22convert_short8_sat_rteDv8_m;
        lle_X__Z18convert_short8_rtzDv8_m;
        lle_X__Z22convert_short8_sat_rtzDv8_m;
        lle_X__Z18convert_short8_rtpDv8_m;
        lle_X__Z22convert_short8_sat_rtpDv8_m;
        lle_X__Z18convert_short8_rtnDv8_m;
        lle_X__Z22convert_short8_sat_rtnDv8_m;
        lle_X__Z14convert_short8Dv8_m;
        lle_X__Z18convert_short8_satDv8_m;
        lle_X__Z18convert_short8_rteDv8_f;
        lle_X__Z22convert_short8_sat_rteDv8_f;
        lle_X__Z18convert_short8_rtzDv8_f;
        lle_X__Z22convert_short8_sat_rtzDv8_f;
        lle_X__Z18convert_short8_rtpDv8_f;
        lle_X__Z22convert_short8_sat_rtpDv8_f;
        lle_X__Z18convert_short8_rtnDv8_f;
        lle_X__Z22convert_short8_sat_rtnDv8_f;
        lle_X__Z14convert_short8Dv8_f;
        lle_X__Z18convert_short8_satDv8_f;
        lle_X__Z18convert_short8_rteDv8_d;
        lle_X__Z22convert_short8_sat_rteDv8_d;
        lle_X__Z18convert_short8_rtzDv8_d;
        lle_X__Z22convert_short8_sat_rtzDv8_d;
        lle_X__Z18convert_short8_rtpDv8_d;
        lle_X__Z22convert_short8_sat_rtpDv8_d;
        lle_X__Z18convert_short8_rtnDv8_d;
        lle_X__Z22convert_short8_sat_rtnDv8_d;
        lle_X__Z14convert_short8Dv8_d;
        lle_X__Z18convert_short8_satDv8_d;
        lle_X__Z19convert_ushort8_rteDv8_c;
        lle_X__Z23convert_ushort8_sat_rteDv8_c;
        lle_X__Z19convert_ushort8_rtzDv8_c;
        lle_X__Z23convert_ushort8_sat_rtzDv8_c;
        lle_X__Z19convert_ushort8_rtpDv8_c;
        lle_X__Z23convert_ushort8_sat_rtpDv8_c;
        lle_X__Z19convert_ushort8_rtnDv8_c;
        lle_X__Z23convert_ushort8_sat_rtnDv8_c;
        lle_X__Z15convert_ushort8Dv8_c;
        lle_X__Z19convert_ushort8_satDv8_c;
        lle_X__Z19convert_ushort8_rteDv8_h;
        lle_X__Z23convert_ushort8_sat_rteDv8_h;
        lle_X__Z19convert_ushort8_rtzDv8_h;
        lle_X__Z23convert_ushort8_sat_rtzDv8_h;
        lle_X__Z19convert_ushort8_rtpDv8_h;
        lle_X__Z23convert_ushort8_sat_rtpDv8_h;
        lle_X__Z19convert_ushort8_rtnDv8_h;
        lle_X__Z23convert_ushort8_sat_rtnDv8_h;
        lle_X__Z15convert_ushort8Dv8_h;
        lle_X__Z19convert_ushort8_satDv8_h;
        lle_X__Z19convert_ushort8_rteDv8_s;
        lle_X__Z23convert_ushort8_sat_rteDv8_s;
        lle_X__Z19convert_ushort8_rtzDv8_s;
        lle_X__Z23convert_ushort8_sat_rtzDv8_s;
        lle_X__Z19convert_ushort8_rtpDv8_s;
        lle_X__Z23convert_ushort8_sat_rtpDv8_s;
        lle_X__Z19convert_ushort8_rtnDv8_s;
        lle_X__Z23convert_ushort8_sat_rtnDv8_s;
        lle_X__Z15convert_ushort8Dv8_s;
        lle_X__Z19convert_ushort8_satDv8_s;
        lle_X__Z19convert_ushort8_rteDv8_t;
        lle_X__Z23convert_ushort8_sat_rteDv8_t;
        lle_X__Z19convert_ushort8_rtzDv8_t;
        lle_X__Z23convert_ushort8_sat_rtzDv8_t;
        lle_X__Z19convert_ushort8_rtpDv8_t;
        lle_X__Z23convert_ushort8_sat_rtpDv8_t;
        lle_X__Z19convert_ushort8_rtnDv8_t;
        lle_X__Z23convert_ushort8_sat_rtnDv8_t;
        lle_X__Z15convert_ushort8Dv8_t;
        lle_X__Z19convert_ushort8_satDv8_t;
        lle_X__Z19convert_ushort8_rteDv8_i;
        lle_X__Z23convert_ushort8_sat_rteDv8_i;
        lle_X__Z19convert_ushort8_rtzDv8_i;
        lle_X__Z23convert_ushort8_sat_rtzDv8_i;
        lle_X__Z19convert_ushort8_rtpDv8_i;
        lle_X__Z23convert_ushort8_sat_rtpDv8_i;
        lle_X__Z19convert_ushort8_rtnDv8_i;
        lle_X__Z23convert_ushort8_sat_rtnDv8_i;
        lle_X__Z15convert_ushort8Dv8_i;
        lle_X__Z19convert_ushort8_satDv8_i;
        lle_X__Z19convert_ushort8_rteDv8_j;
        lle_X__Z23convert_ushort8_sat_rteDv8_j;
        lle_X__Z19convert_ushort8_rtzDv8_j;
        lle_X__Z23convert_ushort8_sat_rtzDv8_j;
        lle_X__Z19convert_ushort8_rtpDv8_j;
        lle_X__Z23convert_ushort8_sat_rtpDv8_j;
        lle_X__Z19convert_ushort8_rtnDv8_j;
        lle_X__Z23convert_ushort8_sat_rtnDv8_j;
        lle_X__Z15convert_ushort8Dv8_j;
        lle_X__Z19convert_ushort8_satDv8_j;
        lle_X__Z19convert_ushort8_rteDv8_l;
        lle_X__Z23convert_ushort8_sat_rteDv8_l;
        lle_X__Z19convert_ushort8_rtzDv8_l;
        lle_X__Z23convert_ushort8_sat_rtzDv8_l;
        lle_X__Z19convert_ushort8_rtpDv8_l;
        lle_X__Z23convert_ushort8_sat_rtpDv8_l;
        lle_X__Z19convert_ushort8_rtnDv8_l;
        lle_X__Z23convert_ushort8_sat_rtnDv8_l;
        lle_X__Z15convert_ushort8Dv8_l;
        lle_X__Z19convert_ushort8_satDv8_l;
        lle_X__Z19convert_ushort8_rteDv8_m;
        lle_X__Z23convert_ushort8_sat_rteDv8_m;
        lle_X__Z19convert_ushort8_rtzDv8_m;
        lle_X__Z23convert_ushort8_sat_rtzDv8_m;
        lle_X__Z19convert_ushort8_rtpDv8_m;
        lle_X__Z23convert_ushort8_sat_rtpDv8_m;
        lle_X__Z19convert_ushort8_rtnDv8_m;
        lle_X__Z23convert_ushort8_sat_rtnDv8_m;
        lle_X__Z15convert_ushort8Dv8_m;
        lle_X__Z19convert_ushort8_satDv8_m;
        lle_X__Z19convert_ushort8_rteDv8_f;
        lle_X__Z23convert_ushort8_sat_rteDv8_f;
        lle_X__Z19convert_ushort8_rtzDv8_f;
        lle_X__Z23convert_ushort8_sat_rtzDv8_f;
        lle_X__Z19convert_ushort8_rtpDv8_f;
        lle_X__Z23convert_ushort8_sat_rtpDv8_f;
        lle_X__Z19convert_ushort8_rtnDv8_f;
        lle_X__Z23convert_ushort8_sat_rtnDv8_f;
        lle_X__Z15convert_ushort8Dv8_f;
        lle_X__Z19convert_ushort8_satDv8_f;
        lle_X__Z19convert_ushort8_rteDv8_d;
        lle_X__Z23convert_ushort8_sat_rteDv8_d;
        lle_X__Z19convert_ushort8_rtzDv8_d;
        lle_X__Z23convert_ushort8_sat_rtzDv8_d;
        lle_X__Z19convert_ushort8_rtpDv8_d;
        lle_X__Z23convert_ushort8_sat_rtpDv8_d;
        lle_X__Z19convert_ushort8_rtnDv8_d;
        lle_X__Z23convert_ushort8_sat_rtnDv8_d;
        lle_X__Z15convert_ushort8Dv8_d;
        lle_X__Z19convert_ushort8_satDv8_d;
        lle_X__Z16convert_int8_rteDv8_c;
        lle_X__Z20convert_int8_sat_rteDv8_c;
        lle_X__Z16convert_int8_rtzDv8_c;
        lle_X__Z20convert_int8_sat_rtzDv8_c;
        lle_X__Z16convert_int8_rtpDv8_c;
        lle_X__Z20convert_int8_sat_rtpDv8_c;
        lle_X__Z16convert_int8_rtnDv8_c;
        lle_X__Z20convert_int8_sat_rtnDv8_c;
        lle_X__Z12convert_int8Dv8_c;
        lle_X__Z16convert_int8_satDv8_c;
        lle_X__Z16convert_int8_rteDv8_h;
        lle_X__Z20convert_int8_sat_rteDv8_h;
        lle_X__Z16convert_int8_rtzDv8_h;
        lle_X__Z20convert_int8_sat_rtzDv8_h;
        lle_X__Z16convert_int8_rtpDv8_h;
        lle_X__Z20convert_int8_sat_rtpDv8_h;
        lle_X__Z16convert_int8_rtnDv8_h;
        lle_X__Z20convert_int8_sat_rtnDv8_h;
        lle_X__Z12convert_int8Dv8_h;
        lle_X__Z16convert_int8_satDv8_h;
        lle_X__Z16convert_int8_rteDv8_s;
        lle_X__Z20convert_int8_sat_rteDv8_s;
        lle_X__Z16convert_int8_rtzDv8_s;
        lle_X__Z20convert_int8_sat_rtzDv8_s;
        lle_X__Z16convert_int8_rtpDv8_s;
        lle_X__Z20convert_int8_sat_rtpDv8_s;
        lle_X__Z16convert_int8_rtnDv8_s;
        lle_X__Z20convert_int8_sat_rtnDv8_s;
        lle_X__Z12convert_int8Dv8_s;
        lle_X__Z16convert_int8_satDv8_s;
        lle_X__Z16convert_int8_rteDv8_t;
        lle_X__Z20convert_int8_sat_rteDv8_t;
        lle_X__Z16convert_int8_rtzDv8_t;
        lle_X__Z20convert_int8_sat_rtzDv8_t;
        lle_X__Z16convert_int8_rtpDv8_t;
        lle_X__Z20convert_int8_sat_rtpDv8_t;
        lle_X__Z16convert_int8_rtnDv8_t;
        lle_X__Z20convert_int8_sat_rtnDv8_t;
        lle_X__Z12convert_int8Dv8_t;
        lle_X__Z16convert_int8_satDv8_t;
        lle_X__Z16convert_int8_rteDv8_i;
        lle_X__Z20convert_int8_sat_rteDv8_i;
        lle_X__Z16convert_int8_rtzDv8_i;
        lle_X__Z20convert_int8_sat_rtzDv8_i;
        lle_X__Z16convert_int8_rtpDv8_i;
        lle_X__Z20convert_int8_sat_rtpDv8_i;
        lle_X__Z16convert_int8_rtnDv8_i;
        lle_X__Z20convert_int8_sat_rtnDv8_i;
        lle_X__Z12convert_int8Dv8_i;
        lle_X__Z16convert_int8_satDv8_i;
        lle_X__Z16convert_int8_rteDv8_j;
        lle_X__Z20convert_int8_sat_rteDv8_j;
        lle_X__Z16convert_int8_rtzDv8_j;
        lle_X__Z20convert_int8_sat_rtzDv8_j;
        lle_X__Z16convert_int8_rtpDv8_j;
        lle_X__Z20convert_int8_sat_rtpDv8_j;
        lle_X__Z16convert_int8_rtnDv8_j;
        lle_X__Z20convert_int8_sat_rtnDv8_j;
        lle_X__Z12convert_int8Dv8_j;
        lle_X__Z16convert_int8_satDv8_j;
        lle_X__Z16convert_int8_rteDv8_l;
        lle_X__Z20convert_int8_sat_rteDv8_l;
        lle_X__Z16convert_int8_rtzDv8_l;
        lle_X__Z20convert_int8_sat_rtzDv8_l;
        lle_X__Z16convert_int8_rtpDv8_l;
        lle_X__Z20convert_int8_sat_rtpDv8_l;
        lle_X__Z16convert_int8_rtnDv8_l;
        lle_X__Z20convert_int8_sat_rtnDv8_l;
        lle_X__Z12convert_int8Dv8_l;
        lle_X__Z16convert_int8_satDv8_l;
        lle_X__Z16convert_int8_rteDv8_m;
        lle_X__Z20convert_int8_sat_rteDv8_m;
        lle_X__Z16convert_int8_rtzDv8_m;
        lle_X__Z20convert_int8_sat_rtzDv8_m;
        lle_X__Z16convert_int8_rtpDv8_m;
        lle_X__Z20convert_int8_sat_rtpDv8_m;
        lle_X__Z16convert_int8_rtnDv8_m;
        lle_X__Z20convert_int8_sat_rtnDv8_m;
        lle_X__Z12convert_int8Dv8_m;
        lle_X__Z16convert_int8_satDv8_m;
        lle_X__Z16convert_int8_rteDv8_f;
        lle_X__Z20convert_int8_sat_rteDv8_f;
        lle_X__Z16convert_int8_rtzDv8_f;
        lle_X__Z20convert_int8_sat_rtzDv8_f;
        lle_X__Z16convert_int8_rtpDv8_f;
        lle_X__Z20convert_int8_sat_rtpDv8_f;
        lle_X__Z16convert_int8_rtnDv8_f;
        lle_X__Z20convert_int8_sat_rtnDv8_f;
        lle_X__Z12convert_int8Dv8_f;
        lle_X__Z16convert_int8_satDv8_f;
        lle_X__Z16convert_int8_rteDv8_d;
        lle_X__Z20convert_int8_sat_rteDv8_d;
        lle_X__Z16convert_int8_rtzDv8_d;
        lle_X__Z20convert_int8_sat_rtzDv8_d;
        lle_X__Z16convert_int8_rtpDv8_d;
        lle_X__Z20convert_int8_sat_rtpDv8_d;
        lle_X__Z16convert_int8_rtnDv8_d;
        lle_X__Z20convert_int8_sat_rtnDv8_d;
        lle_X__Z12convert_int8Dv8_d;
        lle_X__Z16convert_int8_satDv8_d;
        lle_X__Z17convert_uint8_rteDv8_c;
        lle_X__Z21convert_uint8_sat_rteDv8_c;
        lle_X__Z17convert_uint8_rtzDv8_c;
        lle_X__Z21convert_uint8_sat_rtzDv8_c;
        lle_X__Z17convert_uint8_rtpDv8_c;
        lle_X__Z21convert_uint8_sat_rtpDv8_c;
        lle_X__Z17convert_uint8_rtnDv8_c;
        lle_X__Z21convert_uint8_sat_rtnDv8_c;
        lle_X__Z13convert_uint8Dv8_c;
        lle_X__Z17convert_uint8_satDv8_c;
        lle_X__Z17convert_uint8_rteDv8_h;
        lle_X__Z21convert_uint8_sat_rteDv8_h;
        lle_X__Z17convert_uint8_rtzDv8_h;
        lle_X__Z21convert_uint8_sat_rtzDv8_h;
        lle_X__Z17convert_uint8_rtpDv8_h;
        lle_X__Z21convert_uint8_sat_rtpDv8_h;
        lle_X__Z17convert_uint8_rtnDv8_h;
        lle_X__Z21convert_uint8_sat_rtnDv8_h;
        lle_X__Z13convert_uint8Dv8_h;
        lle_X__Z17convert_uint8_satDv8_h;
        lle_X__Z17convert_uint8_rteDv8_s;
        lle_X__Z21convert_uint8_sat_rteDv8_s;
        lle_X__Z17convert_uint8_rtzDv8_s;
        lle_X__Z21convert_uint8_sat_rtzDv8_s;
        lle_X__Z17convert_uint8_rtpDv8_s;
        lle_X__Z21convert_uint8_sat_rtpDv8_s;
        lle_X__Z17convert_uint8_rtnDv8_s;
        lle_X__Z21convert_uint8_sat_rtnDv8_s;
        lle_X__Z13convert_uint8Dv8_s;
        lle_X__Z17convert_uint8_satDv8_s;
        lle_X__Z17convert_uint8_rteDv8_t;
        lle_X__Z21convert_uint8_sat_rteDv8_t;
        lle_X__Z17convert_uint8_rtzDv8_t;
        lle_X__Z21convert_uint8_sat_rtzDv8_t;
        lle_X__Z17convert_uint8_rtpDv8_t;
        lle_X__Z21convert_uint8_sat_rtpDv8_t;
        lle_X__Z17convert_uint8_rtnDv8_t;
        lle_X__Z21convert_uint8_sat_rtnDv8_t;
        lle_X__Z13convert_uint8Dv8_t;
        lle_X__Z17convert_uint8_satDv8_t;
        lle_X__Z17convert_uint8_rteDv8_i;
        lle_X__Z21convert_uint8_sat_rteDv8_i;
        lle_X__Z17convert_uint8_rtzDv8_i;
        lle_X__Z21convert_uint8_sat_rtzDv8_i;
        lle_X__Z17convert_uint8_rtpDv8_i;
        lle_X__Z21convert_uint8_sat_rtpDv8_i;
        lle_X__Z17convert_uint8_rtnDv8_i;
        lle_X__Z21convert_uint8_sat_rtnDv8_i;
        lle_X__Z13convert_uint8Dv8_i;
        lle_X__Z17convert_uint8_satDv8_i;
        lle_X__Z17convert_uint8_rteDv8_j;
        lle_X__Z21convert_uint8_sat_rteDv8_j;
        lle_X__Z17convert_uint8_rtzDv8_j;
        lle_X__Z21convert_uint8_sat_rtzDv8_j;
        lle_X__Z17convert_uint8_rtpDv8_j;
        lle_X__Z21convert_uint8_sat_rtpDv8_j;
        lle_X__Z17convert_uint8_rtnDv8_j;
        lle_X__Z21convert_uint8_sat_rtnDv8_j;
        lle_X__Z13convert_uint8Dv8_j;
        lle_X__Z17convert_uint8_satDv8_j;
        lle_X__Z17convert_uint8_rteDv8_l;
        lle_X__Z21convert_uint8_sat_rteDv8_l;
        lle_X__Z17convert_uint8_rtzDv8_l;
        lle_X__Z21convert_uint8_sat_rtzDv8_l;
        lle_X__Z17convert_uint8_rtpDv8_l;
        lle_X__Z21convert_uint8_sat_rtpDv8_l;
        lle_X__Z17convert_uint8_rtnDv8_l;
        lle_X__Z21convert_uint8_sat_rtnDv8_l;
        lle_X__Z13convert_uint8Dv8_l;
        lle_X__Z17convert_uint8_satDv8_l;
        lle_X__Z17convert_uint8_rteDv8_m;
        lle_X__Z21convert_uint8_sat_rteDv8_m;
        lle_X__Z17convert_uint8_rtzDv8_m;
        lle_X__Z21convert_uint8_sat_rtzDv8_m;
        lle_X__Z17convert_uint8_rtpDv8_m;
        lle_X__Z21convert_uint8_sat_rtpDv8_m;
        lle_X__Z17convert_uint8_rtnDv8_m;
        lle_X__Z21convert_uint8_sat_rtnDv8_m;
        lle_X__Z13convert_uint8Dv8_m;
        lle_X__Z17convert_uint8_satDv8_m;
        lle_X__Z17convert_uint8_rteDv8_f;
        lle_X__Z21convert_uint8_sat_rteDv8_f;
        lle_X__Z17convert_uint8_rtzDv8_f;
        lle_X__Z21convert_uint8_sat_rtzDv8_f;
        lle_X__Z17convert_uint8_rtpDv8_f;
        lle_X__Z21convert_uint8_sat_rtpDv8_f;
        lle_X__Z17convert_uint8_rtnDv8_f;
        lle_X__Z21convert_uint8_sat_rtnDv8_f;
        lle_X__Z13convert_uint8Dv8_f;
        lle_X__Z17convert_uint8_satDv8_f;
        lle_X__Z17convert_uint8_rteDv8_d;
        lle_X__Z21convert_uint8_sat_rteDv8_d;
        lle_X__Z17convert_uint8_rtzDv8_d;
        lle_X__Z21convert_uint8_sat_rtzDv8_d;
        lle_X__Z17convert_uint8_rtpDv8_d;
        lle_X__Z21convert_uint8_sat_rtpDv8_d;
        lle_X__Z17convert_uint8_rtnDv8_d;
        lle_X__Z21convert_uint8_sat_rtnDv8_d;
        lle_X__Z13convert_uint8Dv8_d;
        lle_X__Z17convert_uint8_satDv8_d;
        lle_X__Z17convert_long8_rteDv8_c;
        lle_X__Z21convert_long8_sat_rteDv8_c;
        lle_X__Z17convert_long8_rtzDv8_c;
        lle_X__Z21convert_long8_sat_rtzDv8_c;
        lle_X__Z17convert_long8_rtpDv8_c;
        lle_X__Z21convert_long8_sat_rtpDv8_c;
        lle_X__Z17convert_long8_rtnDv8_c;
        lle_X__Z21convert_long8_sat_rtnDv8_c;
        lle_X__Z13convert_long8Dv8_c;
        lle_X__Z17convert_long8_satDv8_c;
        lle_X__Z17convert_long8_rteDv8_h;
        lle_X__Z21convert_long8_sat_rteDv8_h;
        lle_X__Z17convert_long8_rtzDv8_h;
        lle_X__Z21convert_long8_sat_rtzDv8_h;
        lle_X__Z17convert_long8_rtpDv8_h;
        lle_X__Z21convert_long8_sat_rtpDv8_h;
        lle_X__Z17convert_long8_rtnDv8_h;
        lle_X__Z21convert_long8_sat_rtnDv8_h;
        lle_X__Z13convert_long8Dv8_h;
        lle_X__Z17convert_long8_satDv8_h;
        lle_X__Z17convert_long8_rteDv8_s;
        lle_X__Z21convert_long8_sat_rteDv8_s;
        lle_X__Z17convert_long8_rtzDv8_s;
        lle_X__Z21convert_long8_sat_rtzDv8_s;
        lle_X__Z17convert_long8_rtpDv8_s;
        lle_X__Z21convert_long8_sat_rtpDv8_s;
        lle_X__Z17convert_long8_rtnDv8_s;
        lle_X__Z21convert_long8_sat_rtnDv8_s;
        lle_X__Z13convert_long8Dv8_s;
        lle_X__Z17convert_long8_satDv8_s;
        lle_X__Z17convert_long8_rteDv8_t;
        lle_X__Z21convert_long8_sat_rteDv8_t;
        lle_X__Z17convert_long8_rtzDv8_t;
        lle_X__Z21convert_long8_sat_rtzDv8_t;
        lle_X__Z17convert_long8_rtpDv8_t;
        lle_X__Z21convert_long8_sat_rtpDv8_t;
        lle_X__Z17convert_long8_rtnDv8_t;
        lle_X__Z21convert_long8_sat_rtnDv8_t;
        lle_X__Z13convert_long8Dv8_t;
        lle_X__Z17convert_long8_satDv8_t;
        lle_X__Z17convert_long8_rteDv8_i;
        lle_X__Z21convert_long8_sat_rteDv8_i;
        lle_X__Z17convert_long8_rtzDv8_i;
        lle_X__Z21convert_long8_sat_rtzDv8_i;
        lle_X__Z17convert_long8_rtpDv8_i;
        lle_X__Z21convert_long8_sat_rtpDv8_i;
        lle_X__Z17convert_long8_rtnDv8_i;
        lle_X__Z21convert_long8_sat_rtnDv8_i;
        lle_X__Z13convert_long8Dv8_i;
        lle_X__Z17convert_long8_satDv8_i;
        lle_X__Z17convert_long8_rteDv8_j;
        lle_X__Z21convert_long8_sat_rteDv8_j;
        lle_X__Z17convert_long8_rtzDv8_j;
        lle_X__Z21convert_long8_sat_rtzDv8_j;
        lle_X__Z17convert_long8_rtpDv8_j;
        lle_X__Z21convert_long8_sat_rtpDv8_j;
        lle_X__Z17convert_long8_rtnDv8_j;
        lle_X__Z21convert_long8_sat_rtnDv8_j;
        lle_X__Z13convert_long8Dv8_j;
        lle_X__Z17convert_long8_satDv8_j;
        lle_X__Z17convert_long8_rteDv8_l;
        lle_X__Z21convert_long8_sat_rteDv8_l;
        lle_X__Z17convert_long8_rtzDv8_l;
        lle_X__Z21convert_long8_sat_rtzDv8_l;
        lle_X__Z17convert_long8_rtpDv8_l;
        lle_X__Z21convert_long8_sat_rtpDv8_l;
        lle_X__Z17convert_long8_rtnDv8_l;
        lle_X__Z21convert_long8_sat_rtnDv8_l;
        lle_X__Z13convert_long8Dv8_l;
        lle_X__Z17convert_long8_satDv8_l;
        lle_X__Z17convert_long8_rteDv8_m;
        lle_X__Z21convert_long8_sat_rteDv8_m;
        lle_X__Z17convert_long8_rtzDv8_m;
        lle_X__Z21convert_long8_sat_rtzDv8_m;
        lle_X__Z17convert_long8_rtpDv8_m;
        lle_X__Z21convert_long8_sat_rtpDv8_m;
        lle_X__Z17convert_long8_rtnDv8_m;
        lle_X__Z21convert_long8_sat_rtnDv8_m;
        lle_X__Z13convert_long8Dv8_m;
        lle_X__Z17convert_long8_satDv8_m;
        lle_X__Z17convert_long8_rteDv8_f;
        lle_X__Z21convert_long8_sat_rteDv8_f;
        lle_X__Z17convert_long8_rtzDv8_f;
        lle_X__Z21convert_long8_sat_rtzDv8_f;
        lle_X__Z17convert_long8_rtpDv8_f;
        lle_X__Z21convert_long8_sat_rtpDv8_f;
        lle_X__Z17convert_long8_rtnDv8_f;
        lle_X__Z21convert_long8_sat_rtnDv8_f;
        lle_X__Z13convert_long8Dv8_f;
        lle_X__Z17convert_long8_satDv8_f;
        lle_X__Z17convert_long8_rteDv8_d;
        lle_X__Z21convert_long8_sat_rteDv8_d;
        lle_X__Z17convert_long8_rtzDv8_d;
        lle_X__Z21convert_long8_sat_rtzDv8_d;
        lle_X__Z17convert_long8_rtpDv8_d;
        lle_X__Z21convert_long8_sat_rtpDv8_d;
        lle_X__Z17convert_long8_rtnDv8_d;
        lle_X__Z21convert_long8_sat_rtnDv8_d;
        lle_X__Z13convert_long8Dv8_d;
        lle_X__Z17convert_long8_satDv8_d;
        lle_X__Z18convert_ulong8_rteDv8_c;
        lle_X__Z22convert_ulong8_sat_rteDv8_c;
        lle_X__Z18convert_ulong8_rtzDv8_c;
        lle_X__Z22convert_ulong8_sat_rtzDv8_c;
        lle_X__Z18convert_ulong8_rtpDv8_c;
        lle_X__Z22convert_ulong8_sat_rtpDv8_c;
        lle_X__Z18convert_ulong8_rtnDv8_c;
        lle_X__Z22convert_ulong8_sat_rtnDv8_c;
        lle_X__Z14convert_ulong8Dv8_c;
        lle_X__Z18convert_ulong8_satDv8_c;
        lle_X__Z18convert_ulong8_rteDv8_h;
        lle_X__Z22convert_ulong8_sat_rteDv8_h;
        lle_X__Z18convert_ulong8_rtzDv8_h;
        lle_X__Z22convert_ulong8_sat_rtzDv8_h;
        lle_X__Z18convert_ulong8_rtpDv8_h;
        lle_X__Z22convert_ulong8_sat_rtpDv8_h;
        lle_X__Z18convert_ulong8_rtnDv8_h;
        lle_X__Z22convert_ulong8_sat_rtnDv8_h;
        lle_X__Z14convert_ulong8Dv8_h;
        lle_X__Z18convert_ulong8_satDv8_h;
        lle_X__Z18convert_ulong8_rteDv8_s;
        lle_X__Z22convert_ulong8_sat_rteDv8_s;
        lle_X__Z18convert_ulong8_rtzDv8_s;
        lle_X__Z22convert_ulong8_sat_rtzDv8_s;
        lle_X__Z18convert_ulong8_rtpDv8_s;
        lle_X__Z22convert_ulong8_sat_rtpDv8_s;
        lle_X__Z18convert_ulong8_rtnDv8_s;
        lle_X__Z22convert_ulong8_sat_rtnDv8_s;
        lle_X__Z14convert_ulong8Dv8_s;
        lle_X__Z18convert_ulong8_satDv8_s;
        lle_X__Z18convert_ulong8_rteDv8_t;
        lle_X__Z22convert_ulong8_sat_rteDv8_t;
        lle_X__Z18convert_ulong8_rtzDv8_t;
        lle_X__Z22convert_ulong8_sat_rtzDv8_t;
        lle_X__Z18convert_ulong8_rtpDv8_t;
        lle_X__Z22convert_ulong8_sat_rtpDv8_t;
        lle_X__Z18convert_ulong8_rtnDv8_t;
        lle_X__Z22convert_ulong8_sat_rtnDv8_t;
        lle_X__Z14convert_ulong8Dv8_t;
        lle_X__Z18convert_ulong8_satDv8_t;
        lle_X__Z18convert_ulong8_rteDv8_i;
        lle_X__Z22convert_ulong8_sat_rteDv8_i;
        lle_X__Z18convert_ulong8_rtzDv8_i;
        lle_X__Z22convert_ulong8_sat_rtzDv8_i;
        lle_X__Z18convert_ulong8_rtpDv8_i;
        lle_X__Z22convert_ulong8_sat_rtpDv8_i;
        lle_X__Z18convert_ulong8_rtnDv8_i;
        lle_X__Z22convert_ulong8_sat_rtnDv8_i;
        lle_X__Z14convert_ulong8Dv8_i;
        lle_X__Z18convert_ulong8_satDv8_i;
        lle_X__Z18convert_ulong8_rteDv8_j;
        lle_X__Z22convert_ulong8_sat_rteDv8_j;
        lle_X__Z18convert_ulong8_rtzDv8_j;
        lle_X__Z22convert_ulong8_sat_rtzDv8_j;
        lle_X__Z18convert_ulong8_rtpDv8_j;
        lle_X__Z22convert_ulong8_sat_rtpDv8_j;
        lle_X__Z18convert_ulong8_rtnDv8_j;
        lle_X__Z22convert_ulong8_sat_rtnDv8_j;
        lle_X__Z14convert_ulong8Dv8_j;
        lle_X__Z18convert_ulong8_satDv8_j;
        lle_X__Z18convert_ulong8_rteDv8_l;
        lle_X__Z22convert_ulong8_sat_rteDv8_l;
        lle_X__Z18convert_ulong8_rtzDv8_l;
        lle_X__Z22convert_ulong8_sat_rtzDv8_l;
        lle_X__Z18convert_ulong8_rtpDv8_l;
        lle_X__Z22convert_ulong8_sat_rtpDv8_l;
        lle_X__Z18convert_ulong8_rtnDv8_l;
        lle_X__Z22convert_ulong8_sat_rtnDv8_l;
        lle_X__Z14convert_ulong8Dv8_l;
        lle_X__Z18convert_ulong8_satDv8_l;
        lle_X__Z18convert_ulong8_rteDv8_m;
        lle_X__Z22convert_ulong8_sat_rteDv8_m;
        lle_X__Z18convert_ulong8_rtzDv8_m;
        lle_X__Z22convert_ulong8_sat_rtzDv8_m;
        lle_X__Z18convert_ulong8_rtpDv8_m;
        lle_X__Z22convert_ulong8_sat_rtpDv8_m;
        lle_X__Z18convert_ulong8_rtnDv8_m;
        lle_X__Z22convert_ulong8_sat_rtnDv8_m;
        lle_X__Z14convert_ulong8Dv8_m;
        lle_X__Z18convert_ulong8_satDv8_m;
        lle_X__Z18convert_ulong8_rteDv8_f;
        lle_X__Z22convert_ulong8_sat_rteDv8_f;
        lle_X__Z18convert_ulong8_rtzDv8_f;
        lle_X__Z22convert_ulong8_sat_rtzDv8_f;
        lle_X__Z18convert_ulong8_rtpDv8_f;
        lle_X__Z22convert_ulong8_sat_rtpDv8_f;
        lle_X__Z18convert_ulong8_rtnDv8_f;
        lle_X__Z22convert_ulong8_sat_rtnDv8_f;
        lle_X__Z14convert_ulong8Dv8_f;
        lle_X__Z18convert_ulong8_satDv8_f;
        lle_X__Z18convert_ulong8_rteDv8_d;
        lle_X__Z22convert_ulong8_sat_rteDv8_d;
        lle_X__Z18convert_ulong8_rtzDv8_d;
        lle_X__Z22convert_ulong8_sat_rtzDv8_d;
        lle_X__Z18convert_ulong8_rtpDv8_d;
        lle_X__Z22convert_ulong8_sat_rtpDv8_d;
        lle_X__Z18convert_ulong8_rtnDv8_d;
        lle_X__Z22convert_ulong8_sat_rtnDv8_d;
        lle_X__Z14convert_ulong8Dv8_d;
        lle_X__Z18convert_ulong8_satDv8_d;
        lle_X__Z19convert_double8_rteDv8_c;
        lle_X__Z23convert_double8_sat_rteDv8_c;
        lle_X__Z19convert_double8_rtzDv8_c;
        lle_X__Z23convert_double8_sat_rtzDv8_c;
        lle_X__Z19convert_double8_rtpDv8_c;
        lle_X__Z23convert_double8_sat_rtpDv8_c;
        lle_X__Z19convert_double8_rtnDv8_c;
        lle_X__Z23convert_double8_sat_rtnDv8_c;
        lle_X__Z15convert_double8Dv8_c;
        lle_X__Z19convert_double8_satDv8_c;
        lle_X__Z19convert_double8_rteDv8_h;
        lle_X__Z23convert_double8_sat_rteDv8_h;
        lle_X__Z19convert_double8_rtzDv8_h;
        lle_X__Z23convert_double8_sat_rtzDv8_h;
        lle_X__Z19convert_double8_rtpDv8_h;
        lle_X__Z23convert_double8_sat_rtpDv8_h;
        lle_X__Z19convert_double8_rtnDv8_h;
        lle_X__Z23convert_double8_sat_rtnDv8_h;
        lle_X__Z15convert_double8Dv8_h;
        lle_X__Z19convert_double8_satDv8_h;
        lle_X__Z19convert_double8_rteDv8_s;
        lle_X__Z23convert_double8_sat_rteDv8_s;
        lle_X__Z19convert_double8_rtzDv8_s;
        lle_X__Z23convert_double8_sat_rtzDv8_s;
        lle_X__Z19convert_double8_rtpDv8_s;
        lle_X__Z23convert_double8_sat_rtpDv8_s;
        lle_X__Z19convert_double8_rtnDv8_s;
        lle_X__Z23convert_double8_sat_rtnDv8_s;
        lle_X__Z15convert_double8Dv8_s;
        lle_X__Z19convert_double8_satDv8_s;
        lle_X__Z19convert_double8_rteDv8_t;
        lle_X__Z23convert_double8_sat_rteDv8_t;
        lle_X__Z19convert_double8_rtzDv8_t;
        lle_X__Z23convert_double8_sat_rtzDv8_t;
        lle_X__Z19convert_double8_rtpDv8_t;
        lle_X__Z23convert_double8_sat_rtpDv8_t;
        lle_X__Z19convert_double8_rtnDv8_t;
        lle_X__Z23convert_double8_sat_rtnDv8_t;
        lle_X__Z15convert_double8Dv8_t;
        lle_X__Z19convert_double8_satDv8_t;
        lle_X__Z19convert_double8_rteDv8_i;
        lle_X__Z23convert_double8_sat_rteDv8_i;
        lle_X__Z19convert_double8_rtzDv8_i;
        lle_X__Z23convert_double8_sat_rtzDv8_i;
        lle_X__Z19convert_double8_rtpDv8_i;
        lle_X__Z23convert_double8_sat_rtpDv8_i;
        lle_X__Z19convert_double8_rtnDv8_i;
        lle_X__Z23convert_double8_sat_rtnDv8_i;
        lle_X__Z15convert_double8Dv8_i;
        lle_X__Z19convert_double8_satDv8_i;
        lle_X__Z19convert_double8_rteDv8_j;
        lle_X__Z23convert_double8_sat_rteDv8_j;
        lle_X__Z19convert_double8_rtzDv8_j;
        lle_X__Z23convert_double8_sat_rtzDv8_j;
        lle_X__Z19convert_double8_rtpDv8_j;
        lle_X__Z23convert_double8_sat_rtpDv8_j;
        lle_X__Z19convert_double8_rtnDv8_j;
        lle_X__Z23convert_double8_sat_rtnDv8_j;
        lle_X__Z15convert_double8Dv8_j;
        lle_X__Z19convert_double8_satDv8_j;
        lle_X__Z19convert_double8_rteDv8_l;
        lle_X__Z23convert_double8_sat_rteDv8_l;
        lle_X__Z19convert_double8_rtzDv8_l;
        lle_X__Z23convert_double8_sat_rtzDv8_l;
        lle_X__Z19convert_double8_rtpDv8_l;
        lle_X__Z23convert_double8_sat_rtpDv8_l;
        lle_X__Z19convert_double8_rtnDv8_l;
        lle_X__Z23convert_double8_sat_rtnDv8_l;
        lle_X__Z15convert_double8Dv8_l;
        lle_X__Z19convert_double8_satDv8_l;
        lle_X__Z19convert_double8_rteDv8_m;
        lle_X__Z23convert_double8_sat_rteDv8_m;
        lle_X__Z19convert_double8_rtzDv8_m;
        lle_X__Z23convert_double8_sat_rtzDv8_m;
        lle_X__Z19convert_double8_rtpDv8_m;
        lle_X__Z23convert_double8_sat_rtpDv8_m;
        lle_X__Z19convert_double8_rtnDv8_m;
        lle_X__Z23convert_double8_sat_rtnDv8_m;
        lle_X__Z15convert_double8Dv8_m;
        lle_X__Z19convert_double8_satDv8_m;
        lle_X__Z19convert_double8_rteDv8_f;
        lle_X__Z23convert_double8_sat_rteDv8_f;
        lle_X__Z19convert_double8_rtzDv8_f;
        lle_X__Z23convert_double8_sat_rtzDv8_f;
        lle_X__Z19convert_double8_rtpDv8_f;
        lle_X__Z23convert_double8_sat_rtpDv8_f;
        lle_X__Z19convert_double8_rtnDv8_f;
        lle_X__Z23convert_double8_sat_rtnDv8_f;
        lle_X__Z15convert_double8Dv8_f;
        lle_X__Z19convert_double8_satDv8_f;
        lle_X__Z19convert_double8_rteDv8_d;
        lle_X__Z23convert_double8_sat_rteDv8_d;
        lle_X__Z19convert_double8_rtzDv8_d;
        lle_X__Z23convert_double8_sat_rtzDv8_d;
        lle_X__Z19convert_double8_rtpDv8_d;
        lle_X__Z23convert_double8_sat_rtpDv8_d;
        lle_X__Z19convert_double8_rtnDv8_d;
        lle_X__Z23convert_double8_sat_rtnDv8_d;
        lle_X__Z15convert_double8Dv8_d;
        lle_X__Z19convert_double8_satDv8_d;
        lle_X__Z18convert_char16_rteDv16_c;
        lle_X__Z22convert_char16_sat_rteDv16_c;
        lle_X__Z18convert_char16_rtzDv16_c;
        lle_X__Z22convert_char16_sat_rtzDv16_c;
        lle_X__Z18convert_char16_rtpDv16_c;
        lle_X__Z22convert_char16_sat_rtpDv16_c;
        lle_X__Z18convert_char16_rtnDv16_c;
        lle_X__Z22convert_char16_sat_rtnDv16_c;
        lle_X__Z14convert_char16Dv16_c;
        lle_X__Z18convert_char16_satDv16_c;
        lle_X__Z18convert_char16_rteDv16_h;
        lle_X__Z22convert_char16_sat_rteDv16_h;
        lle_X__Z18convert_char16_rtzDv16_h;
        lle_X__Z22convert_char16_sat_rtzDv16_h;
        lle_X__Z18convert_char16_rtpDv16_h;
        lle_X__Z22convert_char16_sat_rtpDv16_h;
        lle_X__Z18convert_char16_rtnDv16_h;
        lle_X__Z22convert_char16_sat_rtnDv16_h;
        lle_X__Z14convert_char16Dv16_h;
        lle_X__Z18convert_char16_satDv16_h;
        lle_X__Z18convert_char16_rteDv16_s;
        lle_X__Z22convert_char16_sat_rteDv16_s;
        lle_X__Z18convert_char16_rtzDv16_s;
        lle_X__Z22convert_char16_sat_rtzDv16_s;
        lle_X__Z18convert_char16_rtpDv16_s;
        lle_X__Z22convert_char16_sat_rtpDv16_s;
        lle_X__Z18convert_char16_rtnDv16_s;
        lle_X__Z22convert_char16_sat_rtnDv16_s;
        lle_X__Z14convert_char16Dv16_s;
        lle_X__Z18convert_char16_satDv16_s;
        lle_X__Z18convert_char16_rteDv16_t;
        lle_X__Z22convert_char16_sat_rteDv16_t;
        lle_X__Z18convert_char16_rtzDv16_t;
        lle_X__Z22convert_char16_sat_rtzDv16_t;
        lle_X__Z18convert_char16_rtpDv16_t;
        lle_X__Z22convert_char16_sat_rtpDv16_t;
        lle_X__Z18convert_char16_rtnDv16_t;
        lle_X__Z22convert_char16_sat_rtnDv16_t;
        lle_X__Z14convert_char16Dv16_t;
        lle_X__Z18convert_char16_satDv16_t;
        lle_X__Z18convert_char16_rteDv16_i;
        lle_X__Z22convert_char16_sat_rteDv16_i;
        lle_X__Z18convert_char16_rtzDv16_i;
        lle_X__Z22convert_char16_sat_rtzDv16_i;
        lle_X__Z18convert_char16_rtpDv16_i;
        lle_X__Z22convert_char16_sat_rtpDv16_i;
        lle_X__Z18convert_char16_rtnDv16_i;
        lle_X__Z22convert_char16_sat_rtnDv16_i;
        lle_X__Z14convert_char16Dv16_i;
        lle_X__Z18convert_char16_satDv16_i;
        lle_X__Z18convert_char16_rteDv16_j;
        lle_X__Z22convert_char16_sat_rteDv16_j;
        lle_X__Z18convert_char16_rtzDv16_j;
        lle_X__Z22convert_char16_sat_rtzDv16_j;
        lle_X__Z18convert_char16_rtpDv16_j;
        lle_X__Z22convert_char16_sat_rtpDv16_j;
        lle_X__Z18convert_char16_rtnDv16_j;
        lle_X__Z22convert_char16_sat_rtnDv16_j;
        lle_X__Z14convert_char16Dv16_j;
        lle_X__Z18convert_char16_satDv16_j;
        lle_X__Z18convert_char16_rteDv16_l;
        lle_X__Z22convert_char16_sat_rteDv16_l;
        lle_X__Z18convert_char16_rtzDv16_l;
        lle_X__Z22convert_char16_sat_rtzDv16_l;
        lle_X__Z18convert_char16_rtpDv16_l;
        lle_X__Z22convert_char16_sat_rtpDv16_l;
        lle_X__Z18convert_char16_rtnDv16_l;
        lle_X__Z22convert_char16_sat_rtnDv16_l;
        lle_X__Z14convert_char16Dv16_l;
        lle_X__Z18convert_char16_satDv16_l;
        lle_X__Z18convert_char16_rteDv16_m;
        lle_X__Z22convert_char16_sat_rteDv16_m;
        lle_X__Z18convert_char16_rtzDv16_m;
        lle_X__Z22convert_char16_sat_rtzDv16_m;
        lle_X__Z18convert_char16_rtpDv16_m;
        lle_X__Z22convert_char16_sat_rtpDv16_m;
        lle_X__Z18convert_char16_rtnDv16_m;
        lle_X__Z22convert_char16_sat_rtnDv16_m;
        lle_X__Z14convert_char16Dv16_m;
        lle_X__Z18convert_char16_satDv16_m;
        lle_X__Z18convert_char16_rteDv16_f;
        lle_X__Z22convert_char16_sat_rteDv16_f;
        lle_X__Z18convert_char16_rtzDv16_f;
        lle_X__Z22convert_char16_sat_rtzDv16_f;
        lle_X__Z18convert_char16_rtpDv16_f;
        lle_X__Z22convert_char16_sat_rtpDv16_f;
        lle_X__Z18convert_char16_rtnDv16_f;
        lle_X__Z22convert_char16_sat_rtnDv16_f;
        lle_X__Z14convert_char16Dv16_f;
        lle_X__Z18convert_char16_satDv16_f;
        lle_X__Z18convert_char16_rteDv16_d;
        lle_X__Z22convert_char16_sat_rteDv16_d;
        lle_X__Z18convert_char16_rtzDv16_d;
        lle_X__Z22convert_char16_sat_rtzDv16_d;
        lle_X__Z18convert_char16_rtpDv16_d;
        lle_X__Z22convert_char16_sat_rtpDv16_d;
        lle_X__Z18convert_char16_rtnDv16_d;
        lle_X__Z22convert_char16_sat_rtnDv16_d;
        lle_X__Z14convert_char16Dv16_d;
        lle_X__Z18convert_char16_satDv16_d;
        lle_X__Z19convert_uchar16_rteDv16_c;
        lle_X__Z23convert_uchar16_sat_rteDv16_c;
        lle_X__Z19convert_uchar16_rtzDv16_c;
        lle_X__Z23convert_uchar16_sat_rtzDv16_c;
        lle_X__Z19convert_uchar16_rtpDv16_c;
        lle_X__Z23convert_uchar16_sat_rtpDv16_c;
        lle_X__Z19convert_uchar16_rtnDv16_c;
        lle_X__Z23convert_uchar16_sat_rtnDv16_c;
        lle_X__Z15convert_uchar16Dv16_c;
        lle_X__Z19convert_uchar16_satDv16_c;
        lle_X__Z19convert_uchar16_rteDv16_h;
        lle_X__Z23convert_uchar16_sat_rteDv16_h;
        lle_X__Z19convert_uchar16_rtzDv16_h;
        lle_X__Z23convert_uchar16_sat_rtzDv16_h;
        lle_X__Z19convert_uchar16_rtpDv16_h;
        lle_X__Z23convert_uchar16_sat_rtpDv16_h;
        lle_X__Z19convert_uchar16_rtnDv16_h;
        lle_X__Z23convert_uchar16_sat_rtnDv16_h;
        lle_X__Z15convert_uchar16Dv16_h;
        lle_X__Z19convert_uchar16_satDv16_h;
        lle_X__Z19convert_uchar16_rteDv16_s;
        lle_X__Z23convert_uchar16_sat_rteDv16_s;
        lle_X__Z19convert_uchar16_rtzDv16_s;
        lle_X__Z23convert_uchar16_sat_rtzDv16_s;
        lle_X__Z19convert_uchar16_rtpDv16_s;
        lle_X__Z23convert_uchar16_sat_rtpDv16_s;
        lle_X__Z19convert_uchar16_rtnDv16_s;
        lle_X__Z23convert_uchar16_sat_rtnDv16_s;
        lle_X__Z15convert_uchar16Dv16_s;
        lle_X__Z19convert_uchar16_satDv16_s;
        lle_X__Z19convert_uchar16_rteDv16_t;
        lle_X__Z23convert_uchar16_sat_rteDv16_t;
        lle_X__Z19convert_uchar16_rtzDv16_t;
        lle_X__Z23convert_uchar16_sat_rtzDv16_t;
        lle_X__Z19convert_uchar16_rtpDv16_t;
        lle_X__Z23convert_uchar16_sat_rtpDv16_t;
        lle_X__Z19convert_uchar16_rtnDv16_t;
        lle_X__Z23convert_uchar16_sat_rtnDv16_t;
        lle_X__Z15convert_uchar16Dv16_t;
        lle_X__Z19convert_uchar16_satDv16_t;
        lle_X__Z19convert_uchar16_rteDv16_i;
        lle_X__Z23convert_uchar16_sat_rteDv16_i;
        lle_X__Z19convert_uchar16_rtzDv16_i;
        lle_X__Z23convert_uchar16_sat_rtzDv16_i;
        lle_X__Z19convert_uchar16_rtpDv16_i;
        lle_X__Z23convert_uchar16_sat_rtpDv16_i;
        lle_X__Z19convert_uchar16_rtnDv16_i;
        lle_X__Z23convert_uchar16_sat_rtnDv16_i;
        lle_X__Z15convert_uchar16Dv16_i;
        lle_X__Z19convert_uchar16_satDv16_i;
        lle_X__Z19convert_uchar16_rteDv16_j;
        lle_X__Z23convert_uchar16_sat_rteDv16_j;
        lle_X__Z19convert_uchar16_rtzDv16_j;
        lle_X__Z23convert_uchar16_sat_rtzDv16_j;
        lle_X__Z19convert_uchar16_rtpDv16_j;
        lle_X__Z23convert_uchar16_sat_rtpDv16_j;
        lle_X__Z19convert_uchar16_rtnDv16_j;
        lle_X__Z23convert_uchar16_sat_rtnDv16_j;
        lle_X__Z15convert_uchar16Dv16_j;
        lle_X__Z19convert_uchar16_satDv16_j;
        lle_X__Z19convert_uchar16_rteDv16_l;
        lle_X__Z23convert_uchar16_sat_rteDv16_l;
        lle_X__Z19convert_uchar16_rtzDv16_l;
        lle_X__Z23convert_uchar16_sat_rtzDv16_l;
        lle_X__Z19convert_uchar16_rtpDv16_l;
        lle_X__Z23convert_uchar16_sat_rtpDv16_l;
        lle_X__Z19convert_uchar16_rtnDv16_l;
        lle_X__Z23convert_uchar16_sat_rtnDv16_l;
        lle_X__Z15convert_uchar16Dv16_l;
        lle_X__Z19convert_uchar16_satDv16_l;
        lle_X__Z19convert_uchar16_rteDv16_m;
        lle_X__Z23convert_uchar16_sat_rteDv16_m;
        lle_X__Z19convert_uchar16_rtzDv16_m;
        lle_X__Z23convert_uchar16_sat_rtzDv16_m;
        lle_X__Z19convert_uchar16_rtpDv16_m;
        lle_X__Z23convert_uchar16_sat_rtpDv16_m;
        lle_X__Z19convert_uchar16_rtnDv16_m;
        lle_X__Z23convert_uchar16_sat_rtnDv16_m;
        lle_X__Z15convert_uchar16Dv16_m;
        lle_X__Z19convert_uchar16_satDv16_m;
        lle_X__Z19convert_uchar16_rteDv16_f;
        lle_X__Z23convert_uchar16_sat_rteDv16_f;
        lle_X__Z19convert_uchar16_rtzDv16_f;
        lle_X__Z23convert_uchar16_sat_rtzDv16_f;
        lle_X__Z19convert_uchar16_rtpDv16_f;
        lle_X__Z23convert_uchar16_sat_rtpDv16_f;
        lle_X__Z19convert_uchar16_rtnDv16_f;
        lle_X__Z23convert_uchar16_sat_rtnDv16_f;
        lle_X__Z15convert_uchar16Dv16_f;
        lle_X__Z19convert_uchar16_satDv16_f;
        lle_X__Z19convert_uchar16_rteDv16_d;
        lle_X__Z23convert_uchar16_sat_rteDv16_d;
        lle_X__Z19convert_uchar16_rtzDv16_d;
        lle_X__Z23convert_uchar16_sat_rtzDv16_d;
        lle_X__Z19convert_uchar16_rtpDv16_d;
        lle_X__Z23convert_uchar16_sat_rtpDv16_d;
        lle_X__Z19convert_uchar16_rtnDv16_d;
        lle_X__Z23convert_uchar16_sat_rtnDv16_d;
        lle_X__Z15convert_uchar16Dv16_d;
        lle_X__Z19convert_uchar16_satDv16_d;
        lle_X__Z19convert_short16_rteDv16_c;
        lle_X__Z23convert_short16_sat_rteDv16_c;
        lle_X__Z19convert_short16_rtzDv16_c;
        lle_X__Z23convert_short16_sat_rtzDv16_c;
        lle_X__Z19convert_short16_rtpDv16_c;
        lle_X__Z23convert_short16_sat_rtpDv16_c;
        lle_X__Z19convert_short16_rtnDv16_c;
        lle_X__Z23convert_short16_sat_rtnDv16_c;
        lle_X__Z15convert_short16Dv16_c;
        lle_X__Z19convert_short16_satDv16_c;
        lle_X__Z19convert_short16_rteDv16_h;
        lle_X__Z23convert_short16_sat_rteDv16_h;
        lle_X__Z19convert_short16_rtzDv16_h;
        lle_X__Z23convert_short16_sat_rtzDv16_h;
        lle_X__Z19convert_short16_rtpDv16_h;
        lle_X__Z23convert_short16_sat_rtpDv16_h;
        lle_X__Z19convert_short16_rtnDv16_h;
        lle_X__Z23convert_short16_sat_rtnDv16_h;
        lle_X__Z15convert_short16Dv16_h;
        lle_X__Z19convert_short16_satDv16_h;
        lle_X__Z19convert_short16_rteDv16_s;
        lle_X__Z23convert_short16_sat_rteDv16_s;
        lle_X__Z19convert_short16_rtzDv16_s;
        lle_X__Z23convert_short16_sat_rtzDv16_s;
        lle_X__Z19convert_short16_rtpDv16_s;
        lle_X__Z23convert_short16_sat_rtpDv16_s;
        lle_X__Z19convert_short16_rtnDv16_s;
        lle_X__Z23convert_short16_sat_rtnDv16_s;
        lle_X__Z15convert_short16Dv16_s;
        lle_X__Z19convert_short16_satDv16_s;
        lle_X__Z19convert_short16_rteDv16_t;
        lle_X__Z23convert_short16_sat_rteDv16_t;
        lle_X__Z19convert_short16_rtzDv16_t;
        lle_X__Z23convert_short16_sat_rtzDv16_t;
        lle_X__Z19convert_short16_rtpDv16_t;
        lle_X__Z23convert_short16_sat_rtpDv16_t;
        lle_X__Z19convert_short16_rtnDv16_t;
        lle_X__Z23convert_short16_sat_rtnDv16_t;
        lle_X__Z15convert_short16Dv16_t;
        lle_X__Z19convert_short16_satDv16_t;
        lle_X__Z19convert_short16_rteDv16_i;
        lle_X__Z23convert_short16_sat_rteDv16_i;
        lle_X__Z19convert_short16_rtzDv16_i;
        lle_X__Z23convert_short16_sat_rtzDv16_i;
        lle_X__Z19convert_short16_rtpDv16_i;
        lle_X__Z23convert_short16_sat_rtpDv16_i;
        lle_X__Z19convert_short16_rtnDv16_i;
        lle_X__Z23convert_short16_sat_rtnDv16_i;
        lle_X__Z15convert_short16Dv16_i;
        lle_X__Z19convert_short16_satDv16_i;
        lle_X__Z19convert_short16_rteDv16_j;
        lle_X__Z23convert_short16_sat_rteDv16_j;
        lle_X__Z19convert_short16_rtzDv16_j;
        lle_X__Z23convert_short16_sat_rtzDv16_j;
        lle_X__Z19convert_short16_rtpDv16_j;
        lle_X__Z23convert_short16_sat_rtpDv16_j;
        lle_X__Z19convert_short16_rtnDv16_j;
        lle_X__Z23convert_short16_sat_rtnDv16_j;
        lle_X__Z15convert_short16Dv16_j;
        lle_X__Z19convert_short16_satDv16_j;
        lle_X__Z19convert_short16_rteDv16_l;
        lle_X__Z23convert_short16_sat_rteDv16_l;
        lle_X__Z19convert_short16_rtzDv16_l;
        lle_X__Z23convert_short16_sat_rtzDv16_l;
        lle_X__Z19convert_short16_rtpDv16_l;
        lle_X__Z23convert_short16_sat_rtpDv16_l;
        lle_X__Z19convert_short16_rtnDv16_l;
        lle_X__Z23convert_short16_sat_rtnDv16_l;
        lle_X__Z15convert_short16Dv16_l;
        lle_X__Z19convert_short16_satDv16_l;
        lle_X__Z19convert_short16_rteDv16_m;
        lle_X__Z23convert_short16_sat_rteDv16_m;
        lle_X__Z19convert_short16_rtzDv16_m;
        lle_X__Z23convert_short16_sat_rtzDv16_m;
        lle_X__Z19convert_short16_rtpDv16_m;
        lle_X__Z23convert_short16_sat_rtpDv16_m;
        lle_X__Z19convert_short16_rtnDv16_m;
        lle_X__Z23convert_short16_sat_rtnDv16_m;
        lle_X__Z15convert_short16Dv16_m;
        lle_X__Z19convert_short16_satDv16_m;
        lle_X__Z19convert_short16_rteDv16_f;
        lle_X__Z23convert_short16_sat_rteDv16_f;
        lle_X__Z19convert_short16_rtzDv16_f;
        lle_X__Z23convert_short16_sat_rtzDv16_f;
        lle_X__Z19convert_short16_rtpDv16_f;
        lle_X__Z23convert_short16_sat_rtpDv16_f;
        lle_X__Z19convert_short16_rtnDv16_f;
        lle_X__Z23convert_short16_sat_rtnDv16_f;
        lle_X__Z15convert_short16Dv16_f;
        lle_X__Z19convert_short16_satDv16_f;
        lle_X__Z19convert_short16_rteDv16_d;
        lle_X__Z23convert_short16_sat_rteDv16_d;
        lle_X__Z19convert_short16_rtzDv16_d;
        lle_X__Z23convert_short16_sat_rtzDv16_d;
        lle_X__Z19convert_short16_rtpDv16_d;
        lle_X__Z23convert_short16_sat_rtpDv16_d;
        lle_X__Z19convert_short16_rtnDv16_d;
        lle_X__Z23convert_short16_sat_rtnDv16_d;
        lle_X__Z15convert_short16Dv16_d;
        lle_X__Z19convert_short16_satDv16_d;
        lle_X__Z20convert_ushort16_rteDv16_c;
        lle_X__Z24convert_ushort16_sat_rteDv16_c;
        lle_X__Z20convert_ushort16_rtzDv16_c;
        lle_X__Z24convert_ushort16_sat_rtzDv16_c;
        lle_X__Z20convert_ushort16_rtpDv16_c;
        lle_X__Z24convert_ushort16_sat_rtpDv16_c;
        lle_X__Z20convert_ushort16_rtnDv16_c;
        lle_X__Z24convert_ushort16_sat_rtnDv16_c;
        lle_X__Z16convert_ushort16Dv16_c;
        lle_X__Z20convert_ushort16_satDv16_c;
        lle_X__Z20convert_ushort16_rteDv16_h;
        lle_X__Z24convert_ushort16_sat_rteDv16_h;
        lle_X__Z20convert_ushort16_rtzDv16_h;
        lle_X__Z24convert_ushort16_sat_rtzDv16_h;
        lle_X__Z20convert_ushort16_rtpDv16_h;
        lle_X__Z24convert_ushort16_sat_rtpDv16_h;
        lle_X__Z20convert_ushort16_rtnDv16_h;
        lle_X__Z24convert_ushort16_sat_rtnDv16_h;
        lle_X__Z16convert_ushort16Dv16_h;
        lle_X__Z20convert_ushort16_satDv16_h;
        lle_X__Z20convert_ushort16_rteDv16_s;
        lle_X__Z24convert_ushort16_sat_rteDv16_s;
        lle_X__Z20convert_ushort16_rtzDv16_s;
        lle_X__Z24convert_ushort16_sat_rtzDv16_s;
        lle_X__Z20convert_ushort16_rtpDv16_s;
        lle_X__Z24convert_ushort16_sat_rtpDv16_s;
        lle_X__Z20convert_ushort16_rtnDv16_s;
        lle_X__Z24convert_ushort16_sat_rtnDv16_s;
        lle_X__Z16convert_ushort16Dv16_s;
        lle_X__Z20convert_ushort16_satDv16_s;
        lle_X__Z20convert_ushort16_rteDv16_t;
        lle_X__Z24convert_ushort16_sat_rteDv16_t;
        lle_X__Z20convert_ushort16_rtzDv16_t;
        lle_X__Z24convert_ushort16_sat_rtzDv16_t;
        lle_X__Z20convert_ushort16_rtpDv16_t;
        lle_X__Z24convert_ushort16_sat_rtpDv16_t;
        lle_X__Z20convert_ushort16_rtnDv16_t;
        lle_X__Z24convert_ushort16_sat_rtnDv16_t;
        lle_X__Z16convert_ushort16Dv16_t;
        lle_X__Z20convert_ushort16_satDv16_t;
        lle_X__Z20convert_ushort16_rteDv16_i;
        lle_X__Z24convert_ushort16_sat_rteDv16_i;
        lle_X__Z20convert_ushort16_rtzDv16_i;
        lle_X__Z24convert_ushort16_sat_rtzDv16_i;
        lle_X__Z20convert_ushort16_rtpDv16_i;
        lle_X__Z24convert_ushort16_sat_rtpDv16_i;
        lle_X__Z20convert_ushort16_rtnDv16_i;
        lle_X__Z24convert_ushort16_sat_rtnDv16_i;
        lle_X__Z16convert_ushort16Dv16_i;
        lle_X__Z20convert_ushort16_satDv16_i;
        lle_X__Z20convert_ushort16_rteDv16_j;
        lle_X__Z24convert_ushort16_sat_rteDv16_j;
        lle_X__Z20convert_ushort16_rtzDv16_j;
        lle_X__Z24convert_ushort16_sat_rtzDv16_j;
        lle_X__Z20convert_ushort16_rtpDv16_j;
        lle_X__Z24convert_ushort16_sat_rtpDv16_j;
        lle_X__Z20convert_ushort16_rtnDv16_j;
        lle_X__Z24convert_ushort16_sat_rtnDv16_j;
        lle_X__Z16convert_ushort16Dv16_j;
        lle_X__Z20convert_ushort16_satDv16_j;
        lle_X__Z20convert_ushort16_rteDv16_l;
        lle_X__Z24convert_ushort16_sat_rteDv16_l;
        lle_X__Z20convert_ushort16_rtzDv16_l;
        lle_X__Z24convert_ushort16_sat_rtzDv16_l;
        lle_X__Z20convert_ushort16_rtpDv16_l;
        lle_X__Z24convert_ushort16_sat_rtpDv16_l;
        lle_X__Z20convert_ushort16_rtnDv16_l;
        lle_X__Z24convert_ushort16_sat_rtnDv16_l;
        lle_X__Z16convert_ushort16Dv16_l;
        lle_X__Z20convert_ushort16_satDv16_l;
        lle_X__Z20convert_ushort16_rteDv16_m;
        lle_X__Z24convert_ushort16_sat_rteDv16_m;
        lle_X__Z20convert_ushort16_rtzDv16_m;
        lle_X__Z24convert_ushort16_sat_rtzDv16_m;
        lle_X__Z20convert_ushort16_rtpDv16_m;
        lle_X__Z24convert_ushort16_sat_rtpDv16_m;
        lle_X__Z20convert_ushort16_rtnDv16_m;
        lle_X__Z24convert_ushort16_sat_rtnDv16_m;
        lle_X__Z16convert_ushort16Dv16_m;
        lle_X__Z20convert_ushort16_satDv16_m;
        lle_X__Z20convert_ushort16_rteDv16_f;
        lle_X__Z24convert_ushort16_sat_rteDv16_f;
        lle_X__Z20convert_ushort16_rtzDv16_f;
        lle_X__Z24convert_ushort16_sat_rtzDv16_f;
        lle_X__Z20convert_ushort16_rtpDv16_f;
        lle_X__Z24convert_ushort16_sat_rtpDv16_f;
        lle_X__Z20convert_ushort16_rtnDv16_f;
        lle_X__Z24convert_ushort16_sat_rtnDv16_f;
        lle_X__Z16convert_ushort16Dv16_f;
        lle_X__Z20convert_ushort16_satDv16_f;
        lle_X__Z20convert_ushort16_rteDv16_d;
        lle_X__Z24convert_ushort16_sat_rteDv16_d;
        lle_X__Z20convert_ushort16_rtzDv16_d;
        lle_X__Z24convert_ushort16_sat_rtzDv16_d;
        lle_X__Z20convert_ushort16_rtpDv16_d;
        lle_X__Z24convert_ushort16_sat_rtpDv16_d;
        lle_X__Z20convert_ushort16_rtnDv16_d;
        lle_X__Z24convert_ushort16_sat_rtnDv16_d;
        lle_X__Z16convert_ushort16Dv16_d;
        lle_X__Z20convert_ushort16_satDv16_d;
        lle_X__Z17convert_int16_rteDv16_c;
        lle_X__Z21convert_int16_sat_rteDv16_c;
        lle_X__Z17convert_int16_rtzDv16_c;
        lle_X__Z21convert_int16_sat_rtzDv16_c;
        lle_X__Z17convert_int16_rtpDv16_c;
        lle_X__Z21convert_int16_sat_rtpDv16_c;
        lle_X__Z17convert_int16_rtnDv16_c;
        lle_X__Z21convert_int16_sat_rtnDv16_c;
        lle_X__Z13convert_int16Dv16_c;
        lle_X__Z17convert_int16_satDv16_c;
        lle_X__Z17convert_int16_rteDv16_h;
        lle_X__Z21convert_int16_sat_rteDv16_h;
        lle_X__Z17convert_int16_rtzDv16_h;
        lle_X__Z21convert_int16_sat_rtzDv16_h;
        lle_X__Z17convert_int16_rtpDv16_h;
        lle_X__Z21convert_int16_sat_rtpDv16_h;
        lle_X__Z17convert_int16_rtnDv16_h;
        lle_X__Z21convert_int16_sat_rtnDv16_h;
        lle_X__Z13convert_int16Dv16_h;
        lle_X__Z17convert_int16_satDv16_h;
        lle_X__Z17convert_int16_rteDv16_s;
        lle_X__Z21convert_int16_sat_rteDv16_s;
        lle_X__Z17convert_int16_rtzDv16_s;
        lle_X__Z21convert_int16_sat_rtzDv16_s;
        lle_X__Z17convert_int16_rtpDv16_s;
        lle_X__Z21convert_int16_sat_rtpDv16_s;
        lle_X__Z17convert_int16_rtnDv16_s;
        lle_X__Z21convert_int16_sat_rtnDv16_s;
        lle_X__Z13convert_int16Dv16_s;
        lle_X__Z17convert_int16_satDv16_s;
        lle_X__Z17convert_int16_rteDv16_t;
        lle_X__Z21convert_int16_sat_rteDv16_t;
        lle_X__Z17convert_int16_rtzDv16_t;
        lle_X__Z21convert_int16_sat_rtzDv16_t;
        lle_X__Z17convert_int16_rtpDv16_t;
        lle_X__Z21convert_int16_sat_rtpDv16_t;
        lle_X__Z17convert_int16_rtnDv16_t;
        lle_X__Z21convert_int16_sat_rtnDv16_t;
        lle_X__Z13convert_int16Dv16_t;
        lle_X__Z17convert_int16_satDv16_t;
        lle_X__Z17convert_int16_rteDv16_i;
        lle_X__Z21convert_int16_sat_rteDv16_i;
        lle_X__Z17convert_int16_rtzDv16_i;
        lle_X__Z21convert_int16_sat_rtzDv16_i;
        lle_X__Z17convert_int16_rtpDv16_i;
        lle_X__Z21convert_int16_sat_rtpDv16_i;
        lle_X__Z17convert_int16_rtnDv16_i;
        lle_X__Z21convert_int16_sat_rtnDv16_i;
        lle_X__Z13convert_int16Dv16_i;
        lle_X__Z17convert_int16_satDv16_i;
        lle_X__Z17convert_int16_rteDv16_j;
        lle_X__Z21convert_int16_sat_rteDv16_j;
        lle_X__Z17convert_int16_rtzDv16_j;
        lle_X__Z21convert_int16_sat_rtzDv16_j;
        lle_X__Z17convert_int16_rtpDv16_j;
        lle_X__Z21convert_int16_sat_rtpDv16_j;
        lle_X__Z17convert_int16_rtnDv16_j;
        lle_X__Z21convert_int16_sat_rtnDv16_j;
        lle_X__Z13convert_int16Dv16_j;
        lle_X__Z17convert_int16_satDv16_j;
        lle_X__Z17convert_int16_rteDv16_l;
        lle_X__Z21convert_int16_sat_rteDv16_l;
        lle_X__Z17convert_int16_rtzDv16_l;
        lle_X__Z21convert_int16_sat_rtzDv16_l;
        lle_X__Z17convert_int16_rtpDv16_l;
        lle_X__Z21convert_int16_sat_rtpDv16_l;
        lle_X__Z17convert_int16_rtnDv16_l;
        lle_X__Z21convert_int16_sat_rtnDv16_l;
        lle_X__Z13convert_int16Dv16_l;
        lle_X__Z17convert_int16_satDv16_l;
        lle_X__Z17convert_int16_rteDv16_m;
        lle_X__Z21convert_int16_sat_rteDv16_m;
        lle_X__Z17convert_int16_rtzDv16_m;
        lle_X__Z21convert_int16_sat_rtzDv16_m;
        lle_X__Z17convert_int16_rtpDv16_m;
        lle_X__Z21convert_int16_sat_rtpDv16_m;
        lle_X__Z17convert_int16_rtnDv16_m;
        lle_X__Z21convert_int16_sat_rtnDv16_m;
        lle_X__Z13convert_int16Dv16_m;
        lle_X__Z17convert_int16_satDv16_m;
        lle_X__Z17convert_int16_rteDv16_f;
        lle_X__Z21convert_int16_sat_rteDv16_f;
        lle_X__Z17convert_int16_rtzDv16_f;
        lle_X__Z21convert_int16_sat_rtzDv16_f;
        lle_X__Z17convert_int16_rtpDv16_f;
        lle_X__Z21convert_int16_sat_rtpDv16_f;
        lle_X__Z17convert_int16_rtnDv16_f;
        lle_X__Z21convert_int16_sat_rtnDv16_f;
        lle_X__Z13convert_int16Dv16_f;
        lle_X__Z17convert_int16_satDv16_f;
        lle_X__Z17convert_int16_rteDv16_d;
        lle_X__Z21convert_int16_sat_rteDv16_d;
        lle_X__Z17convert_int16_rtzDv16_d;
        lle_X__Z21convert_int16_sat_rtzDv16_d;
        lle_X__Z17convert_int16_rtpDv16_d;
        lle_X__Z21convert_int16_sat_rtpDv16_d;
        lle_X__Z17convert_int16_rtnDv16_d;
        lle_X__Z21convert_int16_sat_rtnDv16_d;
        lle_X__Z13convert_int16Dv16_d;
        lle_X__Z17convert_int16_satDv16_d;
        lle_X__Z18convert_uint16_rteDv16_c;
        lle_X__Z22convert_uint16_sat_rteDv16_c;
        lle_X__Z18convert_uint16_rtzDv16_c;
        lle_X__Z22convert_uint16_sat_rtzDv16_c;
        lle_X__Z18convert_uint16_rtpDv16_c;
        lle_X__Z22convert_uint16_sat_rtpDv16_c;
        lle_X__Z18convert_uint16_rtnDv16_c;
        lle_X__Z22convert_uint16_sat_rtnDv16_c;
        lle_X__Z14convert_uint16Dv16_c;
        lle_X__Z18convert_uint16_satDv16_c;
        lle_X__Z18convert_uint16_rteDv16_h;
        lle_X__Z22convert_uint16_sat_rteDv16_h;
        lle_X__Z18convert_uint16_rtzDv16_h;
        lle_X__Z22convert_uint16_sat_rtzDv16_h;
        lle_X__Z18convert_uint16_rtpDv16_h;
        lle_X__Z22convert_uint16_sat_rtpDv16_h;
        lle_X__Z18convert_uint16_rtnDv16_h;
        lle_X__Z22convert_uint16_sat_rtnDv16_h;
        lle_X__Z14convert_uint16Dv16_h;
        lle_X__Z18convert_uint16_satDv16_h;
        lle_X__Z18convert_uint16_rteDv16_s;
        lle_X__Z22convert_uint16_sat_rteDv16_s;
        lle_X__Z18convert_uint16_rtzDv16_s;
        lle_X__Z22convert_uint16_sat_rtzDv16_s;
        lle_X__Z18convert_uint16_rtpDv16_s;
        lle_X__Z22convert_uint16_sat_rtpDv16_s;
        lle_X__Z18convert_uint16_rtnDv16_s;
        lle_X__Z22convert_uint16_sat_rtnDv16_s;
        lle_X__Z14convert_uint16Dv16_s;
        lle_X__Z18convert_uint16_satDv16_s;
        lle_X__Z18convert_uint16_rteDv16_t;
        lle_X__Z22convert_uint16_sat_rteDv16_t;
        lle_X__Z18convert_uint16_rtzDv16_t;
        lle_X__Z22convert_uint16_sat_rtzDv16_t;
        lle_X__Z18convert_uint16_rtpDv16_t;
        lle_X__Z22convert_uint16_sat_rtpDv16_t;
        lle_X__Z18convert_uint16_rtnDv16_t;
        lle_X__Z22convert_uint16_sat_rtnDv16_t;
        lle_X__Z14convert_uint16Dv16_t;
        lle_X__Z18convert_uint16_satDv16_t;
        lle_X__Z18convert_uint16_rteDv16_i;
        lle_X__Z22convert_uint16_sat_rteDv16_i;
        lle_X__Z18convert_uint16_rtzDv16_i;
        lle_X__Z22convert_uint16_sat_rtzDv16_i;
        lle_X__Z18convert_uint16_rtpDv16_i;
        lle_X__Z22convert_uint16_sat_rtpDv16_i;
        lle_X__Z18convert_uint16_rtnDv16_i;
        lle_X__Z22convert_uint16_sat_rtnDv16_i;
        lle_X__Z14convert_uint16Dv16_i;
        lle_X__Z18convert_uint16_satDv16_i;
        lle_X__Z18convert_uint16_rteDv16_j;
        lle_X__Z22convert_uint16_sat_rteDv16_j;
        lle_X__Z18convert_uint16_rtzDv16_j;
        lle_X__Z22convert_uint16_sat_rtzDv16_j;
        lle_X__Z18convert_uint16_rtpDv16_j;
        lle_X__Z22convert_uint16_sat_rtpDv16_j;
        lle_X__Z18convert_uint16_rtnDv16_j;
        lle_X__Z22convert_uint16_sat_rtnDv16_j;
        lle_X__Z14convert_uint16Dv16_j;
        lle_X__Z18convert_uint16_satDv16_j;
        lle_X__Z18convert_uint16_rteDv16_l;
        lle_X__Z22convert_uint16_sat_rteDv16_l;
        lle_X__Z18convert_uint16_rtzDv16_l;
        lle_X__Z22convert_uint16_sat_rtzDv16_l;
        lle_X__Z18convert_uint16_rtpDv16_l;
        lle_X__Z22convert_uint16_sat_rtpDv16_l;
        lle_X__Z18convert_uint16_rtnDv16_l;
        lle_X__Z22convert_uint16_sat_rtnDv16_l;
        lle_X__Z14convert_uint16Dv16_l;
        lle_X__Z18convert_uint16_satDv16_l;
        lle_X__Z18convert_uint16_rteDv16_m;
        lle_X__Z22convert_uint16_sat_rteDv16_m;
        lle_X__Z18convert_uint16_rtzDv16_m;
        lle_X__Z22convert_uint16_sat_rtzDv16_m;
        lle_X__Z18convert_uint16_rtpDv16_m;
        lle_X__Z22convert_uint16_sat_rtpDv16_m;
        lle_X__Z18convert_uint16_rtnDv16_m;
        lle_X__Z22convert_uint16_sat_rtnDv16_m;
        lle_X__Z14convert_uint16Dv16_m;
        lle_X__Z18convert_uint16_satDv16_m;
        lle_X__Z18convert_uint16_rteDv16_f;
        lle_X__Z22convert_uint16_sat_rteDv16_f;
        lle_X__Z18convert_uint16_rtzDv16_f;
        lle_X__Z22convert_uint16_sat_rtzDv16_f;
        lle_X__Z18convert_uint16_rtpDv16_f;
        lle_X__Z22convert_uint16_sat_rtpDv16_f;
        lle_X__Z18convert_uint16_rtnDv16_f;
        lle_X__Z22convert_uint16_sat_rtnDv16_f;
        lle_X__Z14convert_uint16Dv16_f;
        lle_X__Z18convert_uint16_satDv16_f;
        lle_X__Z18convert_uint16_rteDv16_d;
        lle_X__Z22convert_uint16_sat_rteDv16_d;
        lle_X__Z18convert_uint16_rtzDv16_d;
        lle_X__Z22convert_uint16_sat_rtzDv16_d;
        lle_X__Z18convert_uint16_rtpDv16_d;
        lle_X__Z22convert_uint16_sat_rtpDv16_d;
        lle_X__Z18convert_uint16_rtnDv16_d;
        lle_X__Z22convert_uint16_sat_rtnDv16_d;
        lle_X__Z14convert_uint16Dv16_d;
        lle_X__Z18convert_uint16_satDv16_d;
        lle_X__Z18convert_long16_rteDv16_c;
        lle_X__Z22convert_long16_sat_rteDv16_c;
        lle_X__Z18convert_long16_rtzDv16_c;
        lle_X__Z22convert_long16_sat_rtzDv16_c;
        lle_X__Z18convert_long16_rtpDv16_c;
        lle_X__Z22convert_long16_sat_rtpDv16_c;
        lle_X__Z18convert_long16_rtnDv16_c;
        lle_X__Z22convert_long16_sat_rtnDv16_c;
        lle_X__Z14convert_long16Dv16_c;
        lle_X__Z18convert_long16_satDv16_c;
        lle_X__Z18convert_long16_rteDv16_h;
        lle_X__Z22convert_long16_sat_rteDv16_h;
        lle_X__Z18convert_long16_rtzDv16_h;
        lle_X__Z22convert_long16_sat_rtzDv16_h;
        lle_X__Z18convert_long16_rtpDv16_h;
        lle_X__Z22convert_long16_sat_rtpDv16_h;
        lle_X__Z18convert_long16_rtnDv16_h;
        lle_X__Z22convert_long16_sat_rtnDv16_h;
        lle_X__Z14convert_long16Dv16_h;
        lle_X__Z18convert_long16_satDv16_h;
        lle_X__Z18convert_long16_rteDv16_s;
        lle_X__Z22convert_long16_sat_rteDv16_s;
        lle_X__Z18convert_long16_rtzDv16_s;
        lle_X__Z22convert_long16_sat_rtzDv16_s;
        lle_X__Z18convert_long16_rtpDv16_s;
        lle_X__Z22convert_long16_sat_rtpDv16_s;
        lle_X__Z18convert_long16_rtnDv16_s;
        lle_X__Z22convert_long16_sat_rtnDv16_s;
        lle_X__Z14convert_long16Dv16_s;
        lle_X__Z18convert_long16_satDv16_s;
        lle_X__Z18convert_long16_rteDv16_t;
        lle_X__Z22convert_long16_sat_rteDv16_t;
        lle_X__Z18convert_long16_rtzDv16_t;
        lle_X__Z22convert_long16_sat_rtzDv16_t;
        lle_X__Z18convert_long16_rtpDv16_t;
        lle_X__Z22convert_long16_sat_rtpDv16_t;
        lle_X__Z18convert_long16_rtnDv16_t;
        lle_X__Z22convert_long16_sat_rtnDv16_t;
        lle_X__Z14convert_long16Dv16_t;
        lle_X__Z18convert_long16_satDv16_t;
        lle_X__Z18convert_long16_rteDv16_i;
        lle_X__Z22convert_long16_sat_rteDv16_i;
        lle_X__Z18convert_long16_rtzDv16_i;
        lle_X__Z22convert_long16_sat_rtzDv16_i;
        lle_X__Z18convert_long16_rtpDv16_i;
        lle_X__Z22convert_long16_sat_rtpDv16_i;
        lle_X__Z18convert_long16_rtnDv16_i;
        lle_X__Z22convert_long16_sat_rtnDv16_i;
        lle_X__Z14convert_long16Dv16_i;
        lle_X__Z18convert_long16_satDv16_i;
        lle_X__Z18convert_long16_rteDv16_j;
        lle_X__Z22convert_long16_sat_rteDv16_j;
        lle_X__Z18convert_long16_rtzDv16_j;
        lle_X__Z22convert_long16_sat_rtzDv16_j;
        lle_X__Z18convert_long16_rtpDv16_j;
        lle_X__Z22convert_long16_sat_rtpDv16_j;
        lle_X__Z18convert_long16_rtnDv16_j;
        lle_X__Z22convert_long16_sat_rtnDv16_j;
        lle_X__Z14convert_long16Dv16_j;
        lle_X__Z18convert_long16_satDv16_j;
        lle_X__Z18convert_long16_rteDv16_l;
        lle_X__Z22convert_long16_sat_rteDv16_l;
        lle_X__Z18convert_long16_rtzDv16_l;
        lle_X__Z22convert_long16_sat_rtzDv16_l;
        lle_X__Z18convert_long16_rtpDv16_l;
        lle_X__Z22convert_long16_sat_rtpDv16_l;
        lle_X__Z18convert_long16_rtnDv16_l;
        lle_X__Z22convert_long16_sat_rtnDv16_l;
        lle_X__Z14convert_long16Dv16_l;
        lle_X__Z18convert_long16_satDv16_l;
        lle_X__Z18convert_long16_rteDv16_m;
        lle_X__Z22convert_long16_sat_rteDv16_m;
        lle_X__Z18convert_long16_rtzDv16_m;
        lle_X__Z22convert_long16_sat_rtzDv16_m;
        lle_X__Z18convert_long16_rtpDv16_m;
        lle_X__Z22convert_long16_sat_rtpDv16_m;
        lle_X__Z18convert_long16_rtnDv16_m;
        lle_X__Z22convert_long16_sat_rtnDv16_m;
        lle_X__Z14convert_long16Dv16_m;
        lle_X__Z18convert_long16_satDv16_m;
        lle_X__Z18convert_long16_rteDv16_f;
        lle_X__Z22convert_long16_sat_rteDv16_f;
        lle_X__Z18convert_long16_rtzDv16_f;
        lle_X__Z22convert_long16_sat_rtzDv16_f;
        lle_X__Z18convert_long16_rtpDv16_f;
        lle_X__Z22convert_long16_sat_rtpDv16_f;
        lle_X__Z18convert_long16_rtnDv16_f;
        lle_X__Z22convert_long16_sat_rtnDv16_f;
        lle_X__Z14convert_long16Dv16_f;
        lle_X__Z18convert_long16_satDv16_f;
        lle_X__Z18convert_long16_rteDv16_d;
        lle_X__Z22convert_long16_sat_rteDv16_d;
        lle_X__Z18convert_long16_rtzDv16_d;
        lle_X__Z22convert_long16_sat_rtzDv16_d;
        lle_X__Z18convert_long16_rtpDv16_d;
        lle_X__Z22convert_long16_sat_rtpDv16_d;
        lle_X__Z18convert_long16_rtnDv16_d;
        lle_X__Z22convert_long16_sat_rtnDv16_d;
        lle_X__Z14convert_long16Dv16_d;
        lle_X__Z18convert_long16_satDv16_d;
        lle_X__Z19convert_ulong16_rteDv16_c;
        lle_X__Z23convert_ulong16_sat_rteDv16_c;
        lle_X__Z19convert_ulong16_rtzDv16_c;
        lle_X__Z23convert_ulong16_sat_rtzDv16_c;
        lle_X__Z19convert_ulong16_rtpDv16_c;
        lle_X__Z23convert_ulong16_sat_rtpDv16_c;
        lle_X__Z19convert_ulong16_rtnDv16_c;
        lle_X__Z23convert_ulong16_sat_rtnDv16_c;
        lle_X__Z15convert_ulong16Dv16_c;
        lle_X__Z19convert_ulong16_satDv16_c;
        lle_X__Z19convert_ulong16_rteDv16_h;
        lle_X__Z23convert_ulong16_sat_rteDv16_h;
        lle_X__Z19convert_ulong16_rtzDv16_h;
        lle_X__Z23convert_ulong16_sat_rtzDv16_h;
        lle_X__Z19convert_ulong16_rtpDv16_h;
        lle_X__Z23convert_ulong16_sat_rtpDv16_h;
        lle_X__Z19convert_ulong16_rtnDv16_h;
        lle_X__Z23convert_ulong16_sat_rtnDv16_h;
        lle_X__Z15convert_ulong16Dv16_h;
        lle_X__Z19convert_ulong16_satDv16_h;
        lle_X__Z19convert_ulong16_rteDv16_s;
        lle_X__Z23convert_ulong16_sat_rteDv16_s;
        lle_X__Z19convert_ulong16_rtzDv16_s;
        lle_X__Z23convert_ulong16_sat_rtzDv16_s;
        lle_X__Z19convert_ulong16_rtpDv16_s;
        lle_X__Z23convert_ulong16_sat_rtpDv16_s;
        lle_X__Z19convert_ulong16_rtnDv16_s;
        lle_X__Z23convert_ulong16_sat_rtnDv16_s;
        lle_X__Z15convert_ulong16Dv16_s;
        lle_X__Z19convert_ulong16_satDv16_s;
        lle_X__Z19convert_ulong16_rteDv16_t;
        lle_X__Z23convert_ulong16_sat_rteDv16_t;
        lle_X__Z19convert_ulong16_rtzDv16_t;
        lle_X__Z23convert_ulong16_sat_rtzDv16_t;
        lle_X__Z19convert_ulong16_rtpDv16_t;
        lle_X__Z23convert_ulong16_sat_rtpDv16_t;
        lle_X__Z19convert_ulong16_rtnDv16_t;
        lle_X__Z23convert_ulong16_sat_rtnDv16_t;
        lle_X__Z15convert_ulong16Dv16_t;
        lle_X__Z19convert_ulong16_satDv16_t;
        lle_X__Z19convert_ulong16_rteDv16_i;
        lle_X__Z23convert_ulong16_sat_rteDv16_i;
        lle_X__Z19convert_ulong16_rtzDv16_i;
        lle_X__Z23convert_ulong16_sat_rtzDv16_i;
        lle_X__Z19convert_ulong16_rtpDv16_i;
        lle_X__Z23convert_ulong16_sat_rtpDv16_i;
        lle_X__Z19convert_ulong16_rtnDv16_i;
        lle_X__Z23convert_ulong16_sat_rtnDv16_i;
        lle_X__Z15convert_ulong16Dv16_i;
        lle_X__Z19convert_ulong16_satDv16_i;
        lle_X__Z19convert_ulong16_rteDv16_j;
        lle_X__Z23convert_ulong16_sat_rteDv16_j;
        lle_X__Z19convert_ulong16_rtzDv16_j;
        lle_X__Z23convert_ulong16_sat_rtzDv16_j;
        lle_X__Z19convert_ulong16_rtpDv16_j;
        lle_X__Z23convert_ulong16_sat_rtpDv16_j;
        lle_X__Z19convert_ulong16_rtnDv16_j;
        lle_X__Z23convert_ulong16_sat_rtnDv16_j;
        lle_X__Z15convert_ulong16Dv16_j;
        lle_X__Z19convert_ulong16_satDv16_j;
        lle_X__Z19convert_ulong16_rteDv16_l;
        lle_X__Z23convert_ulong16_sat_rteDv16_l;
        lle_X__Z19convert_ulong16_rtzDv16_l;
        lle_X__Z23convert_ulong16_sat_rtzDv16_l;
        lle_X__Z19convert_ulong16_rtpDv16_l;
        lle_X__Z23convert_ulong16_sat_rtpDv16_l;
        lle_X__Z19convert_ulong16_rtnDv16_l;
        lle_X__Z23convert_ulong16_sat_rtnDv16_l;
        lle_X__Z15convert_ulong16Dv16_l;
        lle_X__Z19convert_ulong16_satDv16_l;
        lle_X__Z19convert_ulong16_rteDv16_m;
        lle_X__Z23convert_ulong16_sat_rteDv16_m;
        lle_X__Z19convert_ulong16_rtzDv16_m;
        lle_X__Z23convert_ulong16_sat_rtzDv16_m;
        lle_X__Z19convert_ulong16_rtpDv16_m;
        lle_X__Z23convert_ulong16_sat_rtpDv16_m;
        lle_X__Z19convert_ulong16_rtnDv16_m;
        lle_X__Z23convert_ulong16_sat_rtnDv16_m;
        lle_X__Z15convert_ulong16Dv16_m;
        lle_X__Z19convert_ulong16_satDv16_m;
        lle_X__Z19convert_ulong16_rteDv16_f;
        lle_X__Z23convert_ulong16_sat_rteDv16_f;
        lle_X__Z19convert_ulong16_rtzDv16_f;
        lle_X__Z23convert_ulong16_sat_rtzDv16_f;
        lle_X__Z19convert_ulong16_rtpDv16_f;
        lle_X__Z23convert_ulong16_sat_rtpDv16_f;
        lle_X__Z19convert_ulong16_rtnDv16_f;
        lle_X__Z23convert_ulong16_sat_rtnDv16_f;
        lle_X__Z15convert_ulong16Dv16_f;
        lle_X__Z19convert_ulong16_satDv16_f;
        lle_X__Z19convert_ulong16_rteDv16_d;
        lle_X__Z23convert_ulong16_sat_rteDv16_d;
        lle_X__Z19convert_ulong16_rtzDv16_d;
        lle_X__Z23convert_ulong16_sat_rtzDv16_d;
        lle_X__Z19convert_ulong16_rtpDv16_d;
        lle_X__Z23convert_ulong16_sat_rtpDv16_d;
        lle_X__Z19convert_ulong16_rtnDv16_d;
        lle_X__Z23convert_ulong16_sat_rtnDv16_d;
        lle_X__Z15convert_ulong16Dv16_d;
        lle_X__Z19convert_ulong16_satDv16_d;
        lle_X__Z20convert_double16_rteDv16_c;
        lle_X__Z24convert_double16_sat_rteDv16_c;
        lle_X__Z20convert_double16_rtzDv16_c;
        lle_X__Z24convert_double16_sat_rtzDv16_c;
        lle_X__Z20convert_double16_rtpDv16_c;
        lle_X__Z24convert_double16_sat_rtpDv16_c;
        lle_X__Z20convert_double16_rtnDv16_c;
        lle_X__Z24convert_double16_sat_rtnDv16_c;
        lle_X__Z16convert_double16Dv16_c;
        lle_X__Z20convert_double16_satDv16_c;
        lle_X__Z20convert_double16_rteDv16_h;
        lle_X__Z24convert_double16_sat_rteDv16_h;
        lle_X__Z20convert_double16_rtzDv16_h;
        lle_X__Z24convert_double16_sat_rtzDv16_h;
        lle_X__Z20convert_double16_rtpDv16_h;
        lle_X__Z24convert_double16_sat_rtpDv16_h;
        lle_X__Z20convert_double16_rtnDv16_h;
        lle_X__Z24convert_double16_sat_rtnDv16_h;
        lle_X__Z16convert_double16Dv16_h;
        lle_X__Z20convert_double16_satDv16_h;
        lle_X__Z20convert_double16_rteDv16_s;
        lle_X__Z24convert_double16_sat_rteDv16_s;
        lle_X__Z20convert_double16_rtzDv16_s;
        lle_X__Z24convert_double16_sat_rtzDv16_s;
        lle_X__Z20convert_double16_rtpDv16_s;
        lle_X__Z24convert_double16_sat_rtpDv16_s;
        lle_X__Z20convert_double16_rtnDv16_s;
        lle_X__Z24convert_double16_sat_rtnDv16_s;
        lle_X__Z16convert_double16Dv16_s;
        lle_X__Z20convert_double16_satDv16_s;
        lle_X__Z20convert_double16_rteDv16_t;
        lle_X__Z24convert_double16_sat_rteDv16_t;
        lle_X__Z20convert_double16_rtzDv16_t;
        lle_X__Z24convert_double16_sat_rtzDv16_t;
        lle_X__Z20convert_double16_rtpDv16_t;
        lle_X__Z24convert_double16_sat_rtpDv16_t;
        lle_X__Z20convert_double16_rtnDv16_t;
        lle_X__Z24convert_double16_sat_rtnDv16_t;
        lle_X__Z16convert_double16Dv16_t;
        lle_X__Z20convert_double16_satDv16_t;
        lle_X__Z20convert_double16_rteDv16_i;
        lle_X__Z24convert_double16_sat_rteDv16_i;
        lle_X__Z20convert_double16_rtzDv16_i;
        lle_X__Z24convert_double16_sat_rtzDv16_i;
        lle_X__Z20convert_double16_rtpDv16_i;
        lle_X__Z24convert_double16_sat_rtpDv16_i;
        lle_X__Z20convert_double16_rtnDv16_i;
        lle_X__Z24convert_double16_sat_rtnDv16_i;
        lle_X__Z16convert_double16Dv16_i;
        lle_X__Z20convert_double16_satDv16_i;
        lle_X__Z20convert_double16_rteDv16_j;
        lle_X__Z24convert_double16_sat_rteDv16_j;
        lle_X__Z20convert_double16_rtzDv16_j;
        lle_X__Z24convert_double16_sat_rtzDv16_j;
        lle_X__Z20convert_double16_rtpDv16_j;
        lle_X__Z24convert_double16_sat_rtpDv16_j;
        lle_X__Z20convert_double16_rtnDv16_j;
        lle_X__Z24convert_double16_sat_rtnDv16_j;
        lle_X__Z16convert_double16Dv16_j;
        lle_X__Z20convert_double16_satDv16_j;
        lle_X__Z20convert_double16_rteDv16_l;
        lle_X__Z24convert_double16_sat_rteDv16_l;
        lle_X__Z20convert_double16_rtzDv16_l;
        lle_X__Z24convert_double16_sat_rtzDv16_l;
        lle_X__Z20convert_double16_rtpDv16_l;
        lle_X__Z24convert_double16_sat_rtpDv16_l;
        lle_X__Z20convert_double16_rtnDv16_l;
        lle_X__Z24convert_double16_sat_rtnDv16_l;
        lle_X__Z16convert_double16Dv16_l;
        lle_X__Z20convert_double16_satDv16_l;
        lle_X__Z20convert_double16_rteDv16_m;
        lle_X__Z24convert_double16_sat_rteDv16_m;
        lle_X__Z20convert_double16_rtzDv16_m;
        lle_X__Z24convert_double16_sat_rtzDv16_m;
        lle_X__Z20convert_double16_rtpDv16_m;
        lle_X__Z24convert_double16_sat_rtpDv16_m;
        lle_X__Z20convert_double16_rtnDv16_m;
        lle_X__Z24convert_double16_sat_rtnDv16_m;
        lle_X__Z16convert_double16Dv16_m;
        lle_X__Z20convert_double16_satDv16_m;
        lle_X__Z20convert_double16_rteDv16_f;
        lle_X__Z24convert_double16_sat_rteDv16_f;
        lle_X__Z20convert_double16_rtzDv16_f;
        lle_X__Z24convert_double16_sat_rtzDv16_f;
        lle_X__Z20convert_double16_rtpDv16_f;
        lle_X__Z24convert_double16_sat_rtpDv16_f;
        lle_X__Z20convert_double16_rtnDv16_f;
        lle_X__Z24convert_double16_sat_rtnDv16_f;
        lle_X__Z16convert_double16Dv16_f;
        lle_X__Z20convert_double16_satDv16_f;
        lle_X__Z20convert_double16_rteDv16_d;
        lle_X__Z24convert_double16_sat_rteDv16_d;
        lle_X__Z20convert_double16_rtzDv16_d;
        lle_X__Z24convert_double16_sat_rtzDv16_d;
        lle_X__Z20convert_double16_rtpDv16_d;
        lle_X__Z24convert_double16_sat_rtpDv16_d;
        lle_X__Z20convert_double16_rtnDv16_d;
        lle_X__Z24convert_double16_sat_rtnDv16_d;
        lle_X__Z16convert_double16Dv16_d;
        lle_X__Z20convert_double16_satDv16_d;
        lle_X__Z9normalizef;
        lle_X__Z9normalizeDv2_f;
        lle_X__Z9normalizeDv3_f;
        lle_X__Z9normalizeDv4_f;
        lle_X__Z9normalized;
        lle_X__Z9normalizeDv2_d;
        lle_X__Z9normalizeDv3_d;
        lle_X__Z9normalizeDv4_d;
        lle_X__Z14fast_normalizef;
        lle_X__Z14fast_normalizeDv2_f;
        lle_X__Z14fast_normalizeDv3_f;
        lle_X__Z14fast_normalizeDv4_f;
        lle_X__Z3dotff;
        lle_X__Z3dotDv2_fS_;
        lle_X__Z3dotDv3_fS_;
        lle_X__Z3dotDv4_fS_;
        lle_X__Z3dotdd;
        lle_X__Z3dotDv2_dS_;
        lle_X__Z3dotDv3_dS_;
        lle_X__Z3dotDv4_dS_;
        lle_X__Z6lengthf;
        lle_X__Z6lengthDv2_f;
        lle_X__Z6lengthDv3_f;
        lle_X__Z6lengthDv4_f;
        lle_X__Z6lengthd;
        lle_X__Z6lengthDv2_d;
        lle_X__Z6lengthDv3_d;
        lle_X__Z6lengthDv4_d;
        lle_X__Z11fast_lengthf;
        lle_X__Z11fast_lengthDv2_f;
        lle_X__Z11fast_lengthDv3_f;
        lle_X__Z11fast_lengthDv4_f;
        lle_X__Z8distanceff;
        lle_X__Z8distanceDv2_fS_;
        lle_X__Z8distanceDv3_fS_;
        lle_X__Z8distanceDv4_fS_;
        lle_X__Z8distancedd;
        lle_X__Z8distanceDv2_dS_;
        lle_X__Z8distanceDv3_dS_;
        lle_X__Z8distanceDv4_dS_;
        lle_X__Z13fast_distanceff;
        lle_X__Z13fast_distanceDv2_fS_;
        lle_X__Z13fast_distanceDv3_fS_;
        lle_X__Z13fast_distanceDv4_fS_;
        lle_X__Z5crossDv4_fS_;
        lle_X__Z5crossDv3_fS_;
        lle_X__Z5crossDv4_dS_;
        lle_X__Z5crossDv3_dS_;
        lle_X__Z11read_imagef9image2d_tjDv2_i;
        lle_X__Z11read_imagef9image2d_tjDv2_f;
        lle_X__Z11read_imagei9image2d_tjDv2_i;
        lle_X__Z11read_imagei9image2d_tjDv2_f;
        lle_X__Z12read_imageui9image2d_tjDv2_i;
        lle_X__Z12read_imageui9image2d_tjDv2_f;
        lle_X__Z12write_imagef9image2d_tDv2_iDv4_f;
        lle_X__Z12write_imagei9image2d_tDv2_iDv4_i;
        lle_X__Z13write_imageui9image2d_tDv2_iDv4_j;
        lle_X__Z11read_imagef9image3d_tjDv4_i;
        lle_X__Z11read_imagef9image3d_tjDv4_f;
        lle_X__Z11read_imagei9image3d_tjDv4_i;
        lle_X__Z11read_imagei9image3d_tjDv4_f;
        lle_X__Z12read_imageui9image3d_tjDv4_i;
        lle_X__Z12read_imageui9image3d_tjDv4_f;
        lle_X__Z15get_image_width9image2d_t;
        lle_X__Z15get_image_width9image3d_t;
        lle_X__Z16get_image_height9image2d_t;
        lle_X__Z16get_image_height9image3d_t;
        lle_X__Z15get_image_depth9image3d_t;
        lle_X__Z27get_image_channel_data_type9image2d_t;
        lle_X__Z27get_image_channel_data_type9image3d_t;
        lle_X__Z23get_image_channel_order9image2d_t;
        lle_X__Z23get_image_channel_order9image3d_t;
        lle_X__Z13get_image_dim9image2d_t;
        lle_X__Z13get_image_dim9image3d_t;
        lle_X__Z4haddcc;
        lle_X__Z4haddDv2_cS_;
        lle_X__Z4haddDv3_cS_;
        lle_X__Z4haddDv4_cS_;
        lle_X__Z4haddDv8_cS_;
        lle_X__Z4haddDv16_cS_;
        lle_X__Z4haddhh;
        lle_X__Z4haddDv2_hS_;
        lle_X__Z4haddDv3_hS_;
        lle_X__Z4haddDv4_hS_;
        lle_X__Z4haddDv8_hS_;
        lle_X__Z4haddDv16_hS_;
        lle_X__Z4haddss;
        lle_X__Z4haddDv2_sS_;
        lle_X__Z4haddDv3_sS_;
        lle_X__Z4haddDv4_sS_;
        lle_X__Z4haddDv8_sS_;
        lle_X__Z4haddDv16_sS_;
        lle_X__Z4haddtt;
        lle_X__Z4haddDv2_tS_;
        lle_X__Z4haddDv3_tS_;
        lle_X__Z4haddDv4_tS_;
        lle_X__Z4haddDv8_tS_;
        lle_X__Z4haddDv16_tS_;
        lle_X__Z4haddii;
        lle_X__Z4haddDv2_iS_;
        lle_X__Z4haddDv3_iS_;
        lle_X__Z4haddDv4_iS_;
        lle_X__Z4haddDv8_iS_;
        lle_X__Z4haddDv16_iS_;
        lle_X__Z4haddjj;
        lle_X__Z4haddDv2_jS_;
        lle_X__Z4haddDv3_jS_;
        lle_X__Z4haddDv4_jS_;
        lle_X__Z4haddDv8_jS_;
        lle_X__Z4haddDv16_jS_;
        lle_X__Z4haddll;
        lle_X__Z4haddDv2_lS_;
        lle_X__Z4haddDv3_lS_;
        lle_X__Z4haddDv4_lS_;
        lle_X__Z4haddDv8_lS_;
        lle_X__Z4haddDv16_lS_;
        lle_X__Z4haddmm;
        lle_X__Z4haddDv2_mS_;
        lle_X__Z4haddDv3_mS_;
        lle_X__Z4haddDv4_mS_;
        lle_X__Z4haddDv8_mS_;
        lle_X__Z4haddDv16_mS_;
        lle_X__Z5rhaddcc;
        lle_X__Z5rhaddhh;
        lle_X__Z5rhaddDv2_cS_;
        lle_X__Z5rhaddDv2_hS_;
        lle_X__Z5rhaddDv3_cS_;
        lle_X__Z5rhaddDv3_hS_;
        lle_X__Z5rhaddDv4_cS_;
        lle_X__Z5rhaddDv4_hS_;
        lle_X__Z5rhaddDv8_cS_;
        lle_X__Z5rhaddDv8_hS_;
        lle_X__Z5rhaddDv16_cS_;
        lle_X__Z5rhaddDv16_hS_;
        lle_X__Z5rhaddss;
        lle_X__Z5rhaddtt;
        lle_X__Z5rhaddDv2_sS_;
        lle_X__Z5rhaddDv2_tS_;
        lle_X__Z5rhaddDv3_sS_;
        lle_X__Z5rhaddDv3_tS_;
        lle_X__Z5rhaddDv4_sS_;
        lle_X__Z5rhaddDv4_tS_;
        lle_X__Z5rhaddDv8_sS_;
        lle_X__Z5rhaddDv8_tS_;
        lle_X__Z5rhaddDv16_sS_;
        lle_X__Z5rhaddDv16_tS_;
        lle_X__Z5rhaddii;
        lle_X__Z5rhaddjj;
        lle_X__Z5rhaddDv2_iS_;
        lle_X__Z5rhaddDv2_jS_;
        lle_X__Z5rhaddDv3_iS_;
        lle_X__Z5rhaddDv3_jS_;
        lle_X__Z5rhaddDv4_iS_;
        lle_X__Z5rhaddDv4_jS_;
        lle_X__Z5rhaddDv8_iS_;
        lle_X__Z5rhaddDv8_jS_;
        lle_X__Z5rhaddDv16_iS_;
        lle_X__Z5rhaddDv16_jS_;
        lle_X__Z5rhaddll;
        lle_X__Z5rhaddmm;
        lle_X__Z5rhaddDv2_lS_;
        lle_X__Z5rhaddDv2_mS_;
        lle_X__Z5rhaddDv3_lS_;
        lle_X__Z5rhaddDv3_mS_;
        lle_X__Z5rhaddDv4_lS_;
        lle_X__Z5rhaddDv4_mS_;
        lle_X__Z5rhaddDv8_lS_;
        lle_X__Z5rhaddDv8_mS_;
        lle_X__Z5rhaddDv16_lS_;
        lle_X__Z5rhaddDv16_mS_;
        lle_X__Z3absc;
        lle_X__Z3absh;
        lle_X__Z3absDv2_c;
        lle_X__Z3absDv2_h;
        lle_X__Z3absDv3_c;
        lle_X__Z3absDv3_h;
        lle_X__Z3absDv4_c;
        lle_X__Z3absDv4_h;
        lle_X__Z3absDv8_c;
        lle_X__Z3absDv8_h;
        lle_X__Z3absDv16_c;
        lle_X__Z3absDv16_h;
        lle_X__Z3abss;
        lle_X__Z3abst;
        lle_X__Z3absDv2_s;
        lle_X__Z3absDv2_t;
        lle_X__Z3absDv3_s;
        lle_X__Z3absDv3_t;
        lle_X__Z3absDv4_s;
        lle_X__Z3absDv4_t;
        lle_X__Z3absDv8_s;
        lle_X__Z3absDv8_t;
        lle_X__Z3absDv16_s;
        lle_X__Z3absDv16_t;
        lle_X__Z3absi;
        lle_X__Z3absj;
        lle_X__Z3absDv2_i;
        lle_X__Z3absDv2_j;
        lle_X__Z3absDv3_i;
        lle_X__Z3absDv3_j;
        lle_X__Z3absDv4_i;
        lle_X__Z3absDv4_j;
        lle_X__Z3absDv8_i;
        lle_X__Z3absDv8_j;
        lle_X__Z3absDv16_i;
        lle_X__Z3absDv16_j;
        lle_X__Z3absl;
        lle_X__Z3absm;
        lle_X__Z3absDv2_l;
        lle_X__Z3absDv2_m;
        lle_X__Z3absDv3_l;
        lle_X__Z3absDv3_m;
        lle_X__Z3absDv4_l;
        lle_X__Z3absDv4_m;
        lle_X__Z3absDv8_l;
        lle_X__Z3absDv8_m;
        lle_X__Z3absDv16_l;
        lle_X__Z3absDv16_m;
        lle_X__Z8abs_diffcc;
        lle_X__Z8abs_diffhh;
        lle_X__Z8abs_diffDv2_cS_;
        lle_X__Z8abs_diffDv2_hS_;
        lle_X__Z8abs_diffDv3_cS_;
        lle_X__Z8abs_diffDv3_hS_;
        lle_X__Z8abs_diffDv4_cS_;
        lle_X__Z8abs_diffDv4_hS_;
        lle_X__Z8abs_diffDv8_cS_;
        lle_X__Z8abs_diffDv8_hS_;
        lle_X__Z8abs_diffDv16_cS_;
        lle_X__Z8abs_diffDv16_hS_;
        lle_X__Z8abs_diffss;
        lle_X__Z8abs_difftt;
        lle_X__Z8abs_diffDv2_sS_;
        lle_X__Z8abs_diffDv2_tS_;
        lle_X__Z8abs_diffDv3_sS_;
        lle_X__Z8abs_diffDv3_tS_;
        lle_X__Z8abs_diffDv4_sS_;
        lle_X__Z8abs_diffDv4_tS_;
        lle_X__Z8abs_diffDv8_sS_;
        lle_X__Z8abs_diffDv8_tS_;
        lle_X__Z8abs_diffDv16_sS_;
        lle_X__Z8abs_diffDv16_tS_;
        lle_X__Z8abs_diffii;
        lle_X__Z8abs_diffjj;
        lle_X__Z8abs_diffDv2_iS_;
        lle_X__Z8abs_diffDv2_jS_;
        lle_X__Z8abs_diffDv3_iS_;
        lle_X__Z8abs_diffDv3_jS_;
        lle_X__Z8abs_diffDv4_iS_;
        lle_X__Z8abs_diffDv4_jS_;
        lle_X__Z8abs_diffDv8_iS_;
        lle_X__Z8abs_diffDv8_jS_;
        lle_X__Z8abs_diffDv16_iS_;
        lle_X__Z8abs_diffDv16_jS_;
        lle_X__Z8abs_diffll;
        lle_X__Z8abs_diffmm;
        lle_X__Z8abs_diffDv2_lS_;
        lle_X__Z8abs_diffDv2_mS_;
        lle_X__Z8abs_diffDv3_lS_;
        lle_X__Z8abs_diffDv3_mS_;
        lle_X__Z8abs_diffDv4_lS_;
        lle_X__Z8abs_diffDv4_mS_;
        lle_X__Z8abs_diffDv8_lS_;
        lle_X__Z8abs_diffDv8_mS_;
        lle_X__Z8abs_diffDv16_lS_;
        lle_X__Z8abs_diffDv16_mS_;
        lle_X__Z3mincc;
        lle_X__Z3minDv2_cS_;
        lle_X__Z3minDv3_cS_;
        lle_X__Z3minDv4_cS_;
        lle_X__Z3minDv8_cS_;
        lle_X__Z3minDv16_cS_;
        lle_X__Z3minDv2_cc;
        lle_X__Z3minDv3_cc;
        lle_X__Z3minDv4_cc;
        lle_X__Z3minDv8_cc;
        lle_X__Z3minDv16_cc;
        lle_X__Z3minhh;
        lle_X__Z3minDv2_hS_;
        lle_X__Z3minDv3_hS_;
        lle_X__Z3minDv4_hS_;
        lle_X__Z3minDv8_hS_;
        lle_X__Z3minDv16_hS_;
        lle_X__Z3minDv2_hh;
        lle_X__Z3minDv3_hh;
        lle_X__Z3minDv4_hh;
        lle_X__Z3minDv8_hh;
        lle_X__Z3minDv16_hh;
        lle_X__Z3minss;
        lle_X__Z3minDv2_sS_;
        lle_X__Z3minDv3_sS_;
        lle_X__Z3minDv4_sS_;
        lle_X__Z3minDv8_sS_;
        lle_X__Z3minDv16_sS_;
        lle_X__Z3minDv2_ss;
        lle_X__Z3minDv3_ss;
        lle_X__Z3minDv4_ss;
        lle_X__Z3minDv8_ss;
        lle_X__Z3minDv16_ss;
        lle_X__Z3mintt;
        lle_X__Z3minDv2_tS_;
        lle_X__Z3minDv3_tS_;
        lle_X__Z3minDv4_tS_;
        lle_X__Z3minDv8_tS_;
        lle_X__Z3minDv16_tS_;
        lle_X__Z3minDv2_tt;
        lle_X__Z3minDv3_tt;
        lle_X__Z3minDv4_tt;
        lle_X__Z3minDv8_tt;
        lle_X__Z3minDv16_tt;
        lle_X__Z3minii;
        lle_X__Z3minDv2_iS_;
        lle_X__Z3minDv3_iS_;
        lle_X__Z3minDv4_iS_;
        lle_X__Z3minDv8_iS_;
        lle_X__Z3minDv16_iS_;
        lle_X__Z3minDv2_ii;
        lle_X__Z3minDv3_ii;
        lle_X__Z3minDv4_ii;
        lle_X__Z3minDv8_ii;
        lle_X__Z3minDv16_ii;
        lle_X__Z3minjj;
        lle_X__Z3minDv2_jS_;
        lle_X__Z3minDv3_jS_;
        lle_X__Z3minDv4_jS_;
        lle_X__Z3minDv8_jS_;
        lle_X__Z3minDv16_jS_;
        lle_X__Z3minDv2_jj;
        lle_X__Z3minDv3_jj;
        lle_X__Z3minDv4_jj;
        lle_X__Z3minDv8_jj;
        lle_X__Z3minDv16_jj;
        lle_X__Z3minll;
        lle_X__Z3minDv2_lS_;
        lle_X__Z3minDv3_lS_;
        lle_X__Z3minDv4_lS_;
        lle_X__Z3minDv8_lS_;
        lle_X__Z3minDv16_lS_;
        lle_X__Z3minDv2_ll;
        lle_X__Z3minDv3_ll;
        lle_X__Z3minDv4_ll;
        lle_X__Z3minDv8_ll;
        lle_X__Z3minDv16_ll;
        lle_X__Z3minmm;
        lle_X__Z3minDv2_mS_;
        lle_X__Z3minDv3_mS_;
        lle_X__Z3minDv4_mS_;
        lle_X__Z3minDv8_mS_;
        lle_X__Z3minDv16_mS_;
        lle_X__Z3minDv2_mm;
        lle_X__Z3minDv3_mm;
        lle_X__Z3minDv4_mm;
        lle_X__Z3minDv8_mm;
        lle_X__Z3minDv16_mm;
        lle_X__Z3maxcc;
        lle_X__Z3maxDv2_cS_;
        lle_X__Z3maxDv3_cS_;
        lle_X__Z3maxDv4_cS_;
        lle_X__Z3maxDv8_cS_;
        lle_X__Z3maxDv16_cS_;
        lle_X__Z3maxDv2_cc;
        lle_X__Z3maxDv3_cc;
        lle_X__Z3maxDv4_cc;
        lle_X__Z3maxDv8_cc;
        lle_X__Z3maxDv16_cc;
        lle_X__Z3maxhh;
        lle_X__Z3maxDv2_hS_;
        lle_X__Z3maxDv3_hS_;
        lle_X__Z3maxDv4_hS_;
        lle_X__Z3maxDv8_hS_;
        lle_X__Z3maxDv16_hS_;
        lle_X__Z3maxDv2_hh;
        lle_X__Z3maxDv3_hh;
        lle_X__Z3maxDv4_hh;
        lle_X__Z3maxDv8_hh;
        lle_X__Z3maxDv16_hh;
        lle_X__Z3maxss;
        lle_X__Z3maxDv2_sS_;
        lle_X__Z3maxDv3_sS_;
        lle_X__Z3maxDv4_sS_;
        lle_X__Z3maxDv8_sS_;
        lle_X__Z3maxDv16_sS_;
        lle_X__Z3maxDv2_ss;
        lle_X__Z3maxDv3_ss;
        lle_X__Z3maxDv4_ss;
        lle_X__Z3maxDv8_ss;
        lle_X__Z3maxDv16_ss;
        lle_X__Z3maxtt;
        lle_X__Z3maxDv2_tS_;
        lle_X__Z3maxDv3_tS_;
        lle_X__Z3maxDv4_tS_;
        lle_X__Z3maxDv8_tS_;
        lle_X__Z3maxDv16_tS_;
        lle_X__Z3maxDv2_tt;
        lle_X__Z3maxDv3_tt;
        lle_X__Z3maxDv4_tt;
        lle_X__Z3maxDv8_tt;
        lle_X__Z3maxDv16_tt;
        lle_X__Z3maxii;
        lle_X__Z3maxDv2_iS_;
        lle_X__Z3maxDv3_iS_;
        lle_X__Z3maxDv4_iS_;
        lle_X__Z3maxDv8_iS_;
        lle_X__Z3maxDv16_iS_;
        lle_X__Z3maxDv2_ii;
        lle_X__Z3maxDv3_ii;
        lle_X__Z3maxDv4_ii;
        lle_X__Z3maxDv8_ii;
        lle_X__Z3maxDv16_ii;
        lle_X__Z3maxjj;
        lle_X__Z3maxDv2_jS_;
        lle_X__Z3maxDv3_jS_;
        lle_X__Z3maxDv4_jS_;
        lle_X__Z3maxDv8_jS_;
        lle_X__Z3maxDv16_jS_;
        lle_X__Z3maxDv2_jj;
        lle_X__Z3maxDv3_jj;
        lle_X__Z3maxDv4_jj;
        lle_X__Z3maxDv8_jj;
        lle_X__Z3maxDv16_jj;
        lle_X__Z3maxll;
        lle_X__Z3maxDv2_lS_;
        lle_X__Z3maxDv3_lS_;
        lle_X__Z3maxDv4_lS_;
        lle_X__Z3maxDv8_lS_;
        lle_X__Z3maxDv16_lS_;
        lle_X__Z3maxDv2_ll;
        lle_X__Z3maxDv3_ll;
        lle_X__Z3maxDv4_ll;
        lle_X__Z3maxDv8_ll;
        lle_X__Z3maxDv16_ll;
        lle_X__Z3maxmm;
        lle_X__Z3maxDv2_mS_;
        lle_X__Z3maxDv3_mS_;
        lle_X__Z3maxDv4_mS_;
        lle_X__Z3maxDv8_mS_;
        lle_X__Z3maxDv16_mS_;
        lle_X__Z3maxDv2_mm;
        lle_X__Z3maxDv3_mm;
        lle_X__Z3maxDv4_mm;
        lle_X__Z3maxDv8_mm;
        lle_X__Z3maxDv16_mm;
        lle_X__Z5clampccc;
        lle_X__Z5clamphhh;
        lle_X__Z5clampDv2_cS_S_;
        lle_X__Z5clampDv2_hS_S_;
        lle_X__Z5clampDv3_cS_S_;
        lle_X__Z5clampDv3_hS_S_;
        lle_X__Z5clampDv4_cS_S_;
        lle_X__Z5clampDv4_hS_S_;
        lle_X__Z5clampDv8_cS_S_;
        lle_X__Z5clampDv8_hS_S_;
        lle_X__Z5clampDv16_cS_S_;
        lle_X__Z5clampDv16_hS_S_;
        lle_X__Z5clampsss;
        lle_X__Z5clampttt;
        lle_X__Z5clampDv2_sS_S_;
        lle_X__Z5clampDv2_tS_S_;
        lle_X__Z5clampDv3_sS_S_;
        lle_X__Z5clampDv3_tS_S_;
        lle_X__Z5clampDv4_sS_S_;
        lle_X__Z5clampDv4_tS_S_;
        lle_X__Z5clampDv8_sS_S_;
        lle_X__Z5clampDv8_tS_S_;
        lle_X__Z5clampDv16_sS_S_;
        lle_X__Z5clampDv16_tS_S_;
        lle_X__Z5clampiii;
        lle_X__Z5clampjjj;
        lle_X__Z5clampDv2_iS_S_;
        lle_X__Z5clampDv2_jS_S_;
        lle_X__Z5clampDv3_iS_S_;
        lle_X__Z5clampDv3_jS_S_;
        lle_X__Z5clampDv4_iS_S_;
        lle_X__Z5clampDv4_jS_S_;
        lle_X__Z5clampDv8_iS_S_;
        lle_X__Z5clampDv8_jS_S_;
        lle_X__Z5clampDv16_iS_S_;
        lle_X__Z5clampDv16_jS_S_;
        lle_X__Z5clamplll;
        lle_X__Z5clampmmm;
        lle_X__Z5clampDv2_lS_S_;
        lle_X__Z5clampDv2_mS_S_;
        lle_X__Z5clampDv3_lS_S_;
        lle_X__Z5clampDv3_mS_S_;
        lle_X__Z5clampDv4_lS_S_;
        lle_X__Z5clampDv4_mS_S_;
        lle_X__Z5clampDv8_lS_S_;
        lle_X__Z5clampDv8_mS_S_;
        lle_X__Z5clampDv16_lS_S_;
        lle_X__Z5clampDv16_mS_S_;
        lle_X__Z5clampDv2_ccc;
        lle_X__Z5clampDv2_hhh;
        lle_X__Z5clampDv3_ccc;
        lle_X__Z5clampDv3_hhh;
        lle_X__Z5clampDv4_ccc;
        lle_X__Z5clampDv4_hhh;
        lle_X__Z5clampDv8_ccc;
        lle_X__Z5clampDv8_hhh;
        lle_X__Z5clampDv16_ccc;
        lle_X__Z5clampDv16_hhh;
        lle_X__Z5clampDv2_sss;
        lle_X__Z5clampDv2_ttt;
        lle_X__Z5clampDv3_sss;
        lle_X__Z5clampDv3_ttt;
        lle_X__Z5clampDv4_sss;
        lle_X__Z5clampDv4_ttt;
        lle_X__Z5clampDv8_sss;
        lle_X__Z5clampDv8_ttt;
        lle_X__Z5clampDv16_sss;
        lle_X__Z5clampDv16_ttt;
        lle_X__Z5clampDv2_iii;
        lle_X__Z5clampDv2_jjj;
        lle_X__Z5clampDv3_iii;
        lle_X__Z5clampDv3_jjj;
        lle_X__Z5clampDv4_iii;
        lle_X__Z5clampDv4_jjj;
        lle_X__Z5clampDv8_iii;
        lle_X__Z5clampDv8_jjj;
        lle_X__Z5clampDv16_iii;
        lle_X__Z5clampDv16_jjj;
        lle_X__Z5clampDv2_lll;
        lle_X__Z5clampDv2_mmm;
        lle_X__Z5clampDv3_lll;
        lle_X__Z5clampDv3_mmm;
        lle_X__Z5clampDv4_lll;
        lle_X__Z5clampDv4_mmm;
        lle_X__Z5clampDv8_lll;
        lle_X__Z5clampDv8_mmm;
        lle_X__Z5clampDv16_lll;
        lle_X__Z5clampDv16_mmm;
        lle_X__Z7add_satcc;
        lle_X__Z7add_sathh;
        lle_X__Z7add_satDv2_cS_;
        lle_X__Z7add_satDv2_hS_;
        lle_X__Z7add_satDv3_cS_;
        lle_X__Z7add_satDv3_hS_;
        lle_X__Z7add_satDv4_cS_;
        lle_X__Z7add_satDv4_hS_;
        lle_X__Z7add_satDv8_cS_;
        lle_X__Z7add_satDv8_hS_;
        lle_X__Z7add_satDv16_cS_;
        lle_X__Z7add_satDv16_hS_;
        lle_X__Z7add_satss;
        lle_X__Z7add_sattt;
        lle_X__Z7add_satDv2_sS_;
        lle_X__Z7add_satDv2_tS_;
        lle_X__Z7add_satDv3_sS_;
        lle_X__Z7add_satDv3_tS_;
        lle_X__Z7add_satDv4_sS_;
        lle_X__Z7add_satDv4_tS_;
        lle_X__Z7add_satDv8_sS_;
        lle_X__Z7add_satDv8_tS_;
        lle_X__Z7add_satDv16_sS_;
        lle_X__Z7add_satDv16_tS_;
        lle_X__Z7add_satii;
        lle_X__Z7add_satjj;
        lle_X__Z7add_satDv2_iS_;
        lle_X__Z7add_satDv2_jS_;
        lle_X__Z7add_satDv3_iS_;
        lle_X__Z7add_satDv3_jS_;
        lle_X__Z7add_satDv4_iS_;
        lle_X__Z7add_satDv4_jS_;
        lle_X__Z7add_satDv8_iS_;
        lle_X__Z7add_satDv8_jS_;
        lle_X__Z7add_satDv16_iS_;
        lle_X__Z7add_satDv16_jS_;
        lle_X__Z7add_satll;
        lle_X__Z7add_satmm;
        lle_X__Z7add_satDv2_lS_;
        lle_X__Z7add_satDv2_mS_;
        lle_X__Z7add_satDv3_lS_;
        lle_X__Z7add_satDv3_mS_;
        lle_X__Z7add_satDv4_lS_;
        lle_X__Z7add_satDv4_mS_;
        lle_X__Z7add_satDv8_lS_;
        lle_X__Z7add_satDv8_mS_;
        lle_X__Z7add_satDv16_lS_;
        lle_X__Z7add_satDv16_mS_;
        lle_X__Z7sub_satcc;
        lle_X__Z7sub_sathh;
        lle_X__Z7sub_satDv2_cS_;
        lle_X__Z7sub_satDv2_hS_;
        lle_X__Z7sub_satDv3_cS_;
        lle_X__Z7sub_satDv3_hS_;
        lle_X__Z7sub_satDv4_cS_;
        lle_X__Z7sub_satDv4_hS_;
        lle_X__Z7sub_satDv8_cS_;
        lle_X__Z7sub_satDv8_hS_;
        lle_X__Z7sub_satDv16_cS_;
        lle_X__Z7sub_satDv16_hS_;
        lle_X__Z7sub_satss;
        lle_X__Z7sub_sattt;
        lle_X__Z7sub_satDv2_sS_;
        lle_X__Z7sub_satDv2_tS_;
        lle_X__Z7sub_satDv3_sS_;
        lle_X__Z7sub_satDv3_tS_;
        lle_X__Z7sub_satDv4_sS_;
        lle_X__Z7sub_satDv4_tS_;
        lle_X__Z7sub_satDv8_sS_;
        lle_X__Z7sub_satDv8_tS_;
        lle_X__Z7sub_satDv16_sS_;
        lle_X__Z7sub_satDv16_tS_;
        lle_X__Z7sub_satii;
        lle_X__Z7sub_satjj;
        lle_X__Z7sub_satDv2_iS_;
        lle_X__Z7sub_satDv2_jS_;
        lle_X__Z7sub_satDv3_iS_;
        lle_X__Z7sub_satDv3_jS_;
        lle_X__Z7sub_satDv4_iS_;
        lle_X__Z7sub_satDv4_jS_;
        lle_X__Z7sub_satDv8_iS_;
        lle_X__Z7sub_satDv8_jS_;
        lle_X__Z7sub_satDv16_iS_;
        lle_X__Z7sub_satDv16_jS_;
        lle_X__Z7sub_satll;
        lle_X__Z7sub_satmm;
        lle_X__Z7sub_satDv2_lS_;
        lle_X__Z7sub_satDv2_mS_;
        lle_X__Z7sub_satDv3_lS_;
        lle_X__Z7sub_satDv3_mS_;
        lle_X__Z7sub_satDv4_lS_;
        lle_X__Z7sub_satDv4_mS_;
        lle_X__Z7sub_satDv8_lS_;
        lle_X__Z7sub_satDv8_mS_;
        lle_X__Z7sub_satDv16_lS_;
        lle_X__Z7sub_satDv16_mS_;
        lle_X__Z3clzc;
        lle_X__Z3clzh;
        lle_X__Z3clzDv2_c;
        lle_X__Z3clzDv2_h;
        lle_X__Z3clzDv3_c;
        lle_X__Z3clzDv3_h;
        lle_X__Z3clzDv4_c;
        lle_X__Z3clzDv4_h;
        lle_X__Z3clzDv8_c;
        lle_X__Z3clzDv8_h;
        lle_X__Z3clzDv16_c;
        lle_X__Z3clzDv16_h;
        lle_X__Z3clzs;
        lle_X__Z3clzt;
        lle_X__Z3clzDv2_s;
        lle_X__Z3clzDv2_t;
        lle_X__Z3clzDv3_s;
        lle_X__Z3clzDv3_t;
        lle_X__Z3clzDv4_s;
        lle_X__Z3clzDv4_t;
        lle_X__Z3clzDv8_s;
        lle_X__Z3clzDv8_t;
        lle_X__Z3clzDv16_s;
        lle_X__Z3clzDv16_t;
        lle_X__Z3clzi;
        lle_X__Z3clzj;
        lle_X__Z3clzDv2_i;
        lle_X__Z3clzDv2_j;
        lle_X__Z3clzDv3_i;
        lle_X__Z3clzDv3_j;
        lle_X__Z3clzDv4_i;
        lle_X__Z3clzDv4_j;
        lle_X__Z3clzDv8_i;
        lle_X__Z3clzDv8_j;
        lle_X__Z3clzDv16_i;
        lle_X__Z3clzDv16_j;
        lle_X__Z3clzl;
        lle_X__Z3clzm;
        lle_X__Z3clzDv2_l;
        lle_X__Z3clzDv2_m;
        lle_X__Z3clzDv3_l;
        lle_X__Z3clzDv3_m;
        lle_X__Z3clzDv4_l;
        lle_X__Z3clzDv4_m;
        lle_X__Z3clzDv8_l;
        lle_X__Z3clzDv8_m;
        lle_X__Z3clzDv16_l;
        lle_X__Z3clzDv16_m;
        lle_X__Z6rotatecc;
        lle_X__Z6rotatehh;
        lle_X__Z6rotateDv2_cS_;
        lle_X__Z6rotateDv2_hS_;
        lle_X__Z6rotateDv3_cS_;
        lle_X__Z6rotateDv3_hS_;
        lle_X__Z6rotateDv4_cS_;
        lle_X__Z6rotateDv4_hS_;
        lle_X__Z6rotateDv8_cS_;
        lle_X__Z6rotateDv8_hS_;
        lle_X__Z6rotateDv16_cS_;
        lle_X__Z6rotateDv16_hS_;
        lle_X__Z6rotatess;
        lle_X__Z6rotatett;
        lle_X__Z6rotateDv2_sS_;
        lle_X__Z6rotateDv2_tS_;
        lle_X__Z6rotateDv3_sS_;
        lle_X__Z6rotateDv3_tS_;
        lle_X__Z6rotateDv4_sS_;
        lle_X__Z6rotateDv4_tS_;
        lle_X__Z6rotateDv8_sS_;
        lle_X__Z6rotateDv8_tS_;
        lle_X__Z6rotateDv16_sS_;
        lle_X__Z6rotateDv16_tS_;
        lle_X__Z6rotateii;
        lle_X__Z6rotatejj;
        lle_X__Z6rotateDv2_iS_;
        lle_X__Z6rotateDv2_jS_;
        lle_X__Z6rotateDv3_iS_;
        lle_X__Z6rotateDv3_jS_;
        lle_X__Z6rotateDv4_iS_;
        lle_X__Z6rotateDv4_jS_;
        lle_X__Z6rotateDv8_iS_;
        lle_X__Z6rotateDv8_jS_;
        lle_X__Z6rotateDv16_iS_;
        lle_X__Z6rotateDv16_jS_;
        lle_X__Z6rotatell;
        lle_X__Z6rotatemm;
        lle_X__Z6rotateDv2_lS_;
        lle_X__Z6rotateDv2_mS_;
        lle_X__Z6rotateDv3_lS_;
        lle_X__Z6rotateDv3_mS_;
        lle_X__Z6rotateDv4_lS_;
        lle_X__Z6rotateDv4_mS_;
        lle_X__Z6rotateDv8_lS_;
        lle_X__Z6rotateDv8_mS_;
        lle_X__Z6rotateDv16_lS_;
        lle_X__Z6rotateDv16_mS_;
        lle_X__Z8upsamplech;
        lle_X__Z8upsamplehh;
        lle_X__Z8upsampleDv2_cDv2_h;
        lle_X__Z8upsampleDv3_cDv3_h;
        lle_X__Z8upsampleDv4_cDv4_h;
        lle_X__Z8upsampleDv8_cDv8_h;
        lle_X__Z8upsampleDv16_cDv16_h;
        lle_X__Z8upsampleDv2_hS_;
        lle_X__Z8upsampleDv3_hS_;
        lle_X__Z8upsampleDv4_hS_;
        lle_X__Z8upsampleDv8_hS_;
        lle_X__Z8upsampleDv16_hS_;
        lle_X__Z8upsamplest;
        lle_X__Z8upsamplett;
        lle_X__Z8upsampleDv2_sDv2_t;
        lle_X__Z8upsampleDv3_sDv3_t;
        lle_X__Z8upsampleDv4_sDv4_t;
        lle_X__Z8upsampleDv8_sDv8_t;
        lle_X__Z8upsampleDv16_sDv16_t;
        lle_X__Z8upsampleDv2_tS_;
        lle_X__Z8upsampleDv3_tS_;
        lle_X__Z8upsampleDv4_tS_;
        lle_X__Z8upsampleDv8_tS_;
        lle_X__Z8upsampleDv16_tS_;
        lle_X__Z8upsampleij;
        lle_X__Z8upsamplejj;
        lle_X__Z8upsampleDv2_iDv2_j;
        lle_X__Z8upsampleDv3_iDv3_j;
        lle_X__Z8upsampleDv4_iDv4_j;
        lle_X__Z8upsampleDv8_iDv8_j;
        lle_X__Z8upsampleDv16_iDv16_j;
        lle_X__Z8upsampleDv2_jS_;
        lle_X__Z8upsampleDv3_jS_;
        lle_X__Z8upsampleDv4_jS_;
        lle_X__Z8upsampleDv8_jS_;
        lle_X__Z8upsampleDv16_jS_;
        lle_X__Z6mul_hicc;
        lle_X__Z6mul_hihh;
        lle_X__Z6mul_hiDv2_cS_;
        lle_X__Z6mul_hiDv2_hS_;
        lle_X__Z6mul_hiDv3_cS_;
        lle_X__Z6mul_hiDv3_hS_;
        lle_X__Z6mul_hiDv4_cS_;
        lle_X__Z6mul_hiDv4_hS_;
        lle_X__Z6mul_hiDv8_cS_;
        lle_X__Z6mul_hiDv8_hS_;
        lle_X__Z6mul_hiDv16_cS_;
        lle_X__Z6mul_hiDv16_hS_;
        lle_X__Z6mul_hiss;
        lle_X__Z6mul_hitt;
        lle_X__Z6mul_hiDv2_sS_;
        lle_X__Z6mul_hiDv2_tS_;
        lle_X__Z6mul_hiDv3_sS_;
        lle_X__Z6mul_hiDv3_tS_;
        lle_X__Z6mul_hiDv4_sS_;
        lle_X__Z6mul_hiDv4_tS_;
        lle_X__Z6mul_hiDv8_sS_;
        lle_X__Z6mul_hiDv8_tS_;
        lle_X__Z6mul_hiDv16_sS_;
        lle_X__Z6mul_hiDv16_tS_;
        lle_X__Z6mul_hiii;
        lle_X__Z6mul_hijj;
        lle_X__Z6mul_hiDv2_iS_;
        lle_X__Z6mul_hiDv2_jS_;
        lle_X__Z6mul_hiDv3_iS_;
        lle_X__Z6mul_hiDv3_jS_;
        lle_X__Z6mul_hiDv4_iS_;
        lle_X__Z6mul_hiDv4_jS_;
        lle_X__Z6mul_hiDv8_iS_;
        lle_X__Z6mul_hiDv8_jS_;
        lle_X__Z6mul_hiDv16_iS_;
        lle_X__Z6mul_hiDv16_jS_;
        lle_X__Z6mul_hill;
        lle_X__Z6mul_himm;
        lle_X__Z6mul_hiDv2_lS_;
        lle_X__Z6mul_hiDv2_mS_;
        lle_X__Z6mul_hiDv3_lS_;
        lle_X__Z6mul_hiDv3_mS_;
        lle_X__Z6mul_hiDv4_lS_;
        lle_X__Z6mul_hiDv4_mS_;
        lle_X__Z6mul_hiDv8_lS_;
        lle_X__Z6mul_hiDv8_mS_;
        lle_X__Z6mul_hiDv16_lS_;
        lle_X__Z6mul_hiDv16_mS_;
        lle_X__Z6mad_hiccc;
        lle_X__Z6mad_hihhh;
        lle_X__Z6mad_hiDv2_cS_S_;
        lle_X__Z6mad_hiDv2_hS_S_;
        lle_X__Z6mad_hiDv3_cS_S_;
        lle_X__Z6mad_hiDv3_hS_S_;
        lle_X__Z6mad_hiDv4_cS_S_;
        lle_X__Z6mad_hiDv4_hS_S_;
        lle_X__Z6mad_hiDv8_cS_S_;
        lle_X__Z6mad_hiDv8_hS_S_;
        lle_X__Z6mad_hiDv16_cS_S_;
        lle_X__Z6mad_hiDv16_hS_S_;
        lle_X__Z6mad_hisss;
        lle_X__Z6mad_hittt;
        lle_X__Z6mad_hiDv2_sS_S_;
        lle_X__Z6mad_hiDv2_tS_S_;
        lle_X__Z6mad_hiDv3_sS_S_;
        lle_X__Z6mad_hiDv3_tS_S_;
        lle_X__Z6mad_hiDv4_sS_S_;
        lle_X__Z6mad_hiDv4_tS_S_;
        lle_X__Z6mad_hiDv8_sS_S_;
        lle_X__Z6mad_hiDv8_tS_S_;
        lle_X__Z6mad_hiDv16_sS_S_;
        lle_X__Z6mad_hiDv16_tS_S_;
        lle_X__Z6mad_hiiii;
        lle_X__Z6mad_hijjj;
        lle_X__Z6mad_hiDv2_iS_S_;
        lle_X__Z6mad_hiDv2_jS_S_;
        lle_X__Z6mad_hiDv3_iS_S_;
        lle_X__Z6mad_hiDv3_jS_S_;
        lle_X__Z6mad_hiDv4_iS_S_;
        lle_X__Z6mad_hiDv4_jS_S_;
        lle_X__Z6mad_hiDv8_iS_S_;
        lle_X__Z6mad_hiDv8_jS_S_;
        lle_X__Z6mad_hiDv16_iS_S_;
        lle_X__Z6mad_hiDv16_jS_S_;
        lle_X__Z6mad_hilll;
        lle_X__Z6mad_himmm;
        lle_X__Z6mad_hiDv2_lS_S_;
        lle_X__Z6mad_hiDv2_mS_S_;
        lle_X__Z6mad_hiDv3_lS_S_;
        lle_X__Z6mad_hiDv3_mS_S_;
        lle_X__Z6mad_hiDv4_lS_S_;
        lle_X__Z6mad_hiDv4_mS_S_;
        lle_X__Z6mad_hiDv8_lS_S_;
        lle_X__Z6mad_hiDv8_mS_S_;
        lle_X__Z6mad_hiDv16_lS_S_;
        lle_X__Z6mad_hiDv16_mS_S_;
        lle_X__Z7mad_satccc;
        lle_X__Z7mad_sathhh;
        lle_X__Z7mad_satDv2_cS_S_;
        lle_X__Z7mad_satDv2_hS_S_;
        lle_X__Z7mad_satDv3_cS_S_;
        lle_X__Z7mad_satDv3_hS_S_;
        lle_X__Z7mad_satDv4_cS_S_;
        lle_X__Z7mad_satDv4_hS_S_;
        lle_X__Z7mad_satDv8_cS_S_;
        lle_X__Z7mad_satDv8_hS_S_;
        lle_X__Z7mad_satDv16_cS_S_;
        lle_X__Z7mad_satDv16_hS_S_;
        lle_X__Z7mad_satsss;
        lle_X__Z7mad_satttt;
        lle_X__Z7mad_satDv2_sS_S_;
        lle_X__Z7mad_satDv2_tS_S_;
        lle_X__Z7mad_satDv3_sS_S_;
        lle_X__Z7mad_satDv3_tS_S_;
        lle_X__Z7mad_satDv4_sS_S_;
        lle_X__Z7mad_satDv4_tS_S_;
        lle_X__Z7mad_satDv8_sS_S_;
        lle_X__Z7mad_satDv8_tS_S_;
        lle_X__Z7mad_satDv16_sS_S_;
        lle_X__Z7mad_satDv16_tS_S_;
        lle_X__Z7mad_satiii;
        lle_X__Z7mad_satjjj;
        lle_X__Z7mad_satDv2_iS_S_;
        lle_X__Z7mad_satDv2_jS_S_;
        lle_X__Z7mad_satDv3_iS_S_;
        lle_X__Z7mad_satDv3_jS_S_;
        lle_X__Z7mad_satDv4_iS_S_;
        lle_X__Z7mad_satDv4_jS_S_;
        lle_X__Z7mad_satDv8_iS_S_;
        lle_X__Z7mad_satDv8_jS_S_;
        lle_X__Z7mad_satDv16_iS_S_;
        lle_X__Z7mad_satDv16_jS_S_;
        lle_X__Z7mad_satlll;
        lle_X__Z7mad_satmmm;
        lle_X__Z7mad_satDv2_lS_S_;
        lle_X__Z7mad_satDv2_mS_S_;
        lle_X__Z7mad_satDv3_lS_S_;
        lle_X__Z7mad_satDv3_mS_S_;
        lle_X__Z7mad_satDv4_lS_S_;
        lle_X__Z7mad_satDv4_mS_S_;
        lle_X__Z7mad_satDv8_lS_S_;
        lle_X__Z7mad_satDv8_mS_S_;
        lle_X__Z7mad_satDv16_lS_S_;
        lle_X__Z7mad_satDv16_mS_S_;
        lle_X__Z5mad24iii;
        lle_X__Z5mad24jjj;
        lle_X__Z5mad24Dv2_iS_S_;
        lle_X__Z5mad24Dv2_jS_S_;
        lle_X__Z5mad24Dv3_iS_S_;
        lle_X__Z5mad24Dv3_jS_S_;
        lle_X__Z5mad24Dv4_iS_S_;
        lle_X__Z5mad24Dv4_jS_S_;
        lle_X__Z5mad24Dv8_iS_S_;
        lle_X__Z5mad24Dv8_jS_S_;
        lle_X__Z5mad24Dv16_iS_S_;
        lle_X__Z5mad24Dv16_jS_S_;
        lle_X__Z5mul24ii;
        lle_X__Z5mul24jj;
        lle_X__Z5mul24Dv2_iS_;
        lle_X__Z5mul24Dv2_jS_;
        lle_X__Z5mul24Dv3_iS_;
        lle_X__Z5mul24Dv3_jS_;
        lle_X__Z5mul24Dv4_iS_;
        lle_X__Z5mul24Dv4_jS_;
        lle_X__Z5mul24Dv8_iS_;
        lle_X__Z5mul24Dv8_jS_;
        lle_X__Z5mul24Dv16_iS_;
        lle_X__Z5mul24Dv16_jS_;
        lle_X__Z8popcountc;
        lle_X__Z8popcounth;
        lle_X__Z8popcountDv2_c;
        lle_X__Z8popcountDv2_h;
        lle_X__Z8popcountDv3_c;
        lle_X__Z8popcountDv3_h;
        lle_X__Z8popcountDv4_c;
        lle_X__Z8popcountDv4_h;
        lle_X__Z8popcountDv8_c;
        lle_X__Z8popcountDv8_h;
        lle_X__Z8popcountDv16_c;
        lle_X__Z8popcountDv16_h;
        lle_X__Z8popcounts;
        lle_X__Z8popcountt;
        lle_X__Z8popcountDv2_s;
        lle_X__Z8popcountDv2_t;
        lle_X__Z8popcountDv3_s;
        lle_X__Z8popcountDv3_t;
        lle_X__Z8popcountDv4_s;
        lle_X__Z8popcountDv4_t;
        lle_X__Z8popcountDv8_s;
        lle_X__Z8popcountDv8_t;
        lle_X__Z8popcountDv16_s;
        lle_X__Z8popcountDv16_t;
        lle_X__Z8popcounti;
        lle_X__Z8popcountj;
        lle_X__Z8popcountDv2_i;
        lle_X__Z8popcountDv2_j;
        lle_X__Z8popcountDv3_i;
        lle_X__Z8popcountDv3_j;
        lle_X__Z8popcountDv4_i;
        lle_X__Z8popcountDv4_j;
        lle_X__Z8popcountDv8_i;
        lle_X__Z8popcountDv8_j;
        lle_X__Z8popcountDv16_i;
        lle_X__Z8popcountDv16_j;
        lle_X__Z8popcountl;
        lle_X__Z8popcountm;
        lle_X__Z8popcountDv2_l;
        lle_X__Z8popcountDv2_m;
        lle_X__Z8popcountDv3_l;
        lle_X__Z8popcountDv3_m;
        lle_X__Z8popcountDv4_l;
        lle_X__Z8popcountDv4_m;
        lle_X__Z8popcountDv8_l;
        lle_X__Z8popcountDv8_m;
        lle_X__Z8popcountDv16_l;
        lle_X__Z8popcountDv16_m;
        lle_X__Z5hypotff;
        lle_X__Z5hypotDv2_fS_;
        lle_X__Z5hypotDv3_fS_;
        lle_X__Z5hypotDv4_fS_;
        lle_X__Z5hypotDv8_fS_;
        lle_X__Z5hypotDv16_fS_;
        lle_X__Z5hypotdd;
        lle_X__Z5hypotDv2_dS_;
        lle_X__Z5hypotDv3_dS_;
        lle_X__Z5hypotDv4_dS_;
        lle_X__Z5hypotDv8_dS_;
        lle_X__Z5hypotDv16_dS_;
        lle_X__Z4sqrtf;
        lle_X__Z4sqrtDv2_f;
        lle_X__Z4sqrtDv3_f;
        lle_X__Z4sqrtDv4_f;
        lle_X__Z4sqrtDv8_f;
        lle_X__Z4sqrtDv16_f;
        lle_X__Z4sqrtd;
        lle_X__Z4sqrtDv2_d;
        lle_X__Z4sqrtDv3_d;
        lle_X__Z4sqrtDv4_d;
        lle_X__Z4sqrtDv8_d;
        lle_X__Z4sqrtDv16_d;
        lle_X__Z4acosf;
        lle_X__Z4acosDv2_f;
        lle_X__Z4acosDv3_f;
        lle_X__Z4acosDv4_f;
        lle_X__Z4acosDv8_f;
        lle_X__Z4acosDv16_f;
        lle_X__Z4acosd;
        lle_X__Z4acosDv2_d;
        lle_X__Z4acosDv3_d;
        lle_X__Z4acosDv4_d;
        lle_X__Z4acosDv8_d;
        lle_X__Z4acosDv16_d;
        lle_X__Z6acospif;
        lle_X__Z6acospiDv2_f;
        lle_X__Z6acospiDv3_f;
        lle_X__Z6acospiDv4_f;
        lle_X__Z6acospiDv8_f;
        lle_X__Z6acospiDv16_f;
        lle_X__Z6acospid;
        lle_X__Z6acospiDv2_d;
        lle_X__Z6acospiDv3_d;
        lle_X__Z6acospiDv4_d;
        lle_X__Z6acospiDv8_d;
        lle_X__Z6acospiDv16_d;
        lle_X__Z4asinf;
        lle_X__Z4asinDv2_f;
        lle_X__Z4asinDv3_f;
        lle_X__Z4asinDv4_f;
        lle_X__Z4asinDv8_f;
        lle_X__Z4asinDv16_f;
        lle_X__Z4asind;
        lle_X__Z4asinDv2_d;
        lle_X__Z4asinDv3_d;
        lle_X__Z4asinDv4_d;
        lle_X__Z4asinDv8_d;
        lle_X__Z4asinDv16_d;
        lle_X__Z6asinpif;
        lle_X__Z6asinpiDv2_f;
        lle_X__Z6asinpiDv3_f;
        lle_X__Z6asinpiDv4_f;
        lle_X__Z6asinpiDv8_f;
        lle_X__Z6asinpiDv16_f;
        lle_X__Z6asinpid;
        lle_X__Z6asinpiDv2_d;
        lle_X__Z6asinpiDv3_d;
        lle_X__Z6asinpiDv4_d;
        lle_X__Z6asinpiDv8_d;
        lle_X__Z6asinpiDv16_d;
        lle_X__Z4atanf;
        lle_X__Z4atanDv2_f;
        lle_X__Z4atanDv3_f;
        lle_X__Z4atanDv4_f;
        lle_X__Z4atanDv8_f;
        lle_X__Z4atanDv16_f;
        lle_X__Z4atand;
        lle_X__Z4atanDv2_d;
        lle_X__Z4atanDv3_d;
        lle_X__Z4atanDv4_d;
        lle_X__Z4atanDv8_d;
        lle_X__Z4atanDv16_d;
        lle_X__Z5atan2ff;
        lle_X__Z5atan2Dv2_fS_;
        lle_X__Z5atan2Dv3_fS_;
        lle_X__Z5atan2Dv4_fS_;
        lle_X__Z5atan2Dv8_fS_;
        lle_X__Z5atan2Dv16_fS_;
        lle_X__Z5atan2dd;
        lle_X__Z5atan2Dv2_dS_;
        lle_X__Z5atan2Dv3_dS_;
        lle_X__Z5atan2Dv4_dS_;
        lle_X__Z5atan2Dv8_dS_;
        lle_X__Z5atan2Dv16_dS_;
        lle_X__Z6atanpif;
        lle_X__Z6atanpiDv2_f;
        lle_X__Z6atanpiDv3_f;
        lle_X__Z6atanpiDv4_f;
        lle_X__Z6atanpiDv8_f;
        lle_X__Z6atanpiDv16_f;
        lle_X__Z6atanpid;
        lle_X__Z6atanpiDv2_d;
        lle_X__Z6atanpiDv3_d;
        lle_X__Z6atanpiDv4_d;
        lle_X__Z6atanpiDv8_d;
        lle_X__Z6atanpiDv16_d;
        lle_X__Z7atan2piff;
        lle_X__Z7atan2piDv2_fS_;
        lle_X__Z7atan2piDv3_fS_;
        lle_X__Z7atan2piDv4_fS_;
        lle_X__Z7atan2piDv8_fS_;
        lle_X__Z7atan2piDv16_fS_;
        lle_X__Z7atan2pidd;
        lle_X__Z7atan2piDv2_dS_;
        lle_X__Z7atan2piDv3_dS_;
        lle_X__Z7atan2piDv4_dS_;
        lle_X__Z7atan2piDv8_dS_;
        lle_X__Z7atan2piDv16_dS_;
        lle_X__Z3cosf;
        lle_X__Z3cosDv2_f;
        lle_X__Z3cosDv3_f;
        lle_X__Z3cosDv4_f;
        lle_X__Z3cosDv8_f;
        lle_X__Z3cosDv16_f;
        lle_X__Z3cosd;
        lle_X__Z3cosDv2_d;
        lle_X__Z3cosDv3_d;
        lle_X__Z3cosDv4_d;
        lle_X__Z3cosDv8_d;
        lle_X__Z3cosDv16_d;
        lle_X__Z4coshf;
        lle_X__Z4coshDv2_f;
        lle_X__Z4coshDv3_f;
        lle_X__Z4coshDv4_f;
        lle_X__Z4coshDv8_f;
        lle_X__Z4coshDv16_f;
        lle_X__Z4coshd;
        lle_X__Z4coshDv2_d;
        lle_X__Z4coshDv3_d;
        lle_X__Z4coshDv4_d;
        lle_X__Z4coshDv8_d;
        lle_X__Z4coshDv16_d;
        lle_X__Z5cospif;
        lle_X__Z5cospiDv2_f;
        lle_X__Z5cospiDv3_f;
        lle_X__Z5cospiDv4_f;
        lle_X__Z5cospiDv8_f;
        lle_X__Z5cospiDv16_f;
        lle_X__Z5cospid;
        lle_X__Z5cospiDv2_d;
        lle_X__Z5cospiDv3_d;
        lle_X__Z5cospiDv4_d;
        lle_X__Z5cospiDv8_d;
        lle_X__Z5cospiDv16_d;
        lle_X__Z3expf;
        lle_X__Z3expDv2_f;
        lle_X__Z3expDv3_f;
        lle_X__Z3expDv4_f;
        lle_X__Z3expDv8_f;
        lle_X__Z3expDv16_f;
        lle_X__Z3expd;
        lle_X__Z3expDv2_d;
        lle_X__Z3expDv3_d;
        lle_X__Z3expDv4_d;
        lle_X__Z3expDv8_d;
        lle_X__Z3expDv16_d;
        lle_X__Z4exp2f;
        lle_X__Z4exp2Dv2_f;
        lle_X__Z4exp2Dv3_f;
        lle_X__Z4exp2Dv4_f;
        lle_X__Z4exp2Dv8_f;
        lle_X__Z4exp2Dv16_f;
        lle_X__Z4exp2d;
        lle_X__Z4exp2Dv2_d;
        lle_X__Z4exp2Dv3_d;
        lle_X__Z4exp2Dv4_d;
        lle_X__Z4exp2Dv8_d;
        lle_X__Z4exp2Dv16_d;
        lle_X__Z5exp10f;
        lle_X__Z5exp10Dv2_f;
        lle_X__Z5exp10Dv3_f;
        lle_X__Z5exp10Dv4_f;
        lle_X__Z5exp10Dv8_f;
        lle_X__Z5exp10Dv16_f;
        lle_X__Z5exp10d;
        lle_X__Z5exp10Dv2_d;
        lle_X__Z5exp10Dv3_d;
        lle_X__Z5exp10Dv4_d;
        lle_X__Z5exp10Dv8_d;
        lle_X__Z5exp10Dv16_d;
        lle_X__Z5expm1f;
        lle_X__Z5expm1Dv2_f;
        lle_X__Z5expm1Dv3_f;
        lle_X__Z5expm1Dv4_f;
        lle_X__Z5expm1Dv8_f;
        lle_X__Z5expm1Dv16_f;
        lle_X__Z5expm1d;
        lle_X__Z5expm1Dv2_d;
        lle_X__Z5expm1Dv3_d;
        lle_X__Z5expm1Dv4_d;
        lle_X__Z5expm1Dv8_d;
        lle_X__Z5expm1Dv16_d;
        lle_X__Z3logf;
        lle_X__Z3logDv2_f;
        lle_X__Z3logDv3_f;
        lle_X__Z3logDv4_f;
        lle_X__Z3logDv8_f;
        lle_X__Z3logDv16_f;
        lle_X__Z3logd;
        lle_X__Z3logDv2_d;
        lle_X__Z3logDv3_d;
        lle_X__Z3logDv4_d;
        lle_X__Z3logDv8_d;
        lle_X__Z3logDv16_d;
        lle_X__Z4log2f;
        lle_X__Z4log2Dv2_f;
        lle_X__Z4log2Dv3_f;
        lle_X__Z4log2Dv4_f;
        lle_X__Z4log2Dv8_f;
        lle_X__Z4log2Dv16_f;
        lle_X__Z4log2d;
        lle_X__Z4log2Dv2_d;
        lle_X__Z4log2Dv3_d;
        lle_X__Z4log2Dv4_d;
        lle_X__Z4log2Dv8_d;
        lle_X__Z4log2Dv16_d;
        lle_X__Z5log10f;
        lle_X__Z5log10Dv2_f;
        lle_X__Z5log10Dv3_f;
        lle_X__Z5log10Dv4_f;
        lle_X__Z5log10Dv8_f;
        lle_X__Z5log10Dv16_f;
        lle_X__Z5log10d;
        lle_X__Z5log10Dv2_d;
        lle_X__Z5log10Dv3_d;
        lle_X__Z5log10Dv4_d;
        lle_X__Z5log10Dv8_d;
        lle_X__Z5log10Dv16_d;
        lle_X__Z5log1pf;
        lle_X__Z5log1pDv2_f;
        lle_X__Z5log1pDv3_f;
        lle_X__Z5log1pDv4_f;
        lle_X__Z5log1pDv8_f;
        lle_X__Z5log1pDv16_f;
        lle_X__Z5log1pd;
        lle_X__Z5log1pDv2_d;
        lle_X__Z5log1pDv3_d;
        lle_X__Z5log1pDv4_d;
        lle_X__Z5log1pDv8_d;
        lle_X__Z5log1pDv16_d;
        lle_X__Z4logbf;
        lle_X__Z4logbDv2_f;
        lle_X__Z4logbDv3_f;
        lle_X__Z4logbDv4_f;
        lle_X__Z4logbDv8_f;
        lle_X__Z4logbDv16_f;
        lle_X__Z4logbd;
        lle_X__Z4logbDv2_d;
        lle_X__Z4logbDv3_d;
        lle_X__Z4logbDv4_d;
        lle_X__Z4logbDv8_d;
        lle_X__Z4logbDv16_d;
        lle_X__Z4ceilf;
        lle_X__Z4ceilDv2_f;
        lle_X__Z4ceilDv3_f;
        lle_X__Z4ceilDv4_f;
        lle_X__Z4ceilDv8_f;
        lle_X__Z4ceilDv16_f;
        lle_X__Z4ceild;
        lle_X__Z4ceilDv2_d;
        lle_X__Z4ceilDv3_d;
        lle_X__Z4ceilDv4_d;
        lle_X__Z4ceilDv8_d;
        lle_X__Z4ceilDv16_d;
        lle_X__Z3powff;
        lle_X__Z3powDv2_fS_;
        lle_X__Z3powDv3_fS_;
        lle_X__Z3powDv4_fS_;
        lle_X__Z3powDv8_fS_;
        lle_X__Z3powDv16_fS_;
        lle_X__Z3powdd;
        lle_X__Z3powDv2_dS_;
        lle_X__Z3powDv3_dS_;
        lle_X__Z3powDv4_dS_;
        lle_X__Z3powDv8_dS_;
        lle_X__Z3powDv16_dS_;
        lle_X__Z10native_cosf;
        lle_X__Z10native_cosDv2_f;
        lle_X__Z10native_cosDv3_f;
        lle_X__Z10native_cosDv4_f;
        lle_X__Z10native_cosDv8_f;
        lle_X__Z10native_cosDv16_f;
        lle_X__Z10native_cosd;
        lle_X__Z10native_cosDv2_d;
        lle_X__Z10native_cosDv3_d;
        lle_X__Z10native_cosDv4_d;
        lle_X__Z10native_cosDv8_d;
        lle_X__Z10native_cosDv16_d;
        lle_X__Z10native_expf;
        lle_X__Z10native_expDv2_f;
        lle_X__Z10native_expDv3_f;
        lle_X__Z10native_expDv4_f;
        lle_X__Z10native_expDv8_f;
        lle_X__Z10native_expDv16_f;
        lle_X__Z10native_expd;
        lle_X__Z10native_expDv2_d;
        lle_X__Z10native_expDv3_d;
        lle_X__Z10native_expDv4_d;
        lle_X__Z10native_expDv8_d;
        lle_X__Z10native_expDv16_d;
        lle_X__Z11native_exp2f;
        lle_X__Z11native_exp2Dv2_f;
        lle_X__Z11native_exp2Dv3_f;
        lle_X__Z11native_exp2Dv4_f;
        lle_X__Z11native_exp2Dv8_f;
        lle_X__Z11native_exp2Dv16_f;
        lle_X__Z11native_exp2d;
        lle_X__Z11native_exp2Dv2_d;
        lle_X__Z11native_exp2Dv3_d;
        lle_X__Z11native_exp2Dv4_d;
        lle_X__Z11native_exp2Dv8_d;
        lle_X__Z11native_exp2Dv16_d;
        lle_X__Z12native_exp10f;
        lle_X__Z12native_exp10Dv2_f;
        lle_X__Z12native_exp10Dv3_f;
        lle_X__Z12native_exp10Dv4_f;
        lle_X__Z12native_exp10Dv8_f;
        lle_X__Z12native_exp10Dv16_f;
        lle_X__Z12native_exp10d;
        lle_X__Z12native_exp10Dv2_d;
        lle_X__Z12native_exp10Dv3_d;
        lle_X__Z12native_exp10Dv4_d;
        lle_X__Z12native_exp10Dv8_d;
        lle_X__Z12native_exp10Dv16_d;
        lle_X__Z10native_logf;
        lle_X__Z10native_logDv2_f;
        lle_X__Z10native_logDv3_f;
        lle_X__Z10native_logDv4_f;
        lle_X__Z10native_logDv8_f;
        lle_X__Z10native_logDv16_f;
        lle_X__Z10native_logd;
        lle_X__Z10native_logDv2_d;
        lle_X__Z10native_logDv3_d;
        lle_X__Z10native_logDv4_d;
        lle_X__Z10native_logDv8_d;
        lle_X__Z10native_logDv16_d;
        lle_X__Z11native_log2f;
        lle_X__Z11native_log2Dv2_f;
        lle_X__Z11native_log2Dv3_f;
        lle_X__Z11native_log2Dv4_f;
        lle_X__Z11native_log2Dv8_f;
        lle_X__Z11native_log2Dv16_f;
        lle_X__Z11native_log2d;
        lle_X__Z11native_log2Dv2_d;
        lle_X__Z11native_log2Dv3_d;
        lle_X__Z11native_log2Dv4_d;
        lle_X__Z11native_log2Dv8_d;
        lle_X__Z11native_log2Dv16_d;
        lle_X__Z12native_log10f;
        lle_X__Z12native_log10Dv2_f;
        lle_X__Z12native_log10Dv3_f;
        lle_X__Z12native_log10Dv4_f;
        lle_X__Z12native_log10Dv8_f;
        lle_X__Z12native_log10Dv16_f;
        lle_X__Z12native_log10d;
        lle_X__Z12native_log10Dv2_d;
        lle_X__Z12native_log10Dv3_d;
        lle_X__Z12native_log10Dv4_d;
        lle_X__Z12native_log10Dv8_d;
        lle_X__Z12native_log10Dv16_d;
        lle_X__Z12native_rsqrtf;
        lle_X__Z12native_rsqrtDv2_f;
        lle_X__Z12native_rsqrtDv3_f;
        lle_X__Z12native_rsqrtDv4_f;
        lle_X__Z12native_rsqrtDv8_f;
        lle_X__Z12native_rsqrtDv16_f;
        lle_X__Z12native_rsqrtd;
        lle_X__Z12native_rsqrtDv2_d;
        lle_X__Z12native_rsqrtDv3_d;
        lle_X__Z12native_rsqrtDv4_d;
        lle_X__Z12native_rsqrtDv8_d;
        lle_X__Z12native_rsqrtDv16_d;
        lle_X__Z10native_sinf;
        lle_X__Z10native_sinDv2_f;
        lle_X__Z10native_sinDv3_f;
        lle_X__Z10native_sinDv4_f;
        lle_X__Z10native_sinDv8_f;
        lle_X__Z10native_sinDv16_f;
        lle_X__Z10native_sind;
        lle_X__Z10native_sinDv2_d;
        lle_X__Z10native_sinDv3_d;
        lle_X__Z10native_sinDv4_d;
        lle_X__Z10native_sinDv8_d;
        lle_X__Z10native_sinDv16_d;
        lle_X__Z8half_expf;
        lle_X__Z8half_expDv2_f;
        lle_X__Z8half_expDv3_f;
        lle_X__Z8half_expDv4_f;
        lle_X__Z8half_expDv8_f;
        lle_X__Z8half_expDv16_f;
        lle_X__Z9half_exp2f;
        lle_X__Z9half_exp2Dv2_f;
        lle_X__Z9half_exp2Dv3_f;
        lle_X__Z9half_exp2Dv4_f;
        lle_X__Z9half_exp2Dv8_f;
        lle_X__Z9half_exp2Dv16_f;
        lle_X__Z10half_exp10f;
        lle_X__Z10half_exp10Dv2_f;
        lle_X__Z10half_exp10Dv3_f;
        lle_X__Z10half_exp10Dv4_f;
        lle_X__Z10half_exp10Dv8_f;
        lle_X__Z10half_exp10Dv16_f;
        lle_X__Z8half_logf;
        lle_X__Z8half_logDv2_f;
        lle_X__Z8half_logDv3_f;
        lle_X__Z8half_logDv4_f;
        lle_X__Z8half_logDv8_f;
        lle_X__Z8half_logDv16_f;
        lle_X__Z9half_log2f;
        lle_X__Z9half_log2Dv2_f;
        lle_X__Z9half_log2Dv3_f;
        lle_X__Z9half_log2Dv4_f;
        lle_X__Z9half_log2Dv8_f;
        lle_X__Z9half_log2Dv16_f;
        lle_X__Z10half_log10f;
        lle_X__Z10half_log10Dv2_f;
        lle_X__Z10half_log10Dv3_f;
        lle_X__Z10half_log10Dv4_f;
        lle_X__Z10half_log10Dv8_f;
        lle_X__Z10half_log10Dv16_f;
        lle_X__Z5rsqrtf;
        lle_X__Z5rsqrtDv2_f;
        lle_X__Z5rsqrtDv3_f;
        lle_X__Z5rsqrtDv4_f;
        lle_X__Z5rsqrtDv8_f;
        lle_X__Z5rsqrtDv16_f;
        lle_X__Z5rsqrtd;
        lle_X__Z5rsqrtDv2_d;
        lle_X__Z5rsqrtDv3_d;
        lle_X__Z5rsqrtDv4_d;
        lle_X__Z5rsqrtDv8_d;
        lle_X__Z5rsqrtDv16_d;
        lle_X__Z3sinf;
        lle_X__Z3sinDv2_f;
        lle_X__Z3sinDv3_f;
        lle_X__Z3sinDv4_f;
        lle_X__Z3sinDv8_f;
        lle_X__Z3sinDv16_f;
        lle_X__Z3sind;
        lle_X__Z3sinDv2_d;
        lle_X__Z3sinDv3_d;
        lle_X__Z3sinDv4_d;
        lle_X__Z3sinDv8_d;
        lle_X__Z3sinDv16_d;
        lle_X__Z4sinhf;
        lle_X__Z4sinhDv2_f;
        lle_X__Z4sinhDv3_f;
        lle_X__Z4sinhDv4_f;
        lle_X__Z4sinhDv8_f;
        lle_X__Z4sinhDv16_f;
        lle_X__Z4sinhd;
        lle_X__Z4sinhDv2_d;
        lle_X__Z4sinhDv3_d;
        lle_X__Z4sinhDv4_d;
        lle_X__Z4sinhDv8_d;
        lle_X__Z4sinhDv16_d;
        lle_X__Z5sinpif;
        lle_X__Z5sinpiDv2_f;
        lle_X__Z5sinpiDv3_f;
        lle_X__Z5sinpiDv4_f;
        lle_X__Z5sinpiDv8_f;
        lle_X__Z5sinpiDv16_f;
        lle_X__Z5sinpid;
        lle_X__Z5sinpiDv2_d;
        lle_X__Z5sinpiDv3_d;
        lle_X__Z5sinpiDv4_d;
        lle_X__Z5sinpiDv8_d;
        lle_X__Z5sinpiDv16_d;
        lle_X__Z3tanf;
        lle_X__Z3tanDv2_f;
        lle_X__Z3tanDv3_f;
        lle_X__Z3tanDv4_f;
        lle_X__Z3tanDv8_f;
        lle_X__Z3tanDv16_f;
        lle_X__Z3tand;
        lle_X__Z3tanDv2_d;
        lle_X__Z3tanDv3_d;
        lle_X__Z3tanDv4_d;
        lle_X__Z3tanDv8_d;
        lle_X__Z3tanDv16_d;
        lle_X__Z4tanhf;
        lle_X__Z4tanhDv2_f;
        lle_X__Z4tanhDv3_f;
        lle_X__Z4tanhDv4_f;
        lle_X__Z4tanhDv8_f;
        lle_X__Z4tanhDv16_f;
        lle_X__Z4tanhd;
        lle_X__Z4tanhDv2_d;
        lle_X__Z4tanhDv3_d;
        lle_X__Z4tanhDv4_d;
        lle_X__Z4tanhDv8_d;
        lle_X__Z4tanhDv16_d;
        lle_X__Z5tanpif;
        lle_X__Z5tanpiDv2_f;
        lle_X__Z5tanpiDv3_f;
        lle_X__Z5tanpiDv4_f;
        lle_X__Z5tanpiDv8_f;
        lle_X__Z5tanpiDv16_f;
        lle_X__Z5tanpid;
        lle_X__Z5tanpiDv2_d;
        lle_X__Z5tanpiDv3_d;
        lle_X__Z5tanpiDv4_d;
        lle_X__Z5tanpiDv8_d;
        lle_X__Z5tanpiDv16_d;
        lle_X__Z4fabsf;
        lle_X__Z4fabsDv2_f;
        lle_X__Z4fabsDv3_f;
        lle_X__Z4fabsDv4_f;
        lle_X__Z4fabsDv8_f;
        lle_X__Z4fabsDv16_f;
        lle_X__Z4fabsd;
        lle_X__Z4fabsDv2_d;
        lle_X__Z4fabsDv3_d;
        lle_X__Z4fabsDv4_d;
        lle_X__Z4fabsDv8_d;
        lle_X__Z4fabsDv16_d;
        lle_X__Z5floorf;
        lle_X__Z5floorDv2_f;
        lle_X__Z5floorDv3_f;
        lle_X__Z5floorDv4_f;
        lle_X__Z5floorDv8_f;
        lle_X__Z5floorDv16_f;
        lle_X__Z5floord;
        lle_X__Z5floorDv2_d;
        lle_X__Z5floorDv3_d;
        lle_X__Z5floorDv4_d;
        lle_X__Z5floorDv8_d;
        lle_X__Z5floorDv16_d;
        lle_X__Z5acoshf;
        lle_X__Z5acoshDv2_f;
        lle_X__Z5acoshDv3_f;
        lle_X__Z5acoshDv4_f;
        lle_X__Z5acoshDv8_f;
        lle_X__Z5acoshDv16_f;
        lle_X__Z5acoshd;
        lle_X__Z5acoshDv2_d;
        lle_X__Z5acoshDv3_d;
        lle_X__Z5acoshDv4_d;
        lle_X__Z5acoshDv8_d;
        lle_X__Z5acoshDv16_d;
        lle_X__Z5asinhf;
        lle_X__Z5asinhDv2_f;
        lle_X__Z5asinhDv3_f;
        lle_X__Z5asinhDv4_f;
        lle_X__Z5asinhDv8_f;
        lle_X__Z5asinhDv16_f;
        lle_X__Z5asinhd;
        lle_X__Z5asinhDv2_d;
        lle_X__Z5asinhDv3_d;
        lle_X__Z5asinhDv4_d;
        lle_X__Z5asinhDv8_d;
        lle_X__Z5asinhDv16_d;
        lle_X__Z5atanhf;
        lle_X__Z5atanhDv2_f;
        lle_X__Z5atanhDv3_f;
        lle_X__Z5atanhDv4_f;
        lle_X__Z5atanhDv8_f;
        lle_X__Z5atanhDv16_f;
        lle_X__Z5atanhd;
        lle_X__Z5atanhDv2_d;
        lle_X__Z5atanhDv3_d;
        lle_X__Z5atanhDv4_d;
        lle_X__Z5atanhDv8_d;
        lle_X__Z5atanhDv16_d;
        lle_X__Z5rootnfi;
        lle_X__Z5rootnDv2_fDv2_i;
        lle_X__Z5rootnDv3_fDv3_i;
        lle_X__Z5rootnDv4_fDv4_i;
        lle_X__Z5rootnDv8_fDv8_i;
        lle_X__Z5rootnDv16_fDv16_i;
        lle_X__Z5rootndi;
        lle_X__Z5rootnDv2_dDv2_i;
        lle_X__Z5rootnDv3_dDv3_i;
        lle_X__Z5rootnDv4_dDv4_i;
        lle_X__Z5rootnDv8_dDv8_i;
        lle_X__Z5rootnDv16_dDv16_i;
        lle_X__Z5ilogbf;
        lle_X__Z5ilogbDv2_f;
        lle_X__Z5ilogbDv3_f;
        lle_X__Z5ilogbDv4_f;
        lle_X__Z5ilogbDv8_f;
        lle_X__Z5ilogbDv16_f;
        lle_X__Z5ilogbd;
        lle_X__Z5ilogbDv2_d;
        lle_X__Z5ilogbDv3_d;
        lle_X__Z5ilogbDv4_d;
        lle_X__Z5ilogbDv8_d;
        lle_X__Z5ilogbDv16_d;
        lle_X__Z5ldexpfi;
        lle_X__Z5ldexpDv2_fDv2_i;
        lle_X__Z5ldexpDv3_fDv3_i;
        lle_X__Z5ldexpDv4_fDv4_i;
        lle_X__Z5ldexpDv8_fDv8_i;
        lle_X__Z5ldexpDv16_fDv16_i;
        lle_X__Z5ldexpDv2_fi;
        lle_X__Z5ldexpDv3_fi;
        lle_X__Z5ldexpDv4_fi;
        lle_X__Z5ldexpDv8_fi;
        lle_X__Z5ldexpDv16_fi;
        lle_X__Z5ldexpdi;
        lle_X__Z5ldexpDv2_dDv2_i;
        lle_X__Z5ldexpDv3_dDv3_i;
        lle_X__Z5ldexpDv4_dDv4_i;
        lle_X__Z5ldexpDv8_dDv8_i;
        lle_X__Z5ldexpDv16_dDv16_i;
        lle_X__Z5ldexpDv2_di;
        lle_X__Z5ldexpDv3_di;
        lle_X__Z5ldexpDv4_di;
        lle_X__Z5ldexpDv8_di;
        lle_X__Z5ldexpDv16_di;
        lle_X__Z4modffPU3AS1f;
        lle_X__Z4modfDv2_fPU3AS1S_;
        lle_X__Z4modfDv3_fPU3AS1S_;
        lle_X__Z4modfDv4_fPU3AS1S_;
        lle_X__Z4modfDv8_fPU3AS1S_;
        lle_X__Z4modfDv16_fPU3AS1S_;
        lle_X__Z4modffPU3AS3f;
        lle_X__Z4modfDv2_fPU3AS3S_;
        lle_X__Z4modfDv3_fPU3AS3S_;
        lle_X__Z4modfDv4_fPU3AS3S_;
        lle_X__Z4modfDv8_fPU3AS3S_;
        lle_X__Z4modfDv16_fPU3AS3S_;
        lle_X__Z4modffPf;
        lle_X__Z4modfDv2_fPS_;
        lle_X__Z4modfDv3_fPS_;
        lle_X__Z4modfDv4_fPS_;
        lle_X__Z4modfDv8_fPS_;
        lle_X__Z4modfDv16_fPS_;
        lle_X__Z4modfdPU3AS1d;
        lle_X__Z4modfDv2_dPU3AS1S_;
        lle_X__Z4modfDv3_dPU3AS1S_;
        lle_X__Z4modfDv4_dPU3AS1S_;
        lle_X__Z4modfDv8_dPU3AS1S_;
        lle_X__Z4modfDv16_dPU3AS1S_;
        lle_X__Z4modfdPU3AS3d;
        lle_X__Z4modfDv2_dPU3AS3S_;
        lle_X__Z4modfDv3_dPU3AS3S_;
        lle_X__Z4modfDv4_dPU3AS3S_;
        lle_X__Z4modfDv8_dPU3AS3S_;
        lle_X__Z4modfDv16_dPU3AS3S_;
        lle_X__Z4modfdPd;
        lle_X__Z4modfDv2_dPS_;
        lle_X__Z4modfDv3_dPS_;
        lle_X__Z4modfDv4_dPS_;
        lle_X__Z4modfDv8_dPS_;
        lle_X__Z4modfDv16_dPS_;
        lle_X__Z5frexpfPU3AS1i;
        lle_X__Z5frexpDv2_fPU3AS1Dv2_i;
        lle_X__Z5frexpDv3_fPU3AS1Dv3_i;
        lle_X__Z5frexpDv4_fPU3AS1Dv4_i;
        lle_X__Z5frexpDv8_fPU3AS1Dv8_i;
        lle_X__Z5frexpDv16_fPU3AS1Dv16_i;
        lle_X__Z5frexpfPU3AS3i;
        lle_X__Z5frexpDv2_fPU3AS3Dv2_i;
        lle_X__Z5frexpDv3_fPU3AS3Dv3_i;
        lle_X__Z5frexpDv4_fPU3AS3Dv4_i;
        lle_X__Z5frexpDv8_fPU3AS3Dv8_i;
        lle_X__Z5frexpDv16_fPU3AS3Dv16_i;
        lle_X__Z5frexpfPi;
        lle_X__Z5frexpDv2_fPDv2_i;
        lle_X__Z5frexpDv3_fPDv3_i;
        lle_X__Z5frexpDv4_fPDv4_i;
        lle_X__Z5frexpDv8_fPDv8_i;
        lle_X__Z5frexpDv16_fPDv16_i;
        lle_X__Z5frexpdPU3AS1i;
        lle_X__Z5frexpDv2_dPU3AS1Dv2_i;
        lle_X__Z5frexpDv3_dPU3AS1Dv3_i;
        lle_X__Z5frexpDv4_dPU3AS1Dv4_i;
        lle_X__Z5frexpDv8_dPU3AS1Dv8_i;
        lle_X__Z5frexpDv16_dPU3AS1Dv16_i;
        lle_X__Z5frexpdPU3AS3i;
        lle_X__Z5frexpDv2_dPU3AS3Dv2_i;
        lle_X__Z5frexpDv3_dPU3AS3Dv3_i;
        lle_X__Z5frexpDv4_dPU3AS3Dv4_i;
        lle_X__Z5frexpDv8_dPU3AS3Dv8_i;
        lle_X__Z5frexpDv16_dPU3AS3Dv16_i;
        lle_X__Z5frexpdPi;
        lle_X__Z5frexpDv2_dPDv2_i;
        lle_X__Z5frexpDv3_dPDv3_i;
        lle_X__Z5frexpDv4_dPDv4_i;
        lle_X__Z5frexpDv8_dPDv8_i;
        lle_X__Z5frexpDv16_dPDv16_i;
        lle_X__Z9nextafterff;
        lle_X__Z9nextafterDv2_fS_;
        lle_X__Z9nextafterDv3_fS_;
        lle_X__Z9nextafterDv4_fS_;
        lle_X__Z9nextafterDv8_fS_;
        lle_X__Z9nextafterDv16_fS_;
        lle_X__Z9nextafterdd;
        lle_X__Z9nextafterDv2_dS_;
        lle_X__Z9nextafterDv3_dS_;
        lle_X__Z9nextafterDv4_dS_;
        lle_X__Z9nextafterDv8_dS_;
        lle_X__Z9nextafterDv16_dS_;
        lle_X__Z3fmafff;
        lle_X__Z3fmaDv2_fS_S_;
        lle_X__Z3fmaDv3_fS_S_;
        lle_X__Z3fmaDv4_fS_S_;
        lle_X__Z3fmaDv8_fS_S_;
        lle_X__Z3fmaDv16_fS_S_;
        lle_X__Z3fmaddd;
        lle_X__Z3fmaDv2_dS_S_;
        lle_X__Z3fmaDv3_dS_S_;
        lle_X__Z3fmaDv4_dS_S_;
        lle_X__Z3fmaDv8_dS_S_;
        lle_X__Z3fmaDv16_dS_S_;
        lle_X__Z6sincosfPU3AS1f;
        lle_X__Z6sincosDv2_fPU3AS1S_;
        lle_X__Z6sincosDv3_fPU3AS1S_;
        lle_X__Z6sincosDv4_fPU3AS1S_;
        lle_X__Z6sincosDv8_fPU3AS1S_;
        lle_X__Z6sincosDv16_fPU3AS1S_;
        lle_X__Z6sincosfPU3AS3f;
        lle_X__Z6sincosDv2_fPU3AS3S_;
        lle_X__Z6sincosDv3_fPU3AS3S_;
        lle_X__Z6sincosDv4_fPU3AS3S_;
        lle_X__Z6sincosDv8_fPU3AS3S_;
        lle_X__Z6sincosDv16_fPU3AS3S_;
        lle_X__Z6sincosfPf;
        lle_X__Z6sincosDv2_fPS_;
        lle_X__Z6sincosDv3_fPS_;
        lle_X__Z6sincosDv4_fPS_;
        lle_X__Z6sincosDv8_fPS_;
        lle_X__Z6sincosDv16_fPS_;
        lle_X__Z6sincosdPU3AS1d;
        lle_X__Z6sincosDv2_dPU3AS1S_;
        lle_X__Z6sincosDv3_dPU3AS1S_;
        lle_X__Z6sincosDv4_dPU3AS1S_;
        lle_X__Z6sincosDv8_dPU3AS1S_;
        lle_X__Z6sincosDv16_dPU3AS1S_;
        lle_X__Z6sincosdPU3AS3d;
        lle_X__Z6sincosDv2_dPU3AS3S_;
        lle_X__Z6sincosDv3_dPU3AS3S_;
        lle_X__Z6sincosDv4_dPU3AS3S_;
        lle_X__Z6sincosDv8_dPU3AS3S_;
        lle_X__Z6sincosDv16_dPU3AS3S_;
        lle_X__Z6sincosdPd;
        lle_X__Z6sincosDv2_dPS_;
        lle_X__Z6sincosDv3_dPS_;
        lle_X__Z6sincosDv4_dPS_;
        lle_X__Z6sincosDv8_dPS_;
        lle_X__Z6sincosDv16_dPS_;
        lle_X__Z13native_divideff;
        lle_X__Z13native_divideDv2_fS_;
        lle_X__Z13native_divideDv3_fS_;
        lle_X__Z13native_divideDv4_fS_;
        lle_X__Z13native_divideDv8_fS_;
        lle_X__Z13native_divideDv16_fS_;
        lle_X__Z13native_dividedd;
        lle_X__Z13native_divideDv2_dS_;
        lle_X__Z13native_divideDv3_dS_;
        lle_X__Z13native_divideDv4_dS_;
        lle_X__Z13native_divideDv8_dS_;
        lle_X__Z13native_divideDv16_dS_;
        lle_X__Z4powrff;
        lle_X__Z4powrDv2_fS_;
        lle_X__Z4powrDv3_fS_;
        lle_X__Z4powrDv4_fS_;
        lle_X__Z4powrDv8_fS_;
        lle_X__Z4powrDv16_fS_;
        lle_X__Z4powrdd;
        lle_X__Z4powrDv2_dS_;
        lle_X__Z4powrDv3_dS_;
        lle_X__Z4powrDv4_dS_;
        lle_X__Z4powrDv8_dS_;
        lle_X__Z4powrDv16_dS_;
        lle_X__Z12native_recipf;
        lle_X__Z12native_recipDv2_f;
        lle_X__Z12native_recipDv3_f;
        lle_X__Z12native_recipDv4_f;
        lle_X__Z12native_recipDv8_f;
        lle_X__Z12native_recipDv16_f;
        lle_X__Z12native_recipd;
        lle_X__Z12native_recipDv2_d;
        lle_X__Z12native_recipDv3_d;
        lle_X__Z12native_recipDv4_d;
        lle_X__Z12native_recipDv8_d;
        lle_X__Z12native_recipDv16_d;
        lle_X__Z10half_recipf;
        lle_X__Z10half_recipDv2_f;
        lle_X__Z10half_recipDv3_f;
        lle_X__Z10half_recipDv4_f;
        lle_X__Z10half_recipDv8_f;
        lle_X__Z10half_recipDv16_f;
        lle_X__Z11native_sqrtf;
        lle_X__Z11native_sqrtDv2_f;
        lle_X__Z11native_sqrtDv3_f;
        lle_X__Z11native_sqrtDv4_f;
        lle_X__Z11native_sqrtDv8_f;
        lle_X__Z11native_sqrtDv16_f;
        lle_X__Z11native_sqrtd;
        lle_X__Z11native_sqrtDv2_d;
        lle_X__Z11native_sqrtDv3_d;
        lle_X__Z11native_sqrtDv4_d;
        lle_X__Z11native_sqrtDv8_d;
        lle_X__Z11native_sqrtDv16_d;
        lle_X__Z11native_powrff;
        lle_X__Z11native_powrDv2_fS_;
        lle_X__Z11native_powrDv3_fS_;
        lle_X__Z11native_powrDv4_fS_;
        lle_X__Z11native_powrDv8_fS_;
        lle_X__Z11native_powrDv16_fS_;
        lle_X__Z11native_powrdd;
        lle_X__Z11native_powrDv2_dS_;
        lle_X__Z11native_powrDv3_dS_;
        lle_X__Z11native_powrDv4_dS_;
        lle_X__Z11native_powrDv8_dS_;
        lle_X__Z11native_powrDv16_dS_;
        lle_X__Z10native_tanf;
        lle_X__Z10native_tanDv2_f;
        lle_X__Z10native_tanDv3_f;
        lle_X__Z10native_tanDv4_f;
        lle_X__Z10native_tanDv8_f;
        lle_X__Z10native_tanDv16_f;
        lle_X__Z10native_tand;
        lle_X__Z10native_tanDv2_d;
        lle_X__Z10native_tanDv3_d;
        lle_X__Z10native_tanDv4_d;
        lle_X__Z10native_tanDv8_d;
        lle_X__Z10native_tanDv16_d;
        lle_X__Z5fractfPU3AS1f;
        lle_X__Z5fractDv2_fPU3AS1S_;
        lle_X__Z5fractDv3_fPU3AS1S_;
        lle_X__Z5fractDv4_fPU3AS1S_;
        lle_X__Z5fractDv8_fPU3AS1S_;
        lle_X__Z5fractDv16_fPU3AS1S_;
        lle_X__Z5fractfPU3AS3f;
        lle_X__Z5fractDv2_fPU3AS3S_;
        lle_X__Z5fractDv3_fPU3AS3S_;
        lle_X__Z5fractDv4_fPU3AS3S_;
        lle_X__Z5fractDv8_fPU3AS3S_;
        lle_X__Z5fractDv16_fPU3AS3S_;
        lle_X__Z5fractfPf;
        lle_X__Z5fractDv2_fPS_;
        lle_X__Z5fractDv3_fPS_;
        lle_X__Z5fractDv4_fPS_;
        lle_X__Z5fractDv8_fPS_;
        lle_X__Z5fractDv16_fPS_;
        lle_X__Z5fractdPU3AS1d;
        lle_X__Z5fractDv2_dPU3AS1S_;
        lle_X__Z5fractDv3_dPU3AS1S_;
        lle_X__Z5fractDv4_dPU3AS1S_;
        lle_X__Z5fractDv8_dPU3AS1S_;
        lle_X__Z5fractDv16_dPU3AS1S_;
        lle_X__Z5fractdPU3AS3d;
        lle_X__Z5fractDv2_dPU3AS3S_;
        lle_X__Z5fractDv3_dPU3AS3S_;
        lle_X__Z5fractDv4_dPU3AS3S_;
        lle_X__Z5fractDv8_dPU3AS3S_;
        lle_X__Z5fractDv16_dPU3AS3S_;
        lle_X__Z5fractdPd;
        lle_X__Z5fractDv2_dPS_;
        lle_X__Z5fractDv3_dPS_;
        lle_X__Z5fractDv4_dPS_;
        lle_X__Z5fractDv8_dPS_;
        lle_X__Z5fractDv16_dPS_;
        lle_X__Z4fmaxff;
        lle_X__Z4fmaxDv2_fS_;
        lle_X__Z4fmaxDv3_fS_;
        lle_X__Z4fmaxDv4_fS_;
        lle_X__Z4fmaxDv8_fS_;
        lle_X__Z4fmaxDv16_fS_;
        lle_X__Z4fmaxDv2_ff;
        lle_X__Z4fmaxDv3_ff;
        lle_X__Z4fmaxDv4_ff;
        lle_X__Z4fmaxDv8_ff;
        lle_X__Z4fmaxDv16_ff;
        lle_X__Z4fmaxdd;
        lle_X__Z4fmaxDv2_dS_;
        lle_X__Z4fmaxDv3_dS_;
        lle_X__Z4fmaxDv4_dS_;
        lle_X__Z4fmaxDv8_dS_;
        lle_X__Z4fmaxDv16_dS_;
        lle_X__Z4fmaxDv2_dd;
        lle_X__Z4fmaxDv3_dd;
        lle_X__Z4fmaxDv4_dd;
        lle_X__Z4fmaxDv8_dd;
        lle_X__Z4fmaxDv16_dd;
        lle_X__Z4fminff;
        lle_X__Z4fminDv2_fS_;
        lle_X__Z4fminDv3_fS_;
        lle_X__Z4fminDv4_fS_;
        lle_X__Z4fminDv8_fS_;
        lle_X__Z4fminDv16_fS_;
        lle_X__Z4fminDv2_ff;
        lle_X__Z4fminDv3_ff;
        lle_X__Z4fminDv4_ff;
        lle_X__Z4fminDv8_ff;
        lle_X__Z4fminDv16_ff;
        lle_X__Z4fmindd;
        lle_X__Z4fminDv2_dS_;
        lle_X__Z4fminDv3_dS_;
        lle_X__Z4fminDv4_dS_;
        lle_X__Z4fminDv8_dS_;
        lle_X__Z4fminDv16_dS_;
        lle_X__Z4fminDv2_dd;
        lle_X__Z4fminDv3_dd;
        lle_X__Z4fminDv4_dd;
        lle_X__Z4fminDv8_dd;
        lle_X__Z4fminDv16_dd;
        lle_X__Z10half_rsqrtf;
        lle_X__Z10half_rsqrtDv2_f;
        lle_X__Z10half_rsqrtDv3_f;
        lle_X__Z10half_rsqrtDv4_f;
        lle_X__Z10half_rsqrtDv8_f;
        lle_X__Z10half_rsqrtDv16_f;
        lle_X__Z9half_sqrtf;
        lle_X__Z9half_sqrtDv2_f;
        lle_X__Z9half_sqrtDv3_f;
        lle_X__Z9half_sqrtDv4_f;
        lle_X__Z9half_sqrtDv8_f;
        lle_X__Z9half_sqrtDv16_f;
        lle_X__Z8half_cosf;
        lle_X__Z8half_cosDv2_f;
        lle_X__Z8half_cosDv3_f;
        lle_X__Z8half_cosDv4_f;
        lle_X__Z8half_cosDv8_f;
        lle_X__Z8half_cosDv16_f;
        lle_X__Z8half_sinf;
        lle_X__Z8half_sinDv2_f;
        lle_X__Z8half_sinDv3_f;
        lle_X__Z8half_sinDv4_f;
        lle_X__Z8half_sinDv8_f;
        lle_X__Z8half_sinDv16_f;
        lle_X__Z8half_tanf;
        lle_X__Z8half_tanDv2_f;
        lle_X__Z8half_tanDv3_f;
        lle_X__Z8half_tanDv4_f;
        lle_X__Z8half_tanDv8_f;
        lle_X__Z8half_tanDv16_f;
        lle_X__Z9half_powrff;
        lle_X__Z9half_powrDv2_fS_;
        lle_X__Z9half_powrDv3_fS_;
        lle_X__Z9half_powrDv4_fS_;
        lle_X__Z9half_powrDv8_fS_;
        lle_X__Z9half_powrDv16_fS_;
        lle_X__Z11half_divideff;
        lle_X__Z11half_divideDv2_fS_;
        lle_X__Z11half_divideDv3_fS_;
        lle_X__Z11half_divideDv4_fS_;
        lle_X__Z11half_divideDv8_fS_;
        lle_X__Z11half_divideDv16_fS_;
        lle_X__Z4fmodff;
        lle_X__Z4fmodDv2_fS_;
        lle_X__Z4fmodDv3_fS_;
        lle_X__Z4fmodDv4_fS_;
        lle_X__Z4fmodDv8_fS_;
        lle_X__Z4fmodDv16_fS_;
        lle_X__Z4fmoddd;
        lle_X__Z4fmodDv2_dS_;
        lle_X__Z4fmodDv3_dS_;
        lle_X__Z4fmodDv4_dS_;
        lle_X__Z4fmodDv8_dS_;
        lle_X__Z4fmodDv16_dS_;
        lle_X__Z4pownfi;
        lle_X__Z4pownDv2_fDv2_i;
        lle_X__Z4pownDv3_fDv3_i;
        lle_X__Z4pownDv4_fDv4_i;
        lle_X__Z4pownDv8_fDv8_i;
        lle_X__Z4pownDv16_fDv16_i;
        lle_X__Z4powndi;
        lle_X__Z4pownDv2_dDv2_i;
        lle_X__Z4pownDv3_dDv3_i;
        lle_X__Z4pownDv4_dDv4_i;
        lle_X__Z4pownDv8_dDv8_i;
        lle_X__Z4pownDv16_dDv16_i;
        lle_X__Z4cbrtf;
        lle_X__Z4cbrtDv2_f;
        lle_X__Z4cbrtDv3_f;
        lle_X__Z4cbrtDv4_f;
        lle_X__Z4cbrtDv8_f;
        lle_X__Z4cbrtDv16_f;
        lle_X__Z4cbrtd;
        lle_X__Z4cbrtDv2_d;
        lle_X__Z4cbrtDv3_d;
        lle_X__Z4cbrtDv4_d;
        lle_X__Z4cbrtDv8_d;
        lle_X__Z4cbrtDv16_d;
        lle_X__Z3nanj;
        lle_X__Z3nanDv2_j;
        lle_X__Z3nanDv3_j;
        lle_X__Z3nanDv4_j;
        lle_X__Z3nanDv8_j;
        lle_X__Z3nanDv16_j;
        lle_X__Z3nanm;
        lle_X__Z3nanDv2_m;
        lle_X__Z3nanDv3_m;
        lle_X__Z3nanDv4_m;
        lle_X__Z3nanDv8_m;
        lle_X__Z3nanDv16_m;
        lle_X__Z8copysignff;
        lle_X__Z8copysignDv2_fS_;
        lle_X__Z8copysignDv3_fS_;
        lle_X__Z8copysignDv4_fS_;
        lle_X__Z8copysignDv8_fS_;
        lle_X__Z8copysignDv16_fS_;
        lle_X__Z8copysigndd;
        lle_X__Z8copysignDv2_dS_;
        lle_X__Z8copysignDv3_dS_;
        lle_X__Z8copysignDv4_dS_;
        lle_X__Z8copysignDv8_dS_;
        lle_X__Z8copysignDv16_dS_;
        lle_X__Z4fdimff;
        lle_X__Z4fdimDv2_fS_;
        lle_X__Z4fdimDv3_fS_;
        lle_X__Z4fdimDv4_fS_;
        lle_X__Z4fdimDv8_fS_;
        lle_X__Z4fdimDv16_fS_;
        lle_X__Z4fdimdd;
        lle_X__Z4fdimDv2_dS_;
        lle_X__Z4fdimDv3_dS_;
        lle_X__Z4fdimDv4_dS_;
        lle_X__Z4fdimDv8_dS_;
        lle_X__Z4fdimDv16_dS_;
        lle_X__Z4rintf;
        lle_X__Z4rintDv2_f;
        lle_X__Z4rintDv3_f;
        lle_X__Z4rintDv4_f;
        lle_X__Z4rintDv8_f;
        lle_X__Z4rintDv16_f;
        lle_X__Z4rintd;
        lle_X__Z4rintDv2_d;
        lle_X__Z4rintDv3_d;
        lle_X__Z4rintDv4_d;
        lle_X__Z4rintDv8_d;
        lle_X__Z4rintDv16_d;
        lle_X__Z5roundf;
        lle_X__Z5roundDv2_f;
        lle_X__Z5roundDv3_f;
        lle_X__Z5roundDv4_f;
        lle_X__Z5roundDv8_f;
        lle_X__Z5roundDv16_f;
        lle_X__Z5roundd;
        lle_X__Z5roundDv2_d;
        lle_X__Z5roundDv3_d;
        lle_X__Z5roundDv4_d;
        lle_X__Z5roundDv8_d;
        lle_X__Z5roundDv16_d;
        lle_X__Z5truncf;
        lle_X__Z5truncDv2_f;
        lle_X__Z5truncDv3_f;
        lle_X__Z5truncDv4_f;
        lle_X__Z5truncDv8_f;
        lle_X__Z5truncDv16_f;
        lle_X__Z5truncd;
        lle_X__Z5truncDv2_d;
        lle_X__Z5truncDv3_d;
        lle_X__Z5truncDv4_d;
        lle_X__Z5truncDv8_d;
        lle_X__Z5truncDv16_d;
        lle_X__Z6lgammaf;
        lle_X__Z6lgammaDv2_f;
        lle_X__Z6lgammaDv3_f;
        lle_X__Z6lgammaDv4_f;
        lle_X__Z6lgammaDv8_f;
        lle_X__Z6lgammaDv16_f;
        lle_X__Z8lgamma_rfPU3AS1i;
        lle_X__Z8lgamma_rDv2_fPU3AS1Dv2_i;
        lle_X__Z8lgamma_rDv3_fPU3AS1Dv3_i;
        lle_X__Z8lgamma_rDv4_fPU3AS1Dv4_i;
        lle_X__Z8lgamma_rDv8_fPU3AS1Dv8_i;
        lle_X__Z8lgamma_rDv16_fPU3AS1Dv16_i;
        lle_X__Z8lgamma_rfPU3AS3i;
        lle_X__Z8lgamma_rDv2_fPU3AS3Dv2_i;
        lle_X__Z8lgamma_rDv3_fPU3AS3Dv3_i;
        lle_X__Z8lgamma_rDv4_fPU3AS3Dv4_i;
        lle_X__Z8lgamma_rDv8_fPU3AS3Dv8_i;
        lle_X__Z8lgamma_rDv16_fPU3AS3Dv16_i;
        lle_X__Z8lgamma_rfPi;
        lle_X__Z8lgamma_rDv2_fPDv2_i;
        lle_X__Z8lgamma_rDv3_fPDv3_i;
        lle_X__Z8lgamma_rDv4_fPDv4_i;
        lle_X__Z8lgamma_rDv8_fPDv8_i;
        lle_X__Z8lgamma_rDv16_fPDv16_i;
        lle_X__Z6lgammad;
        lle_X__Z6lgammaDv2_d;
        lle_X__Z6lgammaDv3_d;
        lle_X__Z6lgammaDv4_d;
        lle_X__Z6lgammaDv8_d;
        lle_X__Z6lgammaDv16_d;
        lle_X__Z8lgamma_rdPU3AS1i;
        lle_X__Z8lgamma_rDv2_dPU3AS1Dv2_i;
        lle_X__Z8lgamma_rDv3_dPU3AS1Dv3_i;
        lle_X__Z8lgamma_rDv4_dPU3AS1Dv4_i;
        lle_X__Z8lgamma_rDv8_dPU3AS1Dv8_i;
        lle_X__Z8lgamma_rDv16_dPU3AS1Dv16_i;
        lle_X__Z8lgamma_rdPU3AS3i;
        lle_X__Z8lgamma_rDv2_dPU3AS3Dv2_i;
        lle_X__Z8lgamma_rDv3_dPU3AS3Dv3_i;
        lle_X__Z8lgamma_rDv4_dPU3AS3Dv4_i;
        lle_X__Z8lgamma_rDv8_dPU3AS3Dv8_i;
        lle_X__Z8lgamma_rDv16_dPU3AS3Dv16_i;
        lle_X__Z8lgamma_rdPi;
        lle_X__Z8lgamma_rDv2_dPDv2_i;
        lle_X__Z8lgamma_rDv3_dPDv3_i;
        lle_X__Z8lgamma_rDv4_dPDv4_i;
        lle_X__Z8lgamma_rDv8_dPDv8_i;
        lle_X__Z8lgamma_rDv16_dPDv16_i;
        lle_X__Z3madfff;
        lle_X__Z3madDv2_fS_S_;
        lle_X__Z3madDv3_fS_S_;
        lle_X__Z3madDv4_fS_S_;
        lle_X__Z3madDv8_fS_S_;
        lle_X__Z3madDv16_fS_S_;
        lle_X__Z3madddd;
        lle_X__Z3madDv2_dS_S_;
        lle_X__Z3madDv3_dS_S_;
        lle_X__Z3madDv4_dS_S_;
        lle_X__Z3madDv8_dS_S_;
        lle_X__Z3madDv16_dS_S_;
        lle_X__Z6maxmagff;
        lle_X__Z6maxmagDv2_fS_;
        lle_X__Z6maxmagDv3_fS_;
        lle_X__Z6maxmagDv4_fS_;
        lle_X__Z6maxmagDv8_fS_;
        lle_X__Z6maxmagDv16_fS_;
        lle_X__Z6maxmagdd;
        lle_X__Z6maxmagDv2_dS_;
        lle_X__Z6maxmagDv3_dS_;
        lle_X__Z6maxmagDv4_dS_;
        lle_X__Z6maxmagDv8_dS_;
        lle_X__Z6maxmagDv16_dS_;
        lle_X__Z6minmagff;
        lle_X__Z6minmagDv2_fS_;
        lle_X__Z6minmagDv3_fS_;
        lle_X__Z6minmagDv4_fS_;
        lle_X__Z6minmagDv8_fS_;
        lle_X__Z6minmagDv16_fS_;
        lle_X__Z6minmagdd;
        lle_X__Z6minmagDv2_dS_;
        lle_X__Z6minmagDv3_dS_;
        lle_X__Z6minmagDv4_dS_;
        lle_X__Z6minmagDv8_dS_;
        lle_X__Z6minmagDv16_dS_;
        lle_X__Z9remainderff;
        lle_X__Z9remainderDv2_fS_;
        lle_X__Z9remainderDv3_fS_;
        lle_X__Z9remainderDv4_fS_;
        lle_X__Z9remainderDv8_fS_;
        lle_X__Z9remainderDv16_fS_;
        lle_X__Z9remainderdd;
        lle_X__Z9remainderDv2_dS_;
        lle_X__Z9remainderDv3_dS_;
        lle_X__Z9remainderDv4_dS_;
        lle_X__Z9remainderDv8_dS_;
        lle_X__Z9remainderDv16_dS_;
        lle_X__Z6remquoffPU3AS1i;
        lle_X__Z6remquoDv2_fS_PU3AS1Dv2_i;
        lle_X__Z6remquoDv3_fS_PU3AS1Dv3_i;
        lle_X__Z6remquoDv4_fS_PU3AS1Dv4_i;
        lle_X__Z6remquoDv8_fS_PU3AS1Dv8_i;
        lle_X__Z6remquoDv16_fS_PU3AS1Dv16_i;
        lle_X__Z6remquoffPU3AS3i;
        lle_X__Z6remquoDv2_fS_PU3AS3Dv2_i;
        lle_X__Z6remquoDv3_fS_PU3AS3Dv3_i;
        lle_X__Z6remquoDv4_fS_PU3AS3Dv4_i;
        lle_X__Z6remquoDv8_fS_PU3AS3Dv8_i;
        lle_X__Z6remquoDv16_fS_PU3AS3Dv16_i;
        lle_X__Z6remquoffPi;
        lle_X__Z6remquoDv2_fS_PDv2_i;
        lle_X__Z6remquoDv3_fS_PDv3_i;
        lle_X__Z6remquoDv4_fS_PDv4_i;
        lle_X__Z6remquoDv8_fS_PDv8_i;
        lle_X__Z6remquoDv16_fS_PDv16_i;
        lle_X__Z6remquoddPU3AS1i;
        lle_X__Z6remquoDv2_dS_PU3AS1Dv2_i;
        lle_X__Z6remquoDv3_dS_PU3AS1Dv3_i;
        lle_X__Z6remquoDv4_dS_PU3AS1Dv4_i;
        lle_X__Z6remquoDv8_dS_PU3AS1Dv8_i;
        lle_X__Z6remquoDv16_dS_PU3AS1Dv16_i;
        lle_X__Z6remquoddPU3AS3i;
        lle_X__Z6remquoDv2_dS_PU3AS3Dv2_i;
        lle_X__Z6remquoDv3_dS_PU3AS3Dv3_i;
        lle_X__Z6remquoDv4_dS_PU3AS3Dv4_i;
        lle_X__Z6remquoDv8_dS_PU3AS3Dv8_i;
        lle_X__Z6remquoDv16_dS_PU3AS3Dv16_i;
        lle_X__Z6remquoddPi;
        lle_X__Z6remquoDv2_dS_PDv2_i;
        lle_X__Z6remquoDv3_dS_PDv3_i;
        lle_X__Z6remquoDv4_dS_PDv4_i;
        lle_X__Z6remquoDv8_dS_PDv8_i;
        lle_X__Z6remquoDv16_dS_PDv16_i;
        lle_X__Z7shuffleDv2_cDv2_h;
        lle_X__Z7shuffleDv4_cDv2_h;
        lle_X__Z7shuffleDv8_cDv2_h;
        lle_X__Z7shuffleDv16_cDv2_h;
        lle_X__Z7shuffleDv2_hS_;
        lle_X__Z7shuffleDv4_hDv2_h;
        lle_X__Z7shuffleDv8_hDv2_h;
        lle_X__Z7shuffleDv16_hDv2_h;
        lle_X__Z7shuffleDv2_sDv2_t;
        lle_X__Z7shuffleDv4_sDv2_t;
        lle_X__Z7shuffleDv8_sDv2_t;
        lle_X__Z7shuffleDv16_sDv2_t;
        lle_X__Z7shuffleDv2_tS_;
        lle_X__Z7shuffleDv4_tDv2_t;
        lle_X__Z7shuffleDv8_tDv2_t;
        lle_X__Z7shuffleDv16_tDv2_t;
        lle_X__Z7shuffleDv2_iDv2_j;
        lle_X__Z7shuffleDv4_iDv2_j;
        lle_X__Z7shuffleDv8_iDv2_j;
        lle_X__Z7shuffleDv16_iDv2_j;
        lle_X__Z7shuffleDv2_jS_;
        lle_X__Z7shuffleDv4_jDv2_j;
        lle_X__Z7shuffleDv8_jDv2_j;
        lle_X__Z7shuffleDv16_jDv2_j;
        lle_X__Z7shuffleDv2_lDv2_m;
        lle_X__Z7shuffleDv4_lDv2_m;
        lle_X__Z7shuffleDv8_lDv2_m;
        lle_X__Z7shuffleDv16_lDv2_m;
        lle_X__Z7shuffleDv2_mS_;
        lle_X__Z7shuffleDv4_mDv2_m;
        lle_X__Z7shuffleDv8_mDv2_m;
        lle_X__Z7shuffleDv16_mDv2_m;
        lle_X__Z7shuffleDv2_fDv2_j;
        lle_X__Z7shuffleDv4_fDv2_j;
        lle_X__Z7shuffleDv8_fDv2_j;
        lle_X__Z7shuffleDv16_fDv2_j;
        lle_X__Z7shuffleDv2_dDv2_m;
        lle_X__Z7shuffleDv4_dDv2_m;
        lle_X__Z7shuffleDv8_dDv2_m;
        lle_X__Z7shuffleDv16_dDv2_m;
        lle_X__Z7shuffleDv2_cDv4_h;
        lle_X__Z7shuffleDv4_cDv4_h;
        lle_X__Z7shuffleDv8_cDv4_h;
        lle_X__Z7shuffleDv16_cDv4_h;
        lle_X__Z7shuffleDv2_hDv4_h;
        lle_X__Z7shuffleDv4_hS_;
        lle_X__Z7shuffleDv8_hDv4_h;
        lle_X__Z7shuffleDv16_hDv4_h;
        lle_X__Z7shuffleDv2_sDv4_t;
        lle_X__Z7shuffleDv4_sDv4_t;
        lle_X__Z7shuffleDv8_sDv4_t;
        lle_X__Z7shuffleDv16_sDv4_t;
        lle_X__Z7shuffleDv2_tDv4_t;
        lle_X__Z7shuffleDv4_tS_;
        lle_X__Z7shuffleDv8_tDv4_t;
        lle_X__Z7shuffleDv16_tDv4_t;
        lle_X__Z7shuffleDv2_iDv4_j;
        lle_X__Z7shuffleDv4_iDv4_j;
        lle_X__Z7shuffleDv8_iDv4_j;
        lle_X__Z7shuffleDv16_iDv4_j;
        lle_X__Z7shuffleDv2_jDv4_j;
        lle_X__Z7shuffleDv4_jS_;
        lle_X__Z7shuffleDv8_jDv4_j;
        lle_X__Z7shuffleDv16_jDv4_j;
        lle_X__Z7shuffleDv2_lDv4_m;
        lle_X__Z7shuffleDv4_lDv4_m;
        lle_X__Z7shuffleDv8_lDv4_m;
        lle_X__Z7shuffleDv16_lDv4_m;
        lle_X__Z7shuffleDv2_mDv4_m;
        lle_X__Z7shuffleDv4_mS_;
        lle_X__Z7shuffleDv8_mDv4_m;
        lle_X__Z7shuffleDv16_mDv4_m;
        lle_X__Z7shuffleDv2_fDv4_j;
        lle_X__Z7shuffleDv4_fDv4_j;
        lle_X__Z7shuffleDv8_fDv4_j;
        lle_X__Z7shuffleDv16_fDv4_j;
        lle_X__Z7shuffleDv2_dDv4_m;
        lle_X__Z7shuffleDv4_dDv4_m;
        lle_X__Z7shuffleDv8_dDv4_m;
        lle_X__Z7shuffleDv16_dDv4_m;
        lle_X__Z7shuffleDv2_cDv8_h;
        lle_X__Z7shuffleDv4_cDv8_h;
        lle_X__Z7shuffleDv8_cDv8_h;
        lle_X__Z7shuffleDv16_cDv8_h;
        lle_X__Z7shuffleDv2_hDv8_h;
        lle_X__Z7shuffleDv4_hDv8_h;
        lle_X__Z7shuffleDv8_hS_;
        lle_X__Z7shuffleDv16_hDv8_h;
        lle_X__Z7shuffleDv2_sDv8_t;
        lle_X__Z7shuffleDv4_sDv8_t;
        lle_X__Z7shuffleDv8_sDv8_t;
        lle_X__Z7shuffleDv16_sDv8_t;
        lle_X__Z7shuffleDv2_tDv8_t;
        lle_X__Z7shuffleDv4_tDv8_t;
        lle_X__Z7shuffleDv8_tS_;
        lle_X__Z7shuffleDv16_tDv8_t;
        lle_X__Z7shuffleDv2_iDv8_j;
        lle_X__Z7shuffleDv4_iDv8_j;
        lle_X__Z7shuffleDv8_iDv8_j;
        lle_X__Z7shuffleDv16_iDv8_j;
        lle_X__Z7shuffleDv2_jDv8_j;
        lle_X__Z7shuffleDv4_jDv8_j;
        lle_X__Z7shuffleDv8_jS_;
        lle_X__Z7shuffleDv16_jDv8_j;
        lle_X__Z7shuffleDv2_lDv8_m;
        lle_X__Z7shuffleDv4_lDv8_m;
        lle_X__Z7shuffleDv8_lDv8_m;
        lle_X__Z7shuffleDv16_lDv8_m;
        lle_X__Z7shuffleDv2_mDv8_m;
        lle_X__Z7shuffleDv4_mDv8_m;
        lle_X__Z7shuffleDv8_mS_;
        lle_X__Z7shuffleDv16_mDv8_m;
        lle_X__Z7shuffleDv2_fDv8_j;
        lle_X__Z7shuffleDv4_fDv8_j;
        lle_X__Z7shuffleDv8_fDv8_j;
        lle_X__Z7shuffleDv16_fDv8_j;
        lle_X__Z7shuffleDv2_dDv8_m;
        lle_X__Z7shuffleDv4_dDv8_m;
        lle_X__Z7shuffleDv8_dDv8_m;
        lle_X__Z7shuffleDv16_dDv8_m;
        lle_X__Z7shuffleDv2_cDv16_h;
        lle_X__Z7shuffleDv4_cDv16_h;
        lle_X__Z7shuffleDv8_cDv16_h;
        lle_X__Z7shuffleDv16_cDv16_h;
        lle_X__Z7shuffleDv2_hDv16_h;
        lle_X__Z7shuffleDv4_hDv16_h;
        lle_X__Z7shuffleDv8_hDv16_h;
        lle_X__Z7shuffleDv16_hS_;
        lle_X__Z7shuffleDv2_sDv16_t;
        lle_X__Z7shuffleDv4_sDv16_t;
        lle_X__Z7shuffleDv8_sDv16_t;
        lle_X__Z7shuffleDv16_sDv16_t;
        lle_X__Z7shuffleDv2_tDv16_t;
        lle_X__Z7shuffleDv4_tDv16_t;
        lle_X__Z7shuffleDv8_tDv16_t;
        lle_X__Z7shuffleDv16_tS_;
        lle_X__Z7shuffleDv2_iDv16_j;
        lle_X__Z7shuffleDv4_iDv16_j;
        lle_X__Z7shuffleDv8_iDv16_j;
        lle_X__Z7shuffleDv16_iDv16_j;
        lle_X__Z7shuffleDv2_jDv16_j;
        lle_X__Z7shuffleDv4_jDv16_j;
        lle_X__Z7shuffleDv8_jDv16_j;
        lle_X__Z7shuffleDv16_jS_;
        lle_X__Z7shuffleDv2_lDv16_m;
        lle_X__Z7shuffleDv4_lDv16_m;
        lle_X__Z7shuffleDv8_lDv16_m;
        lle_X__Z7shuffleDv16_lDv16_m;
        lle_X__Z7shuffleDv2_mDv16_m;
        lle_X__Z7shuffleDv4_mDv16_m;
        lle_X__Z7shuffleDv8_mDv16_m;
        lle_X__Z7shuffleDv16_mS_;
        lle_X__Z7shuffleDv2_fDv16_j;
        lle_X__Z7shuffleDv4_fDv16_j;
        lle_X__Z7shuffleDv8_fDv16_j;
        lle_X__Z7shuffleDv16_fDv16_j;
        lle_X__Z7shuffleDv2_dDv16_m;
        lle_X__Z7shuffleDv4_dDv16_m;
        lle_X__Z7shuffleDv8_dDv16_m;
        lle_X__Z7shuffleDv16_dDv16_m;
        lle_X__Z8shuffle2Dv2_cS_Dv2_h;
        lle_X__Z8shuffle2Dv4_cS_Dv2_h;
        lle_X__Z8shuffle2Dv8_cS_Dv2_h;
        lle_X__Z8shuffle2Dv16_cS_Dv2_h;
        lle_X__Z8shuffle2Dv2_hS_S_;
        lle_X__Z8shuffle2Dv4_hS_Dv2_h;
        lle_X__Z8shuffle2Dv8_hS_Dv2_h;
        lle_X__Z8shuffle2Dv16_hS_Dv2_h;
        lle_X__Z8shuffle2Dv2_sS_Dv2_t;
        lle_X__Z8shuffle2Dv4_sS_Dv2_t;
        lle_X__Z8shuffle2Dv8_sS_Dv2_t;
        lle_X__Z8shuffle2Dv16_sS_Dv2_t;
        lle_X__Z8shuffle2Dv2_tS_S_;
        lle_X__Z8shuffle2Dv4_tS_Dv2_t;
        lle_X__Z8shuffle2Dv8_tS_Dv2_t;
        lle_X__Z8shuffle2Dv16_tS_Dv2_t;
        lle_X__Z8shuffle2Dv2_iS_Dv2_j;
        lle_X__Z8shuffle2Dv4_iS_Dv2_j;
        lle_X__Z8shuffle2Dv8_iS_Dv2_j;
        lle_X__Z8shuffle2Dv16_iS_Dv2_j;
        lle_X__Z8shuffle2Dv2_jS_S_;
        lle_X__Z8shuffle2Dv4_jS_Dv2_j;
        lle_X__Z8shuffle2Dv8_jS_Dv2_j;
        lle_X__Z8shuffle2Dv16_jS_Dv2_j;
        lle_X__Z8shuffle2Dv2_lS_Dv2_m;
        lle_X__Z8shuffle2Dv4_lS_Dv2_m;
        lle_X__Z8shuffle2Dv8_lS_Dv2_m;
        lle_X__Z8shuffle2Dv16_lS_Dv2_m;
        lle_X__Z8shuffle2Dv2_mS_S_;
        lle_X__Z8shuffle2Dv4_mS_Dv2_m;
        lle_X__Z8shuffle2Dv8_mS_Dv2_m;
        lle_X__Z8shuffle2Dv16_mS_Dv2_m;
        lle_X__Z8shuffle2Dv2_fS_Dv2_j;
        lle_X__Z8shuffle2Dv4_fS_Dv2_j;
        lle_X__Z8shuffle2Dv8_fS_Dv2_j;
        lle_X__Z8shuffle2Dv16_fS_Dv2_j;
        lle_X__Z8shuffle2Dv2_dS_Dv2_m;
        lle_X__Z8shuffle2Dv4_dS_Dv2_m;
        lle_X__Z8shuffle2Dv8_dS_Dv2_m;
        lle_X__Z8shuffle2Dv16_dS_Dv2_m;
        lle_X__Z8shuffle2Dv2_cS_Dv4_h;
        lle_X__Z8shuffle2Dv4_cS_Dv4_h;
        lle_X__Z8shuffle2Dv8_cS_Dv4_h;
        lle_X__Z8shuffle2Dv16_cS_Dv4_h;
        lle_X__Z8shuffle2Dv2_hS_Dv4_h;
        lle_X__Z8shuffle2Dv4_hS_S_;
        lle_X__Z8shuffle2Dv8_hS_Dv4_h;
        lle_X__Z8shuffle2Dv16_hS_Dv4_h;
        lle_X__Z8shuffle2Dv2_sS_Dv4_t;
        lle_X__Z8shuffle2Dv4_sS_Dv4_t;
        lle_X__Z8shuffle2Dv8_sS_Dv4_t;
        lle_X__Z8shuffle2Dv16_sS_Dv4_t;
        lle_X__Z8shuffle2Dv2_tS_Dv4_t;
        lle_X__Z8shuffle2Dv4_tS_S_;
        lle_X__Z8shuffle2Dv8_tS_Dv4_t;
        lle_X__Z8shuffle2Dv16_tS_Dv4_t;
        lle_X__Z8shuffle2Dv2_iS_Dv4_j;
        lle_X__Z8shuffle2Dv4_iS_Dv4_j;
        lle_X__Z8shuffle2Dv8_iS_Dv4_j;
        lle_X__Z8shuffle2Dv16_iS_Dv4_j;
        lle_X__Z8shuffle2Dv2_jS_Dv4_j;
        lle_X__Z8shuffle2Dv4_jS_S_;
        lle_X__Z8shuffle2Dv8_jS_Dv4_j;
        lle_X__Z8shuffle2Dv16_jS_Dv4_j;
        lle_X__Z8shuffle2Dv2_lS_Dv4_m;
        lle_X__Z8shuffle2Dv4_lS_Dv4_m;
        lle_X__Z8shuffle2Dv8_lS_Dv4_m;
        lle_X__Z8shuffle2Dv16_lS_Dv4_m;
        lle_X__Z8shuffle2Dv2_mS_Dv4_m;
        lle_X__Z8shuffle2Dv4_mS_S_;
        lle_X__Z8shuffle2Dv8_mS_Dv4_m;
        lle_X__Z8shuffle2Dv16_mS_Dv4_m;
        lle_X__Z8shuffle2Dv2_fS_Dv4_j;
        lle_X__Z8shuffle2Dv4_fS_Dv4_j;
        lle_X__Z8shuffle2Dv8_fS_Dv4_j;
        lle_X__Z8shuffle2Dv16_fS_Dv4_j;
        lle_X__Z8shuffle2Dv2_dS_Dv4_m;
        lle_X__Z8shuffle2Dv4_dS_Dv4_m;
        lle_X__Z8shuffle2Dv8_dS_Dv4_m;
        lle_X__Z8shuffle2Dv16_dS_Dv4_m;
        lle_X__Z8shuffle2Dv2_cS_Dv8_h;
        lle_X__Z8shuffle2Dv4_cS_Dv8_h;
        lle_X__Z8shuffle2Dv8_cS_Dv8_h;
        lle_X__Z8shuffle2Dv16_cS_Dv8_h;
        lle_X__Z8shuffle2Dv2_hS_Dv8_h;
        lle_X__Z8shuffle2Dv4_hS_Dv8_h;
        lle_X__Z8shuffle2Dv8_hS_S_;
        lle_X__Z8shuffle2Dv16_hS_Dv8_h;
        lle_X__Z8shuffle2Dv2_sS_Dv8_t;
        lle_X__Z8shuffle2Dv4_sS_Dv8_t;
        lle_X__Z8shuffle2Dv8_sS_Dv8_t;
        lle_X__Z8shuffle2Dv16_sS_Dv8_t;
        lle_X__Z8shuffle2Dv2_tS_Dv8_t;
        lle_X__Z8shuffle2Dv4_tS_Dv8_t;
        lle_X__Z8shuffle2Dv8_tS_S_;
        lle_X__Z8shuffle2Dv16_tS_Dv8_t;
        lle_X__Z8shuffle2Dv2_iS_Dv8_j;
        lle_X__Z8shuffle2Dv4_iS_Dv8_j;
        lle_X__Z8shuffle2Dv8_iS_Dv8_j;
        lle_X__Z8shuffle2Dv16_iS_Dv8_j;
        lle_X__Z8shuffle2Dv2_jS_Dv8_j;
        lle_X__Z8shuffle2Dv4_jS_Dv8_j;
        lle_X__Z8shuffle2Dv8_jS_S_;
        lle_X__Z8shuffle2Dv16_jS_Dv8_j;
        lle_X__Z8shuffle2Dv2_lS_Dv8_m;
        lle_X__Z8shuffle2Dv4_lS_Dv8_m;
        lle_X__Z8shuffle2Dv8_lS_Dv8_m;
        lle_X__Z8shuffle2Dv16_lS_Dv8_m;
        lle_X__Z8shuffle2Dv2_mS_Dv8_m;
        lle_X__Z8shuffle2Dv4_mS_Dv8_m;
        lle_X__Z8shuffle2Dv8_mS_S_;
        lle_X__Z8shuffle2Dv16_mS_Dv8_m;
        lle_X__Z8shuffle2Dv2_fS_Dv8_j;
        lle_X__Z8shuffle2Dv4_fS_Dv8_j;
        lle_X__Z8shuffle2Dv8_fS_Dv8_j;
        lle_X__Z8shuffle2Dv16_fS_Dv8_j;
        lle_X__Z8shuffle2Dv2_dS_Dv8_m;
        lle_X__Z8shuffle2Dv4_dS_Dv8_m;
        lle_X__Z8shuffle2Dv8_dS_Dv8_m;
        lle_X__Z8shuffle2Dv16_dS_Dv8_m;
        lle_X__Z8shuffle2Dv2_cS_Dv16_h;
        lle_X__Z8shuffle2Dv4_cS_Dv16_h;
        lle_X__Z8shuffle2Dv8_cS_Dv16_h;
        lle_X__Z8shuffle2Dv16_cS_Dv16_h;
        lle_X__Z8shuffle2Dv2_hS_Dv16_h;
        lle_X__Z8shuffle2Dv4_hS_Dv16_h;
        lle_X__Z8shuffle2Dv8_hS_Dv16_h;
        lle_X__Z8shuffle2Dv16_hS_S_;
        lle_X__Z8shuffle2Dv2_sS_Dv16_t;
        lle_X__Z8shuffle2Dv4_sS_Dv16_t;
        lle_X__Z8shuffle2Dv8_sS_Dv16_t;
        lle_X__Z8shuffle2Dv16_sS_Dv16_t;
        lle_X__Z8shuffle2Dv2_tS_Dv16_t;
        lle_X__Z8shuffle2Dv4_tS_Dv16_t;
        lle_X__Z8shuffle2Dv8_tS_Dv16_t;
        lle_X__Z8shuffle2Dv16_tS_S_;
        lle_X__Z8shuffle2Dv2_iS_Dv16_j;
        lle_X__Z8shuffle2Dv4_iS_Dv16_j;
        lle_X__Z8shuffle2Dv8_iS_Dv16_j;
        lle_X__Z8shuffle2Dv16_iS_Dv16_j;
        lle_X__Z8shuffle2Dv2_jS_Dv16_j;
        lle_X__Z8shuffle2Dv4_jS_Dv16_j;
        lle_X__Z8shuffle2Dv8_jS_Dv16_j;
        lle_X__Z8shuffle2Dv16_jS_S_;
        lle_X__Z8shuffle2Dv2_lS_Dv16_m;
        lle_X__Z8shuffle2Dv4_lS_Dv16_m;
        lle_X__Z8shuffle2Dv8_lS_Dv16_m;
        lle_X__Z8shuffle2Dv16_lS_Dv16_m;
        lle_X__Z8shuffle2Dv2_mS_Dv16_m;
        lle_X__Z8shuffle2Dv4_mS_Dv16_m;
        lle_X__Z8shuffle2Dv8_mS_Dv16_m;
        lle_X__Z8shuffle2Dv16_mS_S_;
        lle_X__Z8shuffle2Dv2_fS_Dv16_j;
        lle_X__Z8shuffle2Dv4_fS_Dv16_j;
        lle_X__Z8shuffle2Dv8_fS_Dv16_j;
        lle_X__Z8shuffle2Dv16_fS_Dv16_j;
        lle_X__Z8shuffle2Dv2_dS_Dv16_m;
        lle_X__Z8shuffle2Dv4_dS_Dv16_m;
        lle_X__Z8shuffle2Dv8_dS_Dv16_m;
        lle_X__Z8shuffle2Dv16_dS_Dv16_m;
        lle_X__Z5isinff;
        lle_X__Z5isinfDv2_f;
        lle_X__Z5isinfDv3_f;
        lle_X__Z5isinfDv4_f;
        lle_X__Z5isinfDv8_f;
        lle_X__Z5isinfDv16_f;
        lle_X__Z5isinfd;
        lle_X__Z5isinfDv2_d;
        lle_X__Z5isinfDv3_d;
        lle_X__Z5isinfDv4_d;
        lle_X__Z5isinfDv8_d;
        lle_X__Z5isinfDv16_d;
        lle_X__Z8isnormalf;
        lle_X__Z8isnormalDv2_f;
        lle_X__Z8isnormalDv3_f;
        lle_X__Z8isnormalDv4_f;
        lle_X__Z8isnormalDv8_f;
        lle_X__Z8isnormalDv16_f;
        lle_X__Z8isnormald;
        lle_X__Z8isnormalDv2_d;
        lle_X__Z8isnormalDv3_d;
        lle_X__Z8isnormalDv4_d;
        lle_X__Z8isnormalDv8_d;
        lle_X__Z8isnormalDv16_d;
        lle_X__Z5isnanf;
        lle_X__Z5isnanDv2_f;
        lle_X__Z5isnanDv3_f;
        lle_X__Z5isnanDv4_f;
        lle_X__Z5isnanDv8_f;
        lle_X__Z5isnanDv16_f;
        lle_X__Z5isnand;
        lle_X__Z5isnanDv2_d;
        lle_X__Z5isnanDv3_d;
        lle_X__Z5isnanDv4_d;
        lle_X__Z5isnanDv8_d;
        lle_X__Z5isnanDv16_d;
        lle_X__Z13islessgreaterff;
        lle_X__Z13islessgreaterDv2_fS_;
        lle_X__Z13islessgreaterDv3_fS_;
        lle_X__Z13islessgreaterDv4_fS_;
        lle_X__Z13islessgreaterDv8_fS_;
        lle_X__Z13islessgreaterDv16_fS_;
        lle_X__Z13islessgreaterdd;
        lle_X__Z13islessgreaterDv2_dS_;
        lle_X__Z13islessgreaterDv3_dS_;
        lle_X__Z13islessgreaterDv4_dS_;
        lle_X__Z13islessgreaterDv8_dS_;
        lle_X__Z13islessgreaterDv16_dS_;
        lle_X__Z9isorderedff;
        lle_X__Z9isorderedDv2_fS_;
        lle_X__Z9isorderedDv3_fS_;
        lle_X__Z9isorderedDv4_fS_;
        lle_X__Z9isorderedDv8_fS_;
        lle_X__Z9isorderedDv16_fS_;
        lle_X__Z9isordereddd;
        lle_X__Z9isorderedDv2_dS_;
        lle_X__Z9isorderedDv3_dS_;
        lle_X__Z9isorderedDv4_dS_;
        lle_X__Z9isorderedDv8_dS_;
        lle_X__Z9isorderedDv16_dS_;
        lle_X__Z11isunorderedff;
        lle_X__Z11isunorderedDv2_fS_;
        lle_X__Z11isunorderedDv3_fS_;
        lle_X__Z11isunorderedDv4_fS_;
        lle_X__Z11isunorderedDv8_fS_;
        lle_X__Z11isunorderedDv16_fS_;
        lle_X__Z11isunordereddd;
        lle_X__Z11isunorderedDv2_dS_;
        lle_X__Z11isunorderedDv3_dS_;
        lle_X__Z11isunorderedDv4_dS_;
        lle_X__Z11isunorderedDv8_dS_;
        lle_X__Z11isunorderedDv16_dS_;
        lle_X__Z8isfinitef;
        lle_X__Z8isfiniteDv2_f;
        lle_X__Z8isfiniteDv3_f;
        lle_X__Z8isfiniteDv4_f;
        lle_X__Z8isfiniteDv8_f;
        lle_X__Z8isfiniteDv16_f;
        lle_X__Z8isfinited;
        lle_X__Z8isfiniteDv2_d;
        lle_X__Z8isfiniteDv3_d;
        lle_X__Z8isfiniteDv4_d;
        lle_X__Z8isfiniteDv8_d;
        lle_X__Z8isfiniteDv16_d;
        lle_X__Z7signbitf;
        lle_X__Z7signbitDv2_f;
        lle_X__Z7signbitDv3_f;
        lle_X__Z7signbitDv4_f;
        lle_X__Z7signbitDv8_f;
        lle_X__Z7signbitDv16_f;
        lle_X__Z7signbitd;
        lle_X__Z7signbitDv2_d;
        lle_X__Z7signbitDv3_d;
        lle_X__Z7signbitDv4_d;
        lle_X__Z7signbitDv8_d;
        lle_X__Z7signbitDv16_d;
        lle_X__Z3anyc;
        lle_X__Z3anyDv2_c;
        lle_X__Z3anyDv3_c;
        lle_X__Z3anyDv4_c;
        lle_X__Z3anyDv8_c;
        lle_X__Z3anyDv16_c;
        lle_X__Z3anys;
        lle_X__Z3anyDv2_s;
        lle_X__Z3anyDv3_s;
        lle_X__Z3anyDv4_s;
        lle_X__Z3anyDv8_s;
        lle_X__Z3anyDv16_s;
        lle_X__Z3anyi;
        lle_X__Z3anyDv2_i;
        lle_X__Z3anyDv3_i;
        lle_X__Z3anyDv4_i;
        lle_X__Z3anyDv8_i;
        lle_X__Z3anyDv16_i;
        lle_X__Z3anyl;
        lle_X__Z3anyDv2_l;
        lle_X__Z3anyDv3_l;
        lle_X__Z3anyDv4_l;
        lle_X__Z3anyDv8_l;
        lle_X__Z3anyDv16_l;
        lle_X__Z3allc;
        lle_X__Z3allDv2_c;
        lle_X__Z3allDv3_c;
        lle_X__Z3allDv4_c;
        lle_X__Z3allDv8_c;
        lle_X__Z3allDv16_c;
        lle_X__Z3alls;
        lle_X__Z3allDv2_s;
        lle_X__Z3allDv3_s;
        lle_X__Z3allDv4_s;
        lle_X__Z3allDv8_s;
        lle_X__Z3allDv16_s;
        lle_X__Z3alli;
        lle_X__Z3allDv2_i;
        lle_X__Z3allDv3_i;
        lle_X__Z3allDv4_i;
        lle_X__Z3allDv8_i;
        lle_X__Z3allDv16_i;
        lle_X__Z3alll;
        lle_X__Z3allDv2_l;
        lle_X__Z3allDv3_l;
        lle_X__Z3allDv4_l;
        lle_X__Z3allDv8_l;
        lle_X__Z3allDv16_l;
        lle_X__Z9bitselectccc;
        lle_X__Z9bitselecthhh;
        lle_X__Z9bitselectDv2_cS_S_;
        lle_X__Z9bitselectDv2_hS_S_;
        lle_X__Z9bitselectDv3_cS_S_;
        lle_X__Z9bitselectDv3_hS_S_;
        lle_X__Z9bitselectDv4_cS_S_;
        lle_X__Z9bitselectDv4_hS_S_;
        lle_X__Z9bitselectDv8_cS_S_;
        lle_X__Z9bitselectDv8_hS_S_;
        lle_X__Z9bitselectDv16_cS_S_;
        lle_X__Z9bitselectDv16_hS_S_;
        lle_X__Z9bitselectsss;
        lle_X__Z9bitselectttt;
        lle_X__Z9bitselectDv2_sS_S_;
        lle_X__Z9bitselectDv2_tS_S_;
        lle_X__Z9bitselectDv3_sS_S_;
        lle_X__Z9bitselectDv3_tS_S_;
        lle_X__Z9bitselectDv4_sS_S_;
        lle_X__Z9bitselectDv4_tS_S_;
        lle_X__Z9bitselectDv8_sS_S_;
        lle_X__Z9bitselectDv8_tS_S_;
        lle_X__Z9bitselectDv16_sS_S_;
        lle_X__Z9bitselectDv16_tS_S_;
        lle_X__Z9bitselectiii;
        lle_X__Z9bitselectjjj;
        lle_X__Z9bitselectDv2_iS_S_;
        lle_X__Z9bitselectDv2_jS_S_;
        lle_X__Z9bitselectDv3_iS_S_;
        lle_X__Z9bitselectDv3_jS_S_;
        lle_X__Z9bitselectDv4_iS_S_;
        lle_X__Z9bitselectDv4_jS_S_;
        lle_X__Z9bitselectDv8_iS_S_;
        lle_X__Z9bitselectDv8_jS_S_;
        lle_X__Z9bitselectDv16_iS_S_;
        lle_X__Z9bitselectDv16_jS_S_;
        lle_X__Z9bitselectlll;
        lle_X__Z9bitselectmmm;
        lle_X__Z9bitselectDv2_lS_S_;
        lle_X__Z9bitselectDv2_mS_S_;
        lle_X__Z9bitselectDv3_lS_S_;
        lle_X__Z9bitselectDv3_mS_S_;
        lle_X__Z9bitselectDv4_lS_S_;
        lle_X__Z9bitselectDv4_mS_S_;
        lle_X__Z9bitselectDv8_lS_S_;
        lle_X__Z9bitselectDv8_mS_S_;
        lle_X__Z9bitselectDv16_lS_S_;
        lle_X__Z9bitselectDv16_mS_S_;
        lle_X__Z9bitselectfff;
        lle_X__Z9bitselectDv2_fS_S_;
        lle_X__Z9bitselectDv3_fS_S_;
        lle_X__Z9bitselectDv4_fS_S_;
        lle_X__Z9bitselectDv8_fS_S_;
        lle_X__Z9bitselectDv16_fS_S_;
        lle_X__Z9bitselectddd;
        lle_X__Z9bitselectDv2_dS_S_;
        lle_X__Z9bitselectDv3_dS_S_;
        lle_X__Z9bitselectDv4_dS_S_;
        lle_X__Z9bitselectDv8_dS_S_;
        lle_X__Z9bitselectDv16_dS_S_;
        lle_X__Z6selectccc;
        lle_X__Z6selecthhc;
        lle_X__Z6selectDv2_cS_S_;
        lle_X__Z6selectDv2_hS_Dv2_c;
        lle_X__Z6selectDv3_cS_S_;
        lle_X__Z6selectDv3_hS_Dv3_c;
        lle_X__Z6selectDv4_cS_S_;
        lle_X__Z6selectDv4_hS_Dv4_c;
        lle_X__Z6selectDv8_cS_S_;
        lle_X__Z6selectDv8_hS_Dv8_c;
        lle_X__Z6selectDv16_cS_S_;
        lle_X__Z6selectDv16_hS_Dv16_c;
        lle_X__Z6selectssc;
        lle_X__Z6selectttc;
        lle_X__Z6selectDv2_sS_Dv2_c;
        lle_X__Z6selectDv2_tS_Dv2_c;
        lle_X__Z6selectDv3_sS_Dv3_c;
        lle_X__Z6selectDv3_tS_Dv3_c;
        lle_X__Z6selectDv4_sS_Dv4_c;
        lle_X__Z6selectDv4_tS_Dv4_c;
        lle_X__Z6selectDv8_sS_Dv8_c;
        lle_X__Z6selectDv8_tS_Dv8_c;
        lle_X__Z6selectDv16_sS_Dv16_c;
        lle_X__Z6selectDv16_tS_Dv16_c;
        lle_X__Z6selectiic;
        lle_X__Z6selectjjc;
        lle_X__Z6selectDv2_iS_Dv2_c;
        lle_X__Z6selectDv2_jS_Dv2_c;
        lle_X__Z6selectDv3_iS_Dv3_c;
        lle_X__Z6selectDv3_jS_Dv3_c;
        lle_X__Z6selectDv4_iS_Dv4_c;
        lle_X__Z6selectDv4_jS_Dv4_c;
        lle_X__Z6selectDv8_iS_Dv8_c;
        lle_X__Z6selectDv8_jS_Dv8_c;
        lle_X__Z6selectDv16_iS_Dv16_c;
        lle_X__Z6selectDv16_jS_Dv16_c;
        lle_X__Z6selectllc;
        lle_X__Z6selectmmc;
        lle_X__Z6selectDv2_lS_Dv2_c;
        lle_X__Z6selectDv2_mS_Dv2_c;
        lle_X__Z6selectDv3_lS_Dv3_c;
        lle_X__Z6selectDv3_mS_Dv3_c;
        lle_X__Z6selectDv4_lS_Dv4_c;
        lle_X__Z6selectDv4_mS_Dv4_c;
        lle_X__Z6selectDv8_lS_Dv8_c;
        lle_X__Z6selectDv8_mS_Dv8_c;
        lle_X__Z6selectDv16_lS_Dv16_c;
        lle_X__Z6selectDv16_mS_Dv16_c;
        lle_X__Z6selectffc;
        lle_X__Z6selectDv2_fS_Dv2_c;
        lle_X__Z6selectDv3_fS_Dv3_c;
        lle_X__Z6selectDv4_fS_Dv4_c;
        lle_X__Z6selectDv8_fS_Dv8_c;
        lle_X__Z6selectDv16_fS_Dv16_c;
        lle_X__Z6selectccs;
        lle_X__Z6selecthhs;
        lle_X__Z6selectDv2_cS_Dv2_s;
        lle_X__Z6selectDv2_hS_Dv2_s;
        lle_X__Z6selectDv3_cS_Dv3_s;
        lle_X__Z6selectDv3_hS_Dv3_s;
        lle_X__Z6selectDv4_cS_Dv4_s;
        lle_X__Z6selectDv4_hS_Dv4_s;
        lle_X__Z6selectDv8_cS_Dv8_s;
        lle_X__Z6selectDv8_hS_Dv8_s;
        lle_X__Z6selectDv16_cS_Dv16_s;
        lle_X__Z6selectDv16_hS_Dv16_s;
        lle_X__Z6selectsss;
        lle_X__Z6selecttts;
        lle_X__Z6selectDv2_sS_S_;
        lle_X__Z6selectDv2_tS_Dv2_s;
        lle_X__Z6selectDv3_sS_S_;
        lle_X__Z6selectDv3_tS_Dv3_s;
        lle_X__Z6selectDv4_sS_S_;
        lle_X__Z6selectDv4_tS_Dv4_s;
        lle_X__Z6selectDv8_sS_S_;
        lle_X__Z6selectDv8_tS_Dv8_s;
        lle_X__Z6selectDv16_sS_S_;
        lle_X__Z6selectDv16_tS_Dv16_s;
        lle_X__Z6selectiis;
        lle_X__Z6selectjjs;
        lle_X__Z6selectDv2_iS_Dv2_s;
        lle_X__Z6selectDv2_jS_Dv2_s;
        lle_X__Z6selectDv3_iS_Dv3_s;
        lle_X__Z6selectDv3_jS_Dv3_s;
        lle_X__Z6selectDv4_iS_Dv4_s;
        lle_X__Z6selectDv4_jS_Dv4_s;
        lle_X__Z6selectDv8_iS_Dv8_s;
        lle_X__Z6selectDv8_jS_Dv8_s;
        lle_X__Z6selectDv16_iS_Dv16_s;
        lle_X__Z6selectDv16_jS_Dv16_s;
        lle_X__Z6selectlls;
        lle_X__Z6selectmms;
        lle_X__Z6selectDv2_lS_Dv2_s;
        lle_X__Z6selectDv2_mS_Dv2_s;
        lle_X__Z6selectDv3_lS_Dv3_s;
        lle_X__Z6selectDv3_mS_Dv3_s;
        lle_X__Z6selectDv4_lS_Dv4_s;
        lle_X__Z6selectDv4_mS_Dv4_s;
        lle_X__Z6selectDv8_lS_Dv8_s;
        lle_X__Z6selectDv8_mS_Dv8_s;
        lle_X__Z6selectDv16_lS_Dv16_s;
        lle_X__Z6selectDv16_mS_Dv16_s;
        lle_X__Z6selectffs;
        lle_X__Z6selectDv2_fS_Dv2_c;
        lle_X__Z6selectDv2_fS_Dv2_s;
        lle_X__Z6selectDv3_fS_Dv3_s;
        lle_X__Z6selectDv4_fS_Dv4_s;
        lle_X__Z6selectDv8_fS_Dv8_s;
        lle_X__Z6selectDv16_fS_Dv16_s;
        lle_X__Z6selectcci;
        lle_X__Z6selecthhi;
        lle_X__Z6selectDv2_cS_Dv2_i;
        lle_X__Z6selectDv2_hS_Dv2_i;
        lle_X__Z6selectDv3_cS_Dv3_i;
        lle_X__Z6selectDv3_hS_Dv3_i;
        lle_X__Z6selectDv4_cS_Dv4_i;
        lle_X__Z6selectDv4_hS_Dv4_i;
        lle_X__Z6selectDv8_cS_Dv8_i;
        lle_X__Z6selectDv8_hS_Dv8_i;
        lle_X__Z6selectDv16_cS_Dv16_i;
        lle_X__Z6selectDv16_hS_Dv16_i;
        lle_X__Z6selectssi;
        lle_X__Z6selecttti;
        lle_X__Z6selectDv2_sS_Dv2_i;
        lle_X__Z6selectDv2_tS_Dv2_i;
        lle_X__Z6selectDv3_sS_Dv3_i;
        lle_X__Z6selectDv3_tS_Dv3_i;
        lle_X__Z6selectDv4_sS_Dv4_i;
        lle_X__Z6selectDv4_tS_Dv4_i;
        lle_X__Z6selectDv8_sS_Dv8_i;
        lle_X__Z6selectDv8_tS_Dv8_i;
        lle_X__Z6selectDv16_sS_Dv16_i;
        lle_X__Z6selectDv16_tS_Dv16_i;
        lle_X__Z6selectiii;
        lle_X__Z6selectjji;
        lle_X__Z6selectDv2_iS_S_;
        lle_X__Z6selectDv2_jS_Dv2_i;
        lle_X__Z6selectDv3_iS_S_;
        lle_X__Z6selectDv3_jS_Dv3_i;
        lle_X__Z6selectDv4_iS_S_;
        lle_X__Z6selectDv4_jS_Dv4_i;
        lle_X__Z6selectDv8_iS_S_;
        lle_X__Z6selectDv8_jS_Dv8_i;
        lle_X__Z6selectDv16_iS_S_;
        lle_X__Z6selectDv16_jS_Dv16_i;
        lle_X__Z6selectlli;
        lle_X__Z6selectmmi;
        lle_X__Z6selectDv2_lS_Dv2_i;
        lle_X__Z6selectDv2_mS_Dv2_i;
        lle_X__Z6selectDv3_lS_Dv3_i;
        lle_X__Z6selectDv3_mS_Dv3_i;
        lle_X__Z6selectDv4_lS_Dv4_i;
        lle_X__Z6selectDv4_mS_Dv4_i;
        lle_X__Z6selectDv8_lS_Dv8_i;
        lle_X__Z6selectDv8_mS_Dv8_i;
        lle_X__Z6selectDv16_lS_Dv16_i;
        lle_X__Z6selectDv16_mS_Dv16_i;
        lle_X__Z6selectffi;
        lle_X__Z6selectDv2_fS_Dv2_i;
        lle_X__Z6selectDv3_fS_Dv3_i;
        lle_X__Z6selectDv4_fS_Dv4_i;
        lle_X__Z6selectDv8_fS_Dv8_i;
        lle_X__Z6selectDv16_fS_Dv16_i;
        lle_X__Z6selectccl;
        lle_X__Z6selecthhl;
        lle_X__Z6selectDv2_cS_Dv2_l;
        lle_X__Z6selectDv2_hS_Dv2_l;
        lle_X__Z6selectDv3_cS_Dv3_l;
        lle_X__Z6selectDv3_hS_Dv3_l;
        lle_X__Z6selectDv4_cS_Dv4_l;
        lle_X__Z6selectDv4_hS_Dv4_l;
        lle_X__Z6selectDv8_cS_Dv8_l;
        lle_X__Z6selectDv8_hS_Dv8_l;
        lle_X__Z6selectDv16_cS_Dv16_l;
        lle_X__Z6selectDv16_hS_Dv16_l;
        lle_X__Z6selectssl;
        lle_X__Z6selectttl;
        lle_X__Z6selectDv2_sS_Dv2_l;
        lle_X__Z6selectDv2_tS_Dv2_l;
        lle_X__Z6selectDv3_sS_Dv3_l;
        lle_X__Z6selectDv3_tS_Dv3_l;
        lle_X__Z6selectDv4_sS_Dv4_l;
        lle_X__Z6selectDv4_tS_Dv4_l;
        lle_X__Z6selectDv8_sS_Dv8_l;
        lle_X__Z6selectDv8_tS_Dv8_l;
        lle_X__Z6selectDv16_sS_Dv16_l;
        lle_X__Z6selectDv16_tS_Dv16_l;
        lle_X__Z6selectiil;
        lle_X__Z6selectjjl;
        lle_X__Z6selectDv2_iS_Dv2_l;
        lle_X__Z6selectDv2_jS_Dv2_l;
        lle_X__Z6selectDv3_iS_Dv3_l;
        lle_X__Z6selectDv3_jS_Dv3_l;
        lle_X__Z6selectDv4_iS_Dv4_l;
        lle_X__Z6selectDv4_jS_Dv4_l;
        lle_X__Z6selectDv8_iS_Dv8_l;
        lle_X__Z6selectDv8_jS_Dv8_l;
        lle_X__Z6selectDv16_iS_Dv16_l;
        lle_X__Z6selectDv16_jS_Dv16_l;
        lle_X__Z6selectlll;
        lle_X__Z6selectmml;
        lle_X__Z6selectDv2_lS_S_;
        lle_X__Z6selectDv2_mS_Dv2_l;
        lle_X__Z6selectDv3_lS_S_;
        lle_X__Z6selectDv3_mS_Dv3_l;
        lle_X__Z6selectDv4_lS_S_;
        lle_X__Z6selectDv4_mS_Dv4_l;
        lle_X__Z6selectDv8_lS_S_;
        lle_X__Z6selectDv8_mS_Dv8_l;
        lle_X__Z6selectDv16_lS_S_;
        lle_X__Z6selectDv16_mS_Dv16_l;
        lle_X__Z6selectffl;
        lle_X__Z6selectDv2_fS_Dv2_l;
        lle_X__Z6selectDv3_fS_Dv3_l;
        lle_X__Z6selectDv4_fS_Dv4_l;
        lle_X__Z6selectDv8_fS_Dv8_l;
        lle_X__Z6selectDv16_fS_Dv16_l;
        lle_X__Z6selectcch;
        lle_X__Z6selecthhh;
        lle_X__Z6selectDv2_cS_Dv2_h;
        lle_X__Z6selectDv2_hS_S_;
        lle_X__Z6selectDv3_cS_Dv3_h;
        lle_X__Z6selectDv3_hS_S_;
        lle_X__Z6selectDv4_cS_Dv4_h;
        lle_X__Z6selectDv4_hS_S_;
        lle_X__Z6selectDv8_cS_Dv8_h;
        lle_X__Z6selectDv8_hS_S_;
        lle_X__Z6selectDv16_cS_Dv16_h;
        lle_X__Z6selectDv16_hS_S_;
        lle_X__Z6selectssh;
        lle_X__Z6selecttth;
        lle_X__Z6selectDv2_sS_Dv2_h;
        lle_X__Z6selectDv2_tS_Dv2_h;
        lle_X__Z6selectDv3_sS_Dv3_h;
        lle_X__Z6selectDv3_tS_Dv3_h;
        lle_X__Z6selectDv4_sS_Dv4_h;
        lle_X__Z6selectDv4_tS_Dv4_h;
        lle_X__Z6selectDv8_sS_Dv8_h;
        lle_X__Z6selectDv8_tS_Dv8_h;
        lle_X__Z6selectDv16_sS_Dv16_h;
        lle_X__Z6selectDv16_tS_Dv16_h;
        lle_X__Z6selectiih;
        lle_X__Z6selectjjh;
        lle_X__Z6selectDv2_iS_Dv2_h;
        lle_X__Z6selectDv2_jS_Dv2_h;
        lle_X__Z6selectDv3_iS_Dv3_h;
        lle_X__Z6selectDv3_jS_Dv3_h;
        lle_X__Z6selectDv4_iS_Dv4_h;
        lle_X__Z6selectDv4_jS_Dv4_h;
        lle_X__Z6selectDv8_iS_Dv8_h;
        lle_X__Z6selectDv8_jS_Dv8_h;
        lle_X__Z6selectDv16_iS_Dv16_h;
        lle_X__Z6selectDv16_jS_Dv16_h;
        lle_X__Z6selectllh;
        lle_X__Z6selectmmh;
        lle_X__Z6selectDv2_lS_Dv2_h;
        lle_X__Z6selectDv2_mS_Dv2_h;
        lle_X__Z6selectDv3_lS_Dv3_h;
        lle_X__Z6selectDv3_mS_Dv3_h;
        lle_X__Z6selectDv4_lS_Dv4_h;
        lle_X__Z6selectDv4_mS_Dv4_h;
        lle_X__Z6selectDv8_lS_Dv8_h;
        lle_X__Z6selectDv8_mS_Dv8_h;
        lle_X__Z6selectDv16_lS_Dv16_h;
        lle_X__Z6selectDv16_mS_Dv16_h;
        lle_X__Z6selectffh;
        lle_X__Z6selectDv2_fS_Dv2_h;
        lle_X__Z6selectDv3_fS_Dv3_h;
        lle_X__Z6selectDv4_fS_Dv4_h;
        lle_X__Z6selectDv8_fS_Dv8_h;
        lle_X__Z6selectDv16_fS_Dv16_h;
        lle_X__Z6selectcct;
        lle_X__Z6selecthht;
        lle_X__Z6selectDv2_cS_Dv2_t;
        lle_X__Z6selectDv2_hS_Dv2_t;
        lle_X__Z6selectDv3_cS_Dv3_t;
        lle_X__Z6selectDv3_hS_Dv3_t;
        lle_X__Z6selectDv4_cS_Dv4_t;
        lle_X__Z6selectDv4_hS_Dv4_t;
        lle_X__Z6selectDv8_cS_Dv8_t;
        lle_X__Z6selectDv8_hS_Dv8_t;
        lle_X__Z6selectDv16_cS_Dv16_t;
        lle_X__Z6selectDv16_hS_Dv16_t;
        lle_X__Z6selectsst;
        lle_X__Z6selectttt;
        lle_X__Z6selectDv2_sS_Dv2_t;
        lle_X__Z6selectDv2_tS_S_;
        lle_X__Z6selectDv3_sS_Dv3_t;
        lle_X__Z6selectDv3_tS_S_;
        lle_X__Z6selectDv4_sS_Dv4_t;
        lle_X__Z6selectDv4_tS_S_;
        lle_X__Z6selectDv8_sS_Dv8_t;
        lle_X__Z6selectDv8_tS_S_;
        lle_X__Z6selectDv16_sS_Dv16_t;
        lle_X__Z6selectDv16_tS_S_;
        lle_X__Z6selectiit;
        lle_X__Z6selectjjt;
        lle_X__Z6selectDv2_iS_Dv2_t;
        lle_X__Z6selectDv2_jS_Dv2_t;
        lle_X__Z6selectDv3_iS_Dv3_t;
        lle_X__Z6selectDv3_jS_Dv3_t;
        lle_X__Z6selectDv4_iS_Dv4_t;
        lle_X__Z6selectDv4_jS_Dv4_t;
        lle_X__Z6selectDv8_iS_Dv8_t;
        lle_X__Z6selectDv8_jS_Dv8_t;
        lle_X__Z6selectDv16_iS_Dv16_t;
        lle_X__Z6selectDv16_jS_Dv16_t;
        lle_X__Z6selectllt;
        lle_X__Z6selectmmt;
        lle_X__Z6selectDv2_lS_Dv2_t;
        lle_X__Z6selectDv2_mS_Dv2_t;
        lle_X__Z6selectDv3_lS_Dv3_t;
        lle_X__Z6selectDv3_mS_Dv3_t;
        lle_X__Z6selectDv4_lS_Dv4_t;
        lle_X__Z6selectDv4_mS_Dv4_t;
        lle_X__Z6selectDv8_lS_Dv8_t;
        lle_X__Z6selectDv8_mS_Dv8_t;
        lle_X__Z6selectDv16_lS_Dv16_t;
        lle_X__Z6selectDv16_mS_Dv16_t;
        lle_X__Z6selectfft;
        lle_X__Z6selectDv2_fS_Dv2_t;
        lle_X__Z6selectDv3_fS_Dv3_t;
        lle_X__Z6selectDv4_fS_Dv4_t;
        lle_X__Z6selectDv8_fS_Dv8_t;
        lle_X__Z6selectDv16_fS_Dv16_t;
        lle_X__Z6selectccj;
        lle_X__Z6selecthhj;
        lle_X__Z6selectDv2_cS_Dv2_j;
        lle_X__Z6selectDv2_hS_Dv2_j;
        lle_X__Z6selectDv3_cS_Dv3_j;
        lle_X__Z6selectDv3_hS_Dv3_j;
        lle_X__Z6selectDv4_cS_Dv4_j;
        lle_X__Z6selectDv4_hS_Dv4_j;
        lle_X__Z6selectDv8_cS_Dv8_j;
        lle_X__Z6selectDv8_hS_Dv8_j;
        lle_X__Z6selectDv16_cS_Dv16_j;
        lle_X__Z6selectDv16_hS_Dv16_j;
        lle_X__Z6selectssj;
        lle_X__Z6selectttj;
        lle_X__Z6selectDv2_sS_Dv2_j;
        lle_X__Z6selectDv2_tS_Dv2_j;
        lle_X__Z6selectDv3_sS_Dv3_j;
        lle_X__Z6selectDv3_tS_Dv3_j;
        lle_X__Z6selectDv4_sS_Dv4_j;
        lle_X__Z6selectDv4_tS_Dv4_j;
        lle_X__Z6selectDv8_sS_Dv8_j;
        lle_X__Z6selectDv8_tS_Dv8_j;
        lle_X__Z6selectDv16_sS_Dv16_j;
        lle_X__Z6selectDv16_tS_Dv16_j;
        lle_X__Z6selectiij;
        lle_X__Z6selectjjj;
        lle_X__Z6selectDv2_iS_Dv2_j;
        lle_X__Z6selectDv2_jS_S_;
        lle_X__Z6selectDv3_iS_Dv3_j;
        lle_X__Z6selectDv3_jS_S_;
        lle_X__Z6selectDv4_iS_Dv4_j;
        lle_X__Z6selectDv4_jS_S_;
        lle_X__Z6selectDv8_iS_Dv8_j;
        lle_X__Z6selectDv8_jS_S_;
        lle_X__Z6selectDv16_iS_Dv16_j;
        lle_X__Z6selectDv16_jS_S_;
        lle_X__Z6selectllj;
        lle_X__Z6selectmmj;
        lle_X__Z6selectDv2_lS_Dv2_j;
        lle_X__Z6selectDv2_mS_Dv2_j;
        lle_X__Z6selectDv3_lS_Dv3_j;
        lle_X__Z6selectDv3_mS_Dv3_j;
        lle_X__Z6selectDv4_lS_Dv4_j;
        lle_X__Z6selectDv4_mS_Dv4_j;
        lle_X__Z6selectDv8_lS_Dv8_j;
        lle_X__Z6selectDv8_mS_Dv8_j;
        lle_X__Z6selectDv16_lS_Dv16_j;
        lle_X__Z6selectDv16_mS_Dv16_j;
        lle_X__Z6selectffj;
        lle_X__Z6selectDv2_fS_Dv2_j;
        lle_X__Z6selectDv3_fS_Dv3_j;
        lle_X__Z6selectDv4_fS_Dv4_j;
        lle_X__Z6selectDv8_fS_Dv8_j;
        lle_X__Z6selectDv16_fS_Dv16_j;
        lle_X__Z6selectccm;
        lle_X__Z6selecthhm;
        lle_X__Z6selectDv2_cS_Dv2_m;
        lle_X__Z6selectDv2_hS_Dv2_m;
        lle_X__Z6selectDv3_cS_Dv3_m;
        lle_X__Z6selectDv3_hS_Dv3_m;
        lle_X__Z6selectDv4_cS_Dv4_m;
        lle_X__Z6selectDv4_hS_Dv4_m;
        lle_X__Z6selectDv8_cS_Dv8_m;
        lle_X__Z6selectDv8_hS_Dv8_m;
        lle_X__Z6selectDv16_cS_Dv16_m;
        lle_X__Z6selectDv16_hS_Dv16_m;
        lle_X__Z6selectssm;
        lle_X__Z6selectttm;
        lle_X__Z6selectDv2_sS_Dv2_m;
        lle_X__Z6selectDv2_tS_Dv2_m;
        lle_X__Z6selectDv3_sS_Dv3_m;
        lle_X__Z6selectDv3_tS_Dv3_m;
        lle_X__Z6selectDv4_sS_Dv4_m;
        lle_X__Z6selectDv4_tS_Dv4_m;
        lle_X__Z6selectDv8_sS_Dv8_m;
        lle_X__Z6selectDv8_tS_Dv8_m;
        lle_X__Z6selectDv16_sS_Dv16_m;
        lle_X__Z6selectDv16_tS_Dv16_m;
        lle_X__Z6selectiim;
        lle_X__Z6selectjjm;
        lle_X__Z6selectDv2_iS_Dv2_m;
        lle_X__Z6selectDv2_jS_Dv2_m;
        lle_X__Z6selectDv3_iS_Dv3_m;
        lle_X__Z6selectDv3_jS_Dv3_m;
        lle_X__Z6selectDv4_iS_Dv4_m;
        lle_X__Z6selectDv4_jS_Dv4_m;
        lle_X__Z6selectDv8_iS_Dv8_m;
        lle_X__Z6selectDv8_jS_Dv8_m;
        lle_X__Z6selectDv16_iS_Dv16_m;
        lle_X__Z6selectDv16_jS_Dv16_m;
        lle_X__Z6selectllm;
        lle_X__Z6selectmmm;
        lle_X__Z6selectDv2_lS_Dv2_m;
        lle_X__Z6selectDv2_mS_S_;
        lle_X__Z6selectDv3_lS_Dv3_m;
        lle_X__Z6selectDv3_mS_S_;
        lle_X__Z6selectDv4_lS_Dv4_m;
        lle_X__Z6selectDv4_mS_S_;
        lle_X__Z6selectDv8_lS_Dv8_m;
        lle_X__Z6selectDv8_mS_S_;
        lle_X__Z6selectDv16_lS_Dv16_m;
        lle_X__Z6selectDv16_mS_S_;
        lle_X__Z6selectffm;
        lle_X__Z6selectDv2_fS_Dv2_m;
        lle_X__Z6selectDv3_fS_Dv3_m;
        lle_X__Z6selectDv4_fS_Dv4_m;
        lle_X__Z6selectDv8_fS_Dv8_m;
        lle_X__Z6selectDv16_fS_Dv16_m;
        lle_X__Z6selectddl;
        lle_X__Z6selectDv2_dS_Dv2_l;
        lle_X__Z6selectDv3_dS_Dv3_l;
        lle_X__Z6selectDv4_dS_Dv4_l;
        lle_X__Z6selectDv8_dS_Dv8_l;
        lle_X__Z6selectDv16_dS_Dv16_l;
        lle_X__Z6selectddm;
        lle_X__Z6selectDv2_dS_Dv2_m;
        lle_X__Z6selectDv3_dS_Dv3_m;
        lle_X__Z6selectDv4_dS_Dv4_m;
        lle_X__Z6selectDv8_dS_Dv8_m;
        lle_X__Z6selectDv16_dS_Dv16_m;
        lle_X_get_work_dim;
        lle_X_get_global_size;
        lle_X_get_global_id;
        lle_X_get_local_size;
        lle_X_get_local_id;
        lle_X_get_num_groups;
        lle_X_get_group_id;
        lle_X_get_global_offset;
        lle_X_memcpy;
        barrier;
        mem_fence;
        read_mem_fence;
        write_mem_fence;
        //    funcNames[interpreterPrefix+mangledName]        = lle_X_vload<elemType, vectorSize>;
        lle_X__Z7vstore2Dv2_cjPU3AS1c;
        lle_X__Z7vstore2Dv2_hjPU3AS1h;
        lle_X__Z7vstore2Dv2_sjPU3AS1s;
        lle_X__Z7vstore2Dv2_tjPU3AS1t;
        lle_X__Z7vstore2Dv2_ijPU3AS1i;
        lle_X__Z7vstore2Dv2_jjPU3AS1j;
        lle_X__Z7vstore2Dv2_ljPU3AS1l;
        lle_X__Z7vstore2Dv2_mjPU3AS1m;
        lle_X__Z7vstore2Dv2_fjPU3AS1f;
        lle_X__Z7vstore3Dv3_cjPU3AS1c;
        lle_X__Z7vstore3Dv3_hjPU3AS1h;
        lle_X__Z7vstore3Dv3_sjPU3AS1s;
        lle_X__Z7vstore3Dv3_tjPU3AS1t;
        lle_X__Z7vstore3Dv3_ijPU3AS1i;
        lle_X__Z7vstore3Dv3_jjPU3AS1j;
        lle_X__Z7vstore3Dv3_ljPU3AS1l;
        lle_X__Z7vstore3Dv3_mjPU3AS1m;
        lle_X__Z7vstore3Dv3_fjPU3AS1f;
        lle_X__Z7vstore4Dv4_cjPU3AS1c;
        lle_X__Z7vstore4Dv4_hjPU3AS1h;
        lle_X__Z7vstore4Dv4_sjPU3AS1s;
        lle_X__Z7vstore4Dv4_tjPU3AS1t;
        lle_X__Z7vstore4Dv4_ijPU3AS1i;
        lle_X__Z7vstore4Dv4_jjPU3AS1j;
        lle_X__Z7vstore4Dv4_ljPU3AS1l;
        lle_X__Z7vstore4Dv4_mjPU3AS1m;
        lle_X__Z7vstore4Dv4_fjPU3AS1f;
        lle_X__Z7vstore8Dv8_cjPU3AS1c;
        lle_X__Z7vstore8Dv8_hjPU3AS1h;
        lle_X__Z7vstore8Dv8_sjPU3AS1s;
        lle_X__Z7vstore8Dv8_tjPU3AS1t;
        lle_X__Z7vstore8Dv8_ijPU3AS1i;
        lle_X__Z7vstore8Dv8_jjPU3AS1j;
        lle_X__Z7vstore8Dv8_ljPU3AS1l;
        lle_X__Z7vstore8Dv8_mjPU3AS1m;
        lle_X__Z7vstore8Dv8_fjPU3AS1f;
        lle_X__Z8vstore16Dv16_cjPU3AS1c;
        lle_X__Z8vstore16Dv16_hjPU3AS1h;
        lle_X__Z8vstore16Dv16_sjPU3AS1s;
        lle_X__Z8vstore16Dv16_tjPU3AS1t;
        lle_X__Z8vstore16Dv16_ijPU3AS1i;
        lle_X__Z8vstore16Dv16_jjPU3AS1j;
        lle_X__Z8vstore16Dv16_ljPU3AS1l;
        lle_X__Z8vstore16Dv16_mjPU3AS1m;
        lle_X__Z8vstore16Dv16_fjPU3AS1f;
        lle_X__Z7vstore2Dv2_cjPU3AS3c;
        lle_X__Z7vstore2Dv2_hjPU3AS3h;
        lle_X__Z7vstore2Dv2_sjPU3AS3s;
        lle_X__Z7vstore2Dv2_tjPU3AS3t;
        lle_X__Z7vstore2Dv2_ijPU3AS3i;
        lle_X__Z7vstore2Dv2_jjPU3AS3j;
        lle_X__Z7vstore2Dv2_ljPU3AS3l;
        lle_X__Z7vstore2Dv2_mjPU3AS3m;
        lle_X__Z7vstore2Dv2_fjPU3AS3f;
        lle_X__Z7vstore3Dv3_cjPU3AS3c;
        lle_X__Z7vstore3Dv3_hjPU3AS3h;
        lle_X__Z7vstore3Dv3_sjPU3AS3s;
        lle_X__Z7vstore3Dv3_tjPU3AS3t;
        lle_X__Z7vstore3Dv3_ijPU3AS3i;
        lle_X__Z7vstore3Dv3_jjPU3AS3j;
        lle_X__Z7vstore3Dv3_ljPU3AS3l;
        lle_X__Z7vstore3Dv3_mjPU3AS3m;
        lle_X__Z7vstore3Dv3_fjPU3AS3f;
        lle_X__Z7vstore4Dv4_cjPU3AS3c;
        lle_X__Z7vstore4Dv4_hjPU3AS3h;
        lle_X__Z7vstore4Dv4_sjPU3AS3s;
        lle_X__Z7vstore4Dv4_tjPU3AS3t;
        lle_X__Z7vstore4Dv4_ijPU3AS3i;
        lle_X__Z7vstore4Dv4_jjPU3AS3j;
        lle_X__Z7vstore4Dv4_ljPU3AS3l;
        lle_X__Z7vstore4Dv4_mjPU3AS3m;
        lle_X__Z7vstore4Dv4_fjPU3AS3f;
        lle_X__Z7vstore8Dv8_cjPU3AS3c;
        lle_X__Z7vstore8Dv8_hjPU3AS3h;
        lle_X__Z7vstore8Dv8_sjPU3AS3s;
        lle_X__Z7vstore8Dv8_tjPU3AS3t;
        lle_X__Z7vstore8Dv8_ijPU3AS3i;
        lle_X__Z7vstore8Dv8_jjPU3AS3j;
        lle_X__Z7vstore8Dv8_ljPU3AS3l;
        lle_X__Z7vstore8Dv8_mjPU3AS3m;
        lle_X__Z7vstore8Dv8_fjPU3AS3f;
        lle_X__Z8vstore16Dv16_cjPU3AS3c;
        lle_X__Z8vstore16Dv16_hjPU3AS3h;
        lle_X__Z8vstore16Dv16_sjPU3AS3s;
        lle_X__Z8vstore16Dv16_tjPU3AS3t;
        lle_X__Z8vstore16Dv16_ijPU3AS3i;
        lle_X__Z8vstore16Dv16_jjPU3AS3j;
        lle_X__Z8vstore16Dv16_ljPU3AS3l;
        lle_X__Z8vstore16Dv16_mjPU3AS3m;
        lle_X__Z8vstore16Dv16_fjPU3AS3f;
        lle_X__Z7vstore2Dv2_cjPc;
        lle_X__Z7vstore2Dv2_hjPh;
        lle_X__Z7vstore2Dv2_sjPs;
        lle_X__Z7vstore2Dv2_tjPt;
        lle_X__Z7vstore2Dv2_ijPi;
        lle_X__Z7vstore2Dv2_jjPj;
        lle_X__Z7vstore2Dv2_ljPl;
        lle_X__Z7vstore2Dv2_mjPm;
        lle_X__Z7vstore2Dv2_fjPf;
        lle_X__Z7vstore3Dv3_cjPc;
        lle_X__Z7vstore3Dv3_hjPh;
        lle_X__Z7vstore3Dv3_sjPs;
        lle_X__Z7vstore3Dv3_tjPt;
        lle_X__Z7vstore3Dv3_ijPi;
        lle_X__Z7vstore3Dv3_jjPj;
        lle_X__Z7vstore3Dv3_ljPl;
        lle_X__Z7vstore3Dv3_mjPm;
        lle_X__Z7vstore3Dv3_fjPf;
        lle_X__Z7vstore4Dv4_cjPc;
        lle_X__Z7vstore4Dv4_hjPh;
        lle_X__Z7vstore4Dv4_sjPs;
        lle_X__Z7vstore4Dv4_tjPt;
        lle_X__Z7vstore4Dv4_ijPi;
        lle_X__Z7vstore4Dv4_jjPj;
        lle_X__Z7vstore4Dv4_ljPl;
        lle_X__Z7vstore4Dv4_mjPm;
        lle_X__Z7vstore4Dv4_fjPf;
        lle_X__Z7vstore8Dv8_cjPc;
        lle_X__Z7vstore8Dv8_hjPh;
        lle_X__Z7vstore8Dv8_sjPs;
        lle_X__Z7vstore8Dv8_tjPt;
        lle_X__Z7vstore8Dv8_ijPi;
        lle_X__Z7vstore8Dv8_jjPj;
        lle_X__Z7vstore8Dv8_ljPl;
        lle_X__Z7vstore8Dv8_mjPm;
        lle_X__Z7vstore8Dv8_fjPf;
        lle_X__Z8vstore16Dv16_cjPc;
        lle_X__Z8vstore16Dv16_hjPh;
        lle_X__Z8vstore16Dv16_sjPs;
        lle_X__Z8vstore16Dv16_tjPt;
        lle_X__Z8vstore16Dv16_ijPi;
        lle_X__Z8vstore16Dv16_jjPj;
        lle_X__Z8vstore16Dv16_ljPl;
        lle_X__Z8vstore16Dv16_mjPm;
        lle_X__Z8vstore16Dv16_fjPf;
        lle_X__Z7vstore2Dv2_djPU3AS1d;
        lle_X__Z7vstore3Dv3_djPU3AS1d;
        lle_X__Z7vstore4Dv4_djPU3AS1d;
        lle_X__Z7vstore8Dv8_djPU3AS1d;
        lle_X__Z8vstore16Dv16_djPU3AS1d;
        lle_X__Z7vstore2Dv2_djPU3AS3d;
        lle_X__Z7vstore3Dv3_djPU3AS3d;
        lle_X__Z7vstore4Dv4_djPU3AS3d;
        lle_X__Z7vstore8Dv8_djPU3AS3d;
        lle_X__Z8vstore16Dv16_djPU3AS3d;
        lle_X__Z7vstore2Dv2_djPd;
        lle_X__Z7vstore3Dv3_djPd;
        lle_X__Z7vstore4Dv4_djPd;
        lle_X__Z7vstore8Dv8_djPd;
        lle_X__Z8vstore16Dv16_djPd;
        lle_X__Z10vload_halfjPU3AS1Ks;
        lle_X__Z10vload_halfjPU3AS3Ks;
        lle_X__Z10vload_halfjPU3AS2Ks;
        lle_X__Z10vload_halfjPKs;
        lle_X__Z11vload_half2jPU3AS1Ks;
        lle_X__Z11vload_half3jPU3AS1Ks;
        lle_X__Z11vload_half4jPU3AS1Ks;
        lle_X__Z11vload_half8jPU3AS1Ks;
        lle_X__Z12vload_half16jPU3AS1Ks;
        lle_X__Z11vload_half2jPU3AS3Ks;
        lle_X__Z11vload_half3jPU3AS3Ks;
        lle_X__Z11vload_half4jPU3AS3Ks;
        lle_X__Z11vload_half8jPU3AS3Ks;
        lle_X__Z12vload_half16jPU3AS3Ks;
        lle_X__Z11vload_half2jPU3AS2Ks;
        lle_X__Z11vload_half3jPU3AS2Ks;
        lle_X__Z11vload_half4jPU3AS2Ks;
        lle_X__Z11vload_half8jPU3AS2Ks;
        lle_X__Z12vload_half16jPU3AS2Ks;
        lle_X__Z11vload_half2jPKs;
        lle_X__Z11vload_half3jPKs;
        lle_X__Z11vload_half4jPKs;
        lle_X__Z11vload_half8jPKs;
        lle_X__Z12vload_half16jPKs;
        lle_X__Z11vloada_halfjPU3AS1Ks;
        lle_X__Z12vloada_half2jPU3AS1Ks;
        lle_X__Z12vloada_half3jPU3AS1Ks;
        lle_X__Z12vloada_half4jPU3AS1Ks;
        lle_X__Z12vloada_half8jPU3AS1Ks;
        lle_X__Z13vloada_half16jPU3AS1Ks;
        lle_X__Z11vloada_halfjPU3AS3Ks;
        lle_X__Z12vloada_half2jPU3AS3Ks;
        lle_X__Z12vloada_half3jPU3AS3Ks;
        lle_X__Z12vloada_half4jPU3AS3Ks;
        lle_X__Z12vloada_half8jPU3AS3Ks;
        lle_X__Z13vloada_half16jPU3AS3Ks;
        lle_X__Z11vloada_halfjPU3AS2Ks;
        lle_X__Z12vloada_half2jPU3AS2Ks;
        lle_X__Z12vloada_half3jPU3AS2Ks;
        lle_X__Z12vloada_half4jPU3AS2Ks;
        lle_X__Z12vloada_half8jPU3AS2Ks;
        lle_X__Z13vloada_half16jPU3AS2Ks;
        lle_X__Z11vloada_halfjPKs;
        lle_X__Z12vloada_half2jPKs;
        lle_X__Z12vloada_half3jPKs;
        lle_X__Z12vloada_half4jPKs;
        lle_X__Z12vloada_half8jPKs;
        lle_X__Z13vloada_half16jPKs;
        lle_X__Z11vstore_halffjPU3AS1s;
        lle_X__Z11vstore_halffjPU3AS3s;
        lle_X__Z11vstore_halffjPs;
        lle_X__Z15vstore_half_rtefjPU3AS1s;
        lle_X__Z15vstore_half_rtefjPU3AS3s;
        lle_X__Z15vstore_half_rtefjPs;
        lle_X__Z15vstore_half_rtzfjPU3AS1s;
        lle_X__Z15vstore_half_rtzfjPU3AS3s;
        lle_X__Z15vstore_half_rtzfjPs;
        lle_X__Z15vstore_half_rtpfjPU3AS1s;
        lle_X__Z15vstore_half_rtpfjPU3AS3s;
        lle_X__Z15vstore_half_rtpfjPs;
        lle_X__Z15vstore_half_rtnfjPU3AS1s;
        lle_X__Z15vstore_half_rtnfjPU3AS3s;
        lle_X__Z15vstore_half_rtnfjPs;
        lle_X__Z11vstore_halfdjPU3AS1s;
        lle_X__Z15vstore_half_rtedjPU3AS1s;
        lle_X__Z15vstore_half_rtzdjPU3AS1s;
        lle_X__Z15vstore_half_rtpdjPU3AS1s;
        lle_X__Z15vstore_half_rtndjPU3AS1s;
        lle_X__Z11vstore_halfdjPU3AS3s;
        lle_X__Z15vstore_half_rtedjPU3AS3s;
        lle_X__Z15vstore_half_rtzdjPU3AS3s;
        lle_X__Z15vstore_half_rtpdjPU3AS3s;
        lle_X__Z15vstore_half_rtndjPU3AS3s;
        lle_X__Z11vstore_halfdjPs;
        lle_X__Z15vstore_half_rtedjPs;
        lle_X__Z15vstore_half_rtzdjPs;
        lle_X__Z15vstore_half_rtpdjPs;
        lle_X__Z15vstore_half_rtndjPs;
        lle_X__Z12vstore_half2Dv2_fjPU3AS1s;
        lle_X__Z12vstore_half3Dv3_fjPU3AS1s;
        lle_X__Z12vstore_half4Dv4_fjPU3AS1s;
        lle_X__Z12vstore_half8Dv8_fjPU3AS1s;
        lle_X__Z13vstore_half16Dv16_fjPU3AS1s;
        lle_X__Z16vstore_half2_rteDv2_fjPU3AS1s;
        lle_X__Z16vstore_half3_rteDv3_fjPU3AS1s;
        lle_X__Z16vstore_half4_rteDv4_fjPU3AS1s;
        lle_X__Z16vstore_half8_rteDv8_fjPU3AS1s;
        lle_X__Z17vstore_half16_rteDv16_fjPU3AS1s;
        lle_X__Z16vstore_half2_rtzDv2_fjPU3AS1s;
        lle_X__Z16vstore_half3_rtzDv3_fjPU3AS1s;
        lle_X__Z16vstore_half4_rtzDv4_fjPU3AS1s;
        lle_X__Z16vstore_half8_rtzDv8_fjPU3AS1s;
        lle_X__Z17vstore_half16_rtzDv16_fjPU3AS1s;
        lle_X__Z16vstore_half2_rtpDv2_fjPU3AS1s;
        lle_X__Z16vstore_half3_rtpDv3_fjPU3AS1s;
        lle_X__Z16vstore_half4_rtpDv4_fjPU3AS1s;
        lle_X__Z16vstore_half8_rtpDv8_fjPU3AS1s;
        lle_X__Z17vstore_half16_rtpDv16_fjPU3AS1s;
        lle_X__Z16vstore_half2_rtnDv2_fjPU3AS1s;
        lle_X__Z16vstore_half3_rtnDv3_fjPU3AS1s;
        lle_X__Z16vstore_half4_rtnDv4_fjPU3AS1s;
        lle_X__Z16vstore_half8_rtnDv8_fjPU3AS1s;
        lle_X__Z17vstore_half16_rtnDv16_fjPU3AS1s;
        lle_X__Z12vstore_half2Dv2_fjPU3AS3s;
        lle_X__Z12vstore_half3Dv3_fjPU3AS3s;
        lle_X__Z12vstore_half4Dv4_fjPU3AS3s;
        lle_X__Z12vstore_half8Dv8_fjPU3AS3s;
        lle_X__Z13vstore_half16Dv16_fjPU3AS3s;
        lle_X__Z16vstore_half2_rteDv2_fjPU3AS3s;
        lle_X__Z16vstore_half3_rteDv3_fjPU3AS3s;
        lle_X__Z16vstore_half4_rteDv4_fjPU3AS3s;
        lle_X__Z16vstore_half8_rteDv8_fjPU3AS3s;
        lle_X__Z17vstore_half16_rteDv16_fjPU3AS3s;
        lle_X__Z16vstore_half2_rtzDv2_fjPU3AS3s;
        lle_X__Z16vstore_half3_rtzDv3_fjPU3AS3s;
        lle_X__Z16vstore_half4_rtzDv4_fjPU3AS3s;
        lle_X__Z16vstore_half8_rtzDv8_fjPU3AS3s;
        lle_X__Z17vstore_half16_rtzDv16_fjPU3AS3s;
        lle_X__Z16vstore_half2_rtpDv2_fjPU3AS3s;
        lle_X__Z16vstore_half3_rtpDv3_fjPU3AS3s;
        lle_X__Z16vstore_half4_rtpDv4_fjPU3AS3s;
        lle_X__Z16vstore_half8_rtpDv8_fjPU3AS3s;
        lle_X__Z17vstore_half16_rtpDv16_fjPU3AS3s;
        lle_X__Z16vstore_half2_rtnDv2_fjPU3AS3s;
        lle_X__Z16vstore_half3_rtnDv3_fjPU3AS3s;
        lle_X__Z16vstore_half4_rtnDv4_fjPU3AS3s;
        lle_X__Z16vstore_half8_rtnDv8_fjPU3AS3s;
        lle_X__Z17vstore_half16_rtnDv16_fjPU3AS3s;
        lle_X__Z12vstore_half2Dv2_fjPs;
        lle_X__Z12vstore_half3Dv3_fjPs;
        lle_X__Z12vstore_half4Dv4_fjPs;
        lle_X__Z12vstore_half8Dv8_fjPs;
        lle_X__Z13vstore_half16Dv16_fjPs;
        lle_X__Z16vstore_half2_rteDv2_fjPs;
        lle_X__Z16vstore_half3_rteDv3_fjPs;
        lle_X__Z16vstore_half4_rteDv4_fjPs;
        lle_X__Z16vstore_half8_rteDv8_fjPs;
        lle_X__Z17vstore_half16_rteDv16_fjPs;
        lle_X__Z16vstore_half2_rtzDv2_fjPs;
        lle_X__Z16vstore_half3_rtzDv3_fjPs;
        lle_X__Z16vstore_half4_rtzDv4_fjPs;
        lle_X__Z16vstore_half8_rtzDv8_fjPs;
        lle_X__Z17vstore_half16_rtzDv16_fjPs;
        lle_X__Z16vstore_half2_rtpDv2_fjPs;
        lle_X__Z16vstore_half3_rtpDv3_fjPs;
        lle_X__Z16vstore_half4_rtpDv4_fjPs;
        lle_X__Z16vstore_half8_rtpDv8_fjPs;
        lle_X__Z17vstore_half16_rtpDv16_fjPs;
        lle_X__Z16vstore_half2_rtnDv2_fjPs;
        lle_X__Z16vstore_half3_rtnDv3_fjPs;
        lle_X__Z16vstore_half4_rtnDv4_fjPs;
        lle_X__Z16vstore_half8_rtnDv8_fjPs;
        lle_X__Z17vstore_half16_rtnDv16_fjPs;
        lle_X__Z12vstore_half2Dv2_djPU3AS1s;
        lle_X__Z12vstore_half3Dv3_djPU3AS1s;
        lle_X__Z12vstore_half4Dv4_djPU3AS1s;
        lle_X__Z12vstore_half8Dv8_djPU3AS1s;
        lle_X__Z13vstore_half16Dv16_djPU3AS1s;
        lle_X__Z16vstore_half2_rteDv2_djPU3AS1s;
        lle_X__Z16vstore_half3_rteDv3_djPU3AS1s;
        lle_X__Z16vstore_half4_rteDv4_djPU3AS1s;
        lle_X__Z16vstore_half8_rteDv8_djPU3AS1s;
        lle_X__Z17vstore_half16_rteDv16_djPU3AS1s;
        lle_X__Z16vstore_half2_rtzDv2_djPU3AS1s;
        lle_X__Z16vstore_half3_rtzDv3_djPU3AS1s;
        lle_X__Z16vstore_half4_rtzDv4_djPU3AS1s;
        lle_X__Z16vstore_half8_rtzDv8_djPU3AS1s;
        lle_X__Z17vstore_half16_rtzDv16_djPU3AS1s;
        lle_X__Z16vstore_half2_rtpDv2_djPU3AS1s;
        lle_X__Z16vstore_half3_rtpDv3_djPU3AS1s;
        lle_X__Z16vstore_half4_rtpDv4_djPU3AS1s;
        lle_X__Z16vstore_half8_rtpDv8_djPU3AS1s;
        lle_X__Z17vstore_half16_rtpDv16_djPU3AS1s;
        lle_X__Z16vstore_half2_rtnDv2_djPU3AS1s;
        lle_X__Z16vstore_half3_rtnDv3_djPU3AS1s;
        lle_X__Z16vstore_half4_rtnDv4_djPU3AS1s;
        lle_X__Z16vstore_half8_rtnDv8_djPU3AS1s;
        lle_X__Z17vstore_half16_rtnDv16_djPU3AS1s;
        lle_X__Z12vstore_half2Dv2_djPU3AS3s;
        lle_X__Z12vstore_half3Dv3_djPU3AS3s;
        lle_X__Z12vstore_half4Dv4_djPU3AS3s;
        lle_X__Z12vstore_half8Dv8_djPU3AS3s;
        lle_X__Z13vstore_half16Dv16_djPU3AS3s;
        lle_X__Z16vstore_half2_rteDv2_djPU3AS3s;
        lle_X__Z16vstore_half3_rteDv3_djPU3AS3s;
        lle_X__Z16vstore_half4_rteDv4_djPU3AS3s;
        lle_X__Z16vstore_half8_rteDv8_djPU3AS3s;
        lle_X__Z17vstore_half16_rteDv16_djPU3AS3s;
        lle_X__Z16vstore_half2_rtzDv2_djPU3AS3s;
        lle_X__Z16vstore_half3_rtzDv3_djPU3AS3s;
        lle_X__Z16vstore_half4_rtzDv4_djPU3AS3s;
        lle_X__Z16vstore_half8_rtzDv8_djPU3AS3s;
        lle_X__Z17vstore_half16_rtzDv16_djPU3AS3s;
        lle_X__Z16vstore_half2_rtpDv2_djPU3AS3s;
        lle_X__Z16vstore_half3_rtpDv3_djPU3AS3s;
        lle_X__Z16vstore_half4_rtpDv4_djPU3AS3s;
        lle_X__Z16vstore_half8_rtpDv8_djPU3AS3s;
        lle_X__Z17vstore_half16_rtpDv16_djPU3AS3s;
        lle_X__Z16vstore_half2_rtnDv2_djPU3AS3s;
        lle_X__Z16vstore_half3_rtnDv3_djPU3AS3s;
        lle_X__Z16vstore_half4_rtnDv4_djPU3AS3s;
        lle_X__Z16vstore_half8_rtnDv8_djPU3AS3s;
        lle_X__Z17vstore_half16_rtnDv16_djPU3AS3s;
        lle_X__Z12vstore_half2Dv2_djPs;
        lle_X__Z12vstore_half3Dv3_djPs;
        lle_X__Z12vstore_half4Dv4_djPs;
        lle_X__Z12vstore_half8Dv8_djPs;
        lle_X__Z13vstore_half16Dv16_djPs;
        lle_X__Z16vstore_half2_rteDv2_djPs;
        lle_X__Z16vstore_half3_rteDv3_djPs;
        lle_X__Z16vstore_half4_rteDv4_djPs;
        lle_X__Z16vstore_half8_rteDv8_djPs;
        lle_X__Z17vstore_half16_rteDv16_djPs;
        lle_X__Z16vstore_half2_rtzDv2_djPs;
        lle_X__Z16vstore_half3_rtzDv3_djPs;
        lle_X__Z16vstore_half4_rtzDv4_djPs;
        lle_X__Z16vstore_half8_rtzDv8_djPs;
        lle_X__Z17vstore_half16_rtzDv16_djPs;
        lle_X__Z16vstore_half2_rtpDv2_djPs;
        lle_X__Z16vstore_half3_rtpDv3_djPs;
        lle_X__Z16vstore_half4_rtpDv4_djPs;
        lle_X__Z16vstore_half8_rtpDv8_djPs;
        lle_X__Z17vstore_half16_rtpDv16_djPs;
        lle_X__Z16vstore_half2_rtnDv2_djPs;
        lle_X__Z16vstore_half3_rtnDv3_djPs;
        lle_X__Z16vstore_half4_rtnDv4_djPs;
        lle_X__Z16vstore_half8_rtnDv8_djPs;
        lle_X__Z17vstore_half16_rtnDv16_djPs;
        lle_X__Z12vstorea_halffjPU3AS1s;
        lle_X__Z13vstorea_half2Dv2_fjPU3AS1s;
        lle_X__Z13vstorea_half3Dv3_fjPU3AS1s;
        lle_X__Z13vstorea_half4Dv4_fjPU3AS1s;
        lle_X__Z13vstorea_half8Dv8_fjPU3AS1s;
        lle_X__Z14vstorea_half16Dv16_fjPU3AS1s;
        lle_X__Z16vstorea_half_rtefjPU3AS1s;
        lle_X__Z17vstorea_half2_rteDv2_fjPU3AS1s;
        lle_X__Z17vstorea_half3_rteDv3_fjPU3AS1s;
        lle_X__Z17vstorea_half4_rteDv4_fjPU3AS1s;
        lle_X__Z17vstorea_half8_rteDv8_fjPU3AS1s;
        lle_X__Z18vstorea_half16_rteDv16_fjPU3AS1s;
        lle_X__Z16vstorea_half_rtzfjPU3AS1s;
        lle_X__Z17vstorea_half2_rtzDv2_fjPU3AS1s;
        lle_X__Z17vstorea_half3_rtzDv3_fjPU3AS1s;
        lle_X__Z17vstorea_half4_rtzDv4_fjPU3AS1s;
        lle_X__Z17vstorea_half8_rtzDv8_fjPU3AS1s;
        lle_X__Z18vstorea_half16_rtzDv16_fjPU3AS1s;
        lle_X__Z16vstorea_half_rtpfjPU3AS1s;
        lle_X__Z17vstorea_half2_rtpDv2_fjPU3AS1s;
        lle_X__Z17vstorea_half3_rtpDv3_fjPU3AS1s;
        lle_X__Z17vstorea_half4_rtpDv4_fjPU3AS1s;
        lle_X__Z17vstorea_half8_rtpDv8_fjPU3AS1s;
        lle_X__Z18vstorea_half16_rtpDv16_fjPU3AS1s;
        lle_X__Z16vstorea_half_rtnfjPU3AS1s;
        lle_X__Z17vstorea_half2_rtnDv2_fjPU3AS1s;
        lle_X__Z17vstorea_half3_rtnDv3_fjPU3AS1s;
        lle_X__Z17vstorea_half4_rtnDv4_fjPU3AS1s;
        lle_X__Z17vstorea_half8_rtnDv8_fjPU3AS1s;
        lle_X__Z18vstorea_half16_rtnDv16_fjPU3AS1s;
        lle_X__Z12vstorea_halffjPU3AS3s;
        lle_X__Z13vstorea_half2Dv2_fjPU3AS3s;
        lle_X__Z13vstorea_half3Dv3_fjPU3AS3s;
        lle_X__Z13vstorea_half4Dv4_fjPU3AS3s;
        lle_X__Z13vstorea_half8Dv8_fjPU3AS3s;
        lle_X__Z14vstorea_half16Dv16_fjPU3AS3s;
        lle_X__Z16vstorea_half_rtefjPU3AS3s;
        lle_X__Z17vstorea_half2_rteDv2_fjPU3AS3s;
        lle_X__Z17vstorea_half3_rteDv3_fjPU3AS3s;
        lle_X__Z17vstorea_half4_rteDv4_fjPU3AS3s;
        lle_X__Z17vstorea_half8_rteDv8_fjPU3AS3s;
        lle_X__Z18vstorea_half16_rteDv16_fjPU3AS3s;
        lle_X__Z16vstorea_half_rtzfjPU3AS3s;
        lle_X__Z17vstorea_half2_rtzDv2_fjPU3AS3s;
        lle_X__Z17vstorea_half3_rtzDv3_fjPU3AS3s;
        lle_X__Z17vstorea_half4_rtzDv4_fjPU3AS3s;
        lle_X__Z17vstorea_half8_rtzDv8_fjPU3AS3s;
        lle_X__Z18vstorea_half16_rtzDv16_fjPU3AS3s;
        lle_X__Z16vstorea_half_rtpfjPU3AS3s;
        lle_X__Z17vstorea_half2_rtpDv2_fjPU3AS3s;
        lle_X__Z17vstorea_half3_rtpDv3_fjPU3AS3s;
        lle_X__Z17vstorea_half4_rtpDv4_fjPU3AS3s;
        lle_X__Z17vstorea_half8_rtpDv8_fjPU3AS3s;
        lle_X__Z18vstorea_half16_rtpDv16_fjPU3AS3s;
        lle_X__Z16vstorea_half_rtnfjPU3AS3s;
        lle_X__Z17vstorea_half2_rtnDv2_fjPU3AS3s;
        lle_X__Z17vstorea_half3_rtnDv3_fjPU3AS3s;
        lle_X__Z17vstorea_half4_rtnDv4_fjPU3AS3s;
        lle_X__Z17vstorea_half8_rtnDv8_fjPU3AS3s;
        lle_X__Z18vstorea_half16_rtnDv16_fjPU3AS3s;
        lle_X__Z12vstorea_halffjPs;
        lle_X__Z13vstorea_half2Dv2_fjPs;
        lle_X__Z13vstorea_half3Dv3_fjPs;
        lle_X__Z13vstorea_half4Dv4_fjPs;
        lle_X__Z13vstorea_half8Dv8_fjPs;
        lle_X__Z14vstorea_half16Dv16_fjPs;
        lle_X__Z16vstorea_half_rtefjPs;
        lle_X__Z17vstorea_half2_rteDv2_fjPs;
        lle_X__Z17vstorea_half3_rteDv3_fjPs;
        lle_X__Z17vstorea_half4_rteDv4_fjPs;
        lle_X__Z17vstorea_half8_rteDv8_fjPs;
        lle_X__Z18vstorea_half16_rteDv16_fjPs;
        lle_X__Z16vstorea_half_rtzfjPs;
        lle_X__Z17vstorea_half2_rtzDv2_fjPs;
        lle_X__Z17vstorea_half3_rtzDv3_fjPs;
        lle_X__Z17vstorea_half4_rtzDv4_fjPs;
        lle_X__Z17vstorea_half8_rtzDv8_fjPs;
        lle_X__Z18vstorea_half16_rtzDv16_fjPs;
        lle_X__Z16vstorea_half_rtpfjPs;
        lle_X__Z17vstorea_half2_rtpDv2_fjPs;
        lle_X__Z17vstorea_half3_rtpDv3_fjPs;
        lle_X__Z17vstorea_half4_rtpDv4_fjPs;
        lle_X__Z17vstorea_half8_rtpDv8_fjPs;
        lle_X__Z18vstorea_half16_rtpDv16_fjPs;
        lle_X__Z16vstorea_half_rtnfjPs;
        lle_X__Z17vstorea_half2_rtnDv2_fjPs;
        lle_X__Z17vstorea_half3_rtnDv3_fjPs;
        lle_X__Z17vstorea_half4_rtnDv4_fjPs;
        lle_X__Z17vstorea_half8_rtnDv8_fjPs;
        lle_X__Z18vstorea_half16_rtnDv16_fjPs;
        lle_X__Z12vstorea_halfdjPU3AS1s;
        lle_X__Z13vstorea_half2Dv2_djPU3AS1s;
        lle_X__Z13vstorea_half3Dv3_djPU3AS1s;
        lle_X__Z13vstorea_half4Dv4_djPU3AS1s;
        lle_X__Z13vstorea_half8Dv8_djPU3AS1s;
        lle_X__Z14vstorea_half16Dv16_djPU3AS1s;
        lle_X__Z16vstorea_half_rtedjPU3AS1s;
        lle_X__Z17vstorea_half2_rteDv2_djPU3AS1s;
        lle_X__Z17vstorea_half3_rteDv3_djPU3AS1s;
        lle_X__Z17vstorea_half4_rteDv4_djPU3AS1s;
        lle_X__Z17vstorea_half8_rteDv8_djPU3AS1s;
        lle_X__Z18vstorea_half16_rteDv16_djPU3AS1s;
        lle_X__Z16vstorea_half_rtzdjPU3AS1s;
        lle_X__Z17vstorea_half2_rtzDv2_djPU3AS1s;
        lle_X__Z17vstorea_half3_rtzDv3_djPU3AS1s;
        lle_X__Z17vstorea_half4_rtzDv4_djPU3AS1s;
        lle_X__Z17vstorea_half8_rtzDv8_djPU3AS1s;
        lle_X__Z18vstorea_half16_rtzDv16_djPU3AS1s;
        lle_X__Z16vstorea_half_rtpdjPU3AS1s;
        lle_X__Z17vstorea_half2_rtpDv2_djPU3AS1s;
        lle_X__Z17vstorea_half3_rtpDv3_djPU3AS1s;
        lle_X__Z17vstorea_half4_rtpDv4_djPU3AS1s;
        lle_X__Z17vstorea_half8_rtpDv8_djPU3AS1s;
        lle_X__Z18vstorea_half16_rtpDv16_djPU3AS1s;
        lle_X__Z16vstorea_half_rtndjPU3AS1s;
        lle_X__Z17vstorea_half2_rtnDv2_djPU3AS1s;
        lle_X__Z17vstorea_half3_rtnDv3_djPU3AS1s;
        lle_X__Z17vstorea_half4_rtnDv4_djPU3AS1s;
        lle_X__Z17vstorea_half8_rtnDv8_djPU3AS1s;
        lle_X__Z18vstorea_half16_rtnDv16_djPU3AS1s;
        lle_X__Z12vstorea_halfdjPU3AS3s;
        lle_X__Z13vstorea_half2Dv2_djPU3AS3s;
        lle_X__Z13vstorea_half3Dv3_djPU3AS3s;
        lle_X__Z13vstorea_half4Dv4_djPU3AS3s;
        lle_X__Z13vstorea_half8Dv8_djPU3AS3s;
        lle_X__Z14vstorea_half16Dv16_djPU3AS3s;
        lle_X__Z16vstorea_half_rtedjPU3AS3s;
        lle_X__Z17vstorea_half2_rteDv2_djPU3AS3s;
        lle_X__Z17vstorea_half3_rteDv3_djPU3AS3s;
        lle_X__Z17vstorea_half4_rteDv4_djPU3AS3s;
        lle_X__Z17vstorea_half8_rteDv8_djPU3AS3s;
        lle_X__Z18vstorea_half16_rteDv16_djPU3AS3s;
        lle_X__Z16vstorea_half_rtzdjPU3AS3s;
        lle_X__Z17vstorea_half2_rtzDv2_djPU3AS3s;
        lle_X__Z17vstorea_half3_rtzDv3_djPU3AS3s;
        lle_X__Z17vstorea_half4_rtzDv4_djPU3AS3s;
        lle_X__Z17vstorea_half8_rtzDv8_djPU3AS3s;
        lle_X__Z18vstorea_half16_rtzDv16_djPU3AS3s;
        lle_X__Z16vstorea_half_rtpdjPU3AS3s;
        lle_X__Z17vstorea_half2_rtpDv2_djPU3AS3s;
        lle_X__Z17vstorea_half3_rtpDv3_djPU3AS3s;
        lle_X__Z17vstorea_half4_rtpDv4_djPU3AS3s;
        lle_X__Z17vstorea_half8_rtpDv8_djPU3AS3s;
        lle_X__Z18vstorea_half16_rtpDv16_djPU3AS3s;
        lle_X__Z16vstorea_half_rtndjPU3AS3s;
        lle_X__Z17vstorea_half2_rtnDv2_djPU3AS3s;
        lle_X__Z17vstorea_half3_rtnDv3_djPU3AS3s;
        lle_X__Z17vstorea_half4_rtnDv4_djPU3AS3s;
        lle_X__Z17vstorea_half8_rtnDv8_djPU3AS3s;
        lle_X__Z18vstorea_half16_rtnDv16_djPU3AS3s;
        lle_X__Z12vstorea_halfdjPs;
        lle_X__Z13vstorea_half2Dv2_djPs;
        lle_X__Z13vstorea_half3Dv3_djPs;
        lle_X__Z13vstorea_half4Dv4_djPs;
        lle_X__Z13vstorea_half8Dv8_djPs;
        lle_X__Z14vstorea_half16Dv16_djPs;
        lle_X__Z16vstorea_half_rtedjPs;
        lle_X__Z17vstorea_half2_rteDv2_djPs;
        lle_X__Z17vstorea_half3_rteDv3_djPs;
        lle_X__Z17vstorea_half4_rteDv4_djPs;
        lle_X__Z17vstorea_half8_rteDv8_djPs;
        lle_X__Z18vstorea_half16_rteDv16_djPs;
        lle_X__Z16vstorea_half_rtzdjPs;
        lle_X__Z17vstorea_half2_rtzDv2_djPs;
        lle_X__Z17vstorea_half3_rtzDv3_djPs;
        lle_X__Z17vstorea_half4_rtzDv4_djPs;
        lle_X__Z17vstorea_half8_rtzDv8_djPs;
        lle_X__Z18vstorea_half16_rtzDv16_djPs;
        lle_X__Z16vstorea_half_rtpdjPs;
        lle_X__Z17vstorea_half2_rtpDv2_djPs;
        lle_X__Z17vstorea_half3_rtpDv3_djPs;
        lle_X__Z17vstorea_half4_rtpDv4_djPs;
        lle_X__Z17vstorea_half8_rtpDv8_djPs;
        lle_X__Z18vstorea_half16_rtpDv16_djPs;
        lle_X__Z16vstorea_half_rtndjPs;
        lle_X__Z17vstorea_half2_rtnDv2_djPs;
        lle_X__Z17vstorea_half3_rtnDv3_djPs;
        lle_X__Z17vstorea_half4_rtnDv4_djPs;
        lle_X__Z17vstorea_half8_rtnDv8_djPs;
        lle_X__Z18vstorea_half16_rtnDv16_djPs;
        lle_X__Z10vload_halfmPU3AS1Ks;
        lle_X__Z10vload_halfmPU3AS3Ks;
        lle_X__Z10vload_halfmPU3AS2Ks;
        lle_X__Z10vload_halfmPKs;
        lle_X__Z11vload_half2mPU3AS1Ks;
        lle_X__Z11vload_half3mPU3AS1Ks;
        lle_X__Z11vload_half4mPU3AS1Ks;
        lle_X__Z11vload_half8mPU3AS1Ks;
        lle_X__Z12vload_half16mPU3AS1Ks;
        lle_X__Z11vload_half2mPU3AS3Ks;
        lle_X__Z11vload_half3mPU3AS3Ks;
        lle_X__Z11vload_half4mPU3AS3Ks;
        lle_X__Z11vload_half8mPU3AS3Ks;
        lle_X__Z12vload_half16mPU3AS3Ks;
        lle_X__Z11vload_half2mPU3AS2Ks;
        lle_X__Z11vload_half3mPU3AS2Ks;
        lle_X__Z11vload_half4mPU3AS2Ks;
        lle_X__Z11vload_half8mPU3AS2Ks;
        lle_X__Z12vload_half16mPU3AS2Ks;
        lle_X__Z11vload_half2mPKs;
        lle_X__Z11vload_half3mPKs;
        lle_X__Z11vload_half4mPKs;
        lle_X__Z11vload_half8mPKs;
        lle_X__Z12vload_half16mPKs;
        lle_X__Z11vloada_halfmPU3AS1Ks;
        lle_X__Z12vloada_half2mPU3AS1Ks;
        lle_X__Z12vloada_half3mPU3AS1Ks;
        lle_X__Z12vloada_half4mPU3AS1Ks;
        lle_X__Z12vloada_half8mPU3AS1Ks;
        lle_X__Z13vloada_half16mPU3AS1Ks;
        lle_X__Z11vloada_halfmPU3AS3Ks;
        lle_X__Z12vloada_half2mPU3AS3Ks;
        lle_X__Z12vloada_half3mPU3AS3Ks;
        lle_X__Z12vloada_half4mPU3AS3Ks;
        lle_X__Z12vloada_half8mPU3AS3Ks;
        lle_X__Z13vloada_half16mPU3AS3Ks;
        lle_X__Z11vloada_halfmPU3AS2Ks;
        lle_X__Z12vloada_half2mPU3AS2Ks;
        lle_X__Z12vloada_half3mPU3AS2Ks;
        lle_X__Z12vloada_half4mPU3AS2Ks;
        lle_X__Z12vloada_half8mPU3AS2Ks;
        lle_X__Z13vloada_half16mPU3AS2Ks;
        lle_X__Z11vloada_halfmPKs;
        lle_X__Z12vloada_half2mPKs;
        lle_X__Z12vloada_half3mPKs;
        lle_X__Z12vloada_half4mPKs;
        lle_X__Z12vloada_half8mPKs;
        lle_X__Z13vloada_half16mPKs;
        lle_X__Z11vstore_halffmPU3AS1s;
        lle_X__Z11vstore_halffmPU3AS3s;
        lle_X__Z11vstore_halffmPs;
        lle_X__Z15vstore_half_rtefmPU3AS1s;
        lle_X__Z15vstore_half_rtefmPU3AS3s;
        lle_X__Z15vstore_half_rtefmPs;
        lle_X__Z15vstore_half_rtzfmPU3AS1s;
        lle_X__Z15vstore_half_rtzfmPU3AS3s;
        lle_X__Z15vstore_half_rtzfmPs;
        lle_X__Z15vstore_half_rtpfmPU3AS1s;
        lle_X__Z15vstore_half_rtpfmPU3AS3s;
        lle_X__Z15vstore_half_rtpfmPs;
        lle_X__Z15vstore_half_rtnfmPU3AS1s;
        lle_X__Z15vstore_half_rtnfmPU3AS3s;
        lle_X__Z15vstore_half_rtnfmPs;
        lle_X__Z11vstore_halfdmPU3AS1s;
        lle_X__Z15vstore_half_rtedmPU3AS1s;
        lle_X__Z15vstore_half_rtzdmPU3AS1s;
        lle_X__Z15vstore_half_rtpdmPU3AS1s;
        lle_X__Z15vstore_half_rtndmPU3AS1s;
        lle_X__Z11vstore_halfdmPU3AS3s;
        lle_X__Z15vstore_half_rtedmPU3AS3s;
        lle_X__Z15vstore_half_rtzdmPU3AS3s;
        lle_X__Z15vstore_half_rtpdmPU3AS3s;
        lle_X__Z15vstore_half_rtndmPU3AS3s;
        lle_X__Z11vstore_halfdmPs;
        lle_X__Z15vstore_half_rtedmPs;
        lle_X__Z15vstore_half_rtzdmPs;
        lle_X__Z15vstore_half_rtpdmPs;
        lle_X__Z15vstore_half_rtndmPs;
        lle_X__Z12vstore_half2Dv2_fmPU3AS1s;
        lle_X__Z12vstore_half3Dv3_fmPU3AS1s;
        lle_X__Z12vstore_half4Dv4_fmPU3AS1s;
        lle_X__Z12vstore_half8Dv8_fmPU3AS1s;
        lle_X__Z13vstore_half16Dv16_fmPU3AS1s;
        lle_X__Z16vstore_half2_rteDv2_fmPU3AS1s;
        lle_X__Z16vstore_half3_rteDv3_fmPU3AS1s;
        lle_X__Z16vstore_half4_rteDv4_fmPU3AS1s;
        lle_X__Z16vstore_half8_rteDv8_fmPU3AS1s;
        lle_X__Z17vstore_half16_rteDv16_fmPU3AS1s;
        lle_X__Z16vstore_half2_rtzDv2_fmPU3AS1s;
        lle_X__Z16vstore_half3_rtzDv3_fmPU3AS1s;
        lle_X__Z16vstore_half4_rtzDv4_fmPU3AS1s;
        lle_X__Z16vstore_half8_rtzDv8_fmPU3AS1s;
        lle_X__Z17vstore_half16_rtzDv16_fmPU3AS1s;
        lle_X__Z16vstore_half2_rtpDv2_fmPU3AS1s;
        lle_X__Z16vstore_half3_rtpDv3_fmPU3AS1s;
        lle_X__Z16vstore_half4_rtpDv4_fmPU3AS1s;
        lle_X__Z16vstore_half8_rtpDv8_fmPU3AS1s;
        lle_X__Z17vstore_half16_rtpDv16_fmPU3AS1s;
        lle_X__Z16vstore_half2_rtnDv2_fmPU3AS1s;
        lle_X__Z16vstore_half3_rtnDv3_fmPU3AS1s;
        lle_X__Z16vstore_half4_rtnDv4_fmPU3AS1s;
        lle_X__Z16vstore_half8_rtnDv8_fmPU3AS1s;
        lle_X__Z17vstore_half16_rtnDv16_fmPU3AS1s;
        lle_X__Z12vstore_half2Dv2_fmPU3AS3s;
        lle_X__Z12vstore_half3Dv3_fmPU3AS3s;
        lle_X__Z12vstore_half4Dv4_fmPU3AS3s;
        lle_X__Z12vstore_half8Dv8_fmPU3AS3s;
        lle_X__Z13vstore_half16Dv16_fmPU3AS3s;
        lle_X__Z16vstore_half2_rteDv2_fmPU3AS3s;
        lle_X__Z16vstore_half3_rteDv3_fmPU3AS3s;
        lle_X__Z16vstore_half4_rteDv4_fmPU3AS3s;
        lle_X__Z16vstore_half8_rteDv8_fmPU3AS3s;
        lle_X__Z17vstore_half16_rteDv16_fmPU3AS3s;
        lle_X__Z16vstore_half2_rtzDv2_fmPU3AS3s;
        lle_X__Z16vstore_half3_rtzDv3_fmPU3AS3s;
        lle_X__Z16vstore_half4_rtzDv4_fmPU3AS3s;
        lle_X__Z16vstore_half8_rtzDv8_fmPU3AS3s;
        lle_X__Z17vstore_half16_rtzDv16_fmPU3AS3s;
        lle_X__Z16vstore_half2_rtpDv2_fmPU3AS3s;
        lle_X__Z16vstore_half3_rtpDv3_fmPU3AS3s;
        lle_X__Z16vstore_half4_rtpDv4_fmPU3AS3s;
        lle_X__Z16vstore_half8_rtpDv8_fmPU3AS3s;
        lle_X__Z17vstore_half16_rtpDv16_fmPU3AS3s;
        lle_X__Z16vstore_half2_rtnDv2_fmPU3AS3s;
        lle_X__Z16vstore_half3_rtnDv3_fmPU3AS3s;
        lle_X__Z16vstore_half4_rtnDv4_fmPU3AS3s;
        lle_X__Z16vstore_half8_rtnDv8_fmPU3AS3s;
        lle_X__Z17vstore_half16_rtnDv16_fmPU3AS3s;
        lle_X__Z12vstore_half2Dv2_fmPs;
        lle_X__Z12vstore_half3Dv3_fmPs;
        lle_X__Z12vstore_half4Dv4_fmPs;
        lle_X__Z12vstore_half8Dv8_fmPs;
        lle_X__Z13vstore_half16Dv16_fmPs;
        lle_X__Z16vstore_half2_rteDv2_fmPs;
        lle_X__Z16vstore_half3_rteDv3_fmPs;
        lle_X__Z16vstore_half4_rteDv4_fmPs;
        lle_X__Z16vstore_half8_rteDv8_fmPs;
        lle_X__Z17vstore_half16_rteDv16_fmPs;
        lle_X__Z16vstore_half2_rtzDv2_fmPs;
        lle_X__Z16vstore_half3_rtzDv3_fmPs;
        lle_X__Z16vstore_half4_rtzDv4_fmPs;
        lle_X__Z16vstore_half8_rtzDv8_fmPs;
        lle_X__Z17vstore_half16_rtzDv16_fmPs;
        lle_X__Z16vstore_half2_rtpDv2_fmPs;
        lle_X__Z16vstore_half3_rtpDv3_fmPs;
        lle_X__Z16vstore_half4_rtpDv4_fmPs;
        lle_X__Z16vstore_half8_rtpDv8_fmPs;
        lle_X__Z17vstore_half16_rtpDv16_fmPs;
        lle_X__Z16vstore_half2_rtnDv2_fmPs;
        lle_X__Z16vstore_half3_rtnDv3_fmPs;
        lle_X__Z16vstore_half4_rtnDv4_fmPs;
        lle_X__Z16vstore_half8_rtnDv8_fmPs;
        lle_X__Z17vstore_half16_rtnDv16_fmPs;
        lle_X__Z12vstore_half2Dv2_dmPU3AS1s;
        lle_X__Z12vstore_half3Dv3_dmPU3AS1s;
        lle_X__Z12vstore_half4Dv4_dmPU3AS1s;
        lle_X__Z12vstore_half8Dv8_dmPU3AS1s;
        lle_X__Z13vstore_half16Dv16_dmPU3AS1s;
        lle_X__Z16vstore_half2_rteDv2_dmPU3AS1s;
        lle_X__Z16vstore_half3_rteDv3_dmPU3AS1s;
        lle_X__Z16vstore_half4_rteDv4_dmPU3AS1s;
        lle_X__Z16vstore_half8_rteDv8_dmPU3AS1s;
        lle_X__Z17vstore_half16_rteDv16_dmPU3AS1s;
        lle_X__Z16vstore_half2_rtzDv2_dmPU3AS1s;
        lle_X__Z16vstore_half3_rtzDv3_dmPU3AS1s;
        lle_X__Z16vstore_half4_rtzDv4_dmPU3AS1s;
        lle_X__Z16vstore_half8_rtzDv8_dmPU3AS1s;
        lle_X__Z17vstore_half16_rtzDv16_dmPU3AS1s;
        lle_X__Z16vstore_half2_rtpDv2_dmPU3AS1s;
        lle_X__Z16vstore_half3_rtpDv3_dmPU3AS1s;
        lle_X__Z16vstore_half4_rtpDv4_dmPU3AS1s;
        lle_X__Z16vstore_half8_rtpDv8_dmPU3AS1s;
        lle_X__Z17vstore_half16_rtpDv16_dmPU3AS1s;
        lle_X__Z16vstore_half2_rtnDv2_dmPU3AS1s;
        lle_X__Z16vstore_half3_rtnDv3_dmPU3AS1s;
        lle_X__Z16vstore_half4_rtnDv4_dmPU3AS1s;
        lle_X__Z16vstore_half8_rtnDv8_dmPU3AS1s;
        lle_X__Z17vstore_half16_rtnDv16_dmPU3AS1s;
        lle_X__Z12vstore_half2Dv2_dmPU3AS3s;
        lle_X__Z12vstore_half3Dv3_dmPU3AS3s;
        lle_X__Z12vstore_half4Dv4_dmPU3AS3s;
        lle_X__Z12vstore_half8Dv8_dmPU3AS3s;
        lle_X__Z13vstore_half16Dv16_dmPU3AS3s;
        lle_X__Z16vstore_half2_rteDv2_dmPU3AS3s;
        lle_X__Z16vstore_half3_rteDv3_dmPU3AS3s;
        lle_X__Z16vstore_half4_rteDv4_dmPU3AS3s;
        lle_X__Z16vstore_half8_rteDv8_dmPU3AS3s;
        lle_X__Z17vstore_half16_rteDv16_dmPU3AS3s;
        lle_X__Z16vstore_half2_rtzDv2_dmPU3AS3s;
        lle_X__Z16vstore_half3_rtzDv3_dmPU3AS3s;
        lle_X__Z16vstore_half4_rtzDv4_dmPU3AS3s;
        lle_X__Z16vstore_half8_rtzDv8_dmPU3AS3s;
        lle_X__Z17vstore_half16_rtzDv16_dmPU3AS3s;
        lle_X__Z16vstore_half2_rtpDv2_dmPU3AS3s;
        lle_X__Z16vstore_half3_rtpDv3_dmPU3AS3s;
        lle_X__Z16vstore_half4_rtpDv4_dmPU3AS3s;
        lle_X__Z16vstore_half8_rtpDv8_dmPU3AS3s;
        lle_X__Z17vstore_half16_rtpDv16_dmPU3AS3s;
        lle_X__Z16vstore_half2_rtnDv2_dmPU3AS3s;
        lle_X__Z16vstore_half3_rtnDv3_dmPU3AS3s;
        lle_X__Z16vstore_half4_rtnDv4_dmPU3AS3s;
        lle_X__Z16vstore_half8_rtnDv8_dmPU3AS3s;
        lle_X__Z17vstore_half16_rtnDv16_dmPU3AS3s;
        lle_X__Z12vstore_half2Dv2_dmPs;
        lle_X__Z12vstore_half3Dv3_dmPs;
        lle_X__Z12vstore_half4Dv4_dmPs;
        lle_X__Z12vstore_half8Dv8_dmPs;
        lle_X__Z13vstore_half16Dv16_dmPs;
        lle_X__Z16vstore_half2_rteDv2_dmPs;
        lle_X__Z16vstore_half3_rteDv3_dmPs;
        lle_X__Z16vstore_half4_rteDv4_dmPs;
        lle_X__Z16vstore_half8_rteDv8_dmPs;
        lle_X__Z17vstore_half16_rteDv16_dmPs;
        lle_X__Z16vstore_half2_rtzDv2_dmPs;
        lle_X__Z16vstore_half3_rtzDv3_dmPs;
        lle_X__Z16vstore_half4_rtzDv4_dmPs;
        lle_X__Z16vstore_half8_rtzDv8_dmPs;
        lle_X__Z17vstore_half16_rtzDv16_dmPs;
        lle_X__Z16vstore_half2_rtpDv2_dmPs;
        lle_X__Z16vstore_half3_rtpDv3_dmPs;
        lle_X__Z16vstore_half4_rtpDv4_dmPs;
        lle_X__Z16vstore_half8_rtpDv8_dmPs;
        lle_X__Z17vstore_half16_rtpDv16_dmPs;
        lle_X__Z16vstore_half2_rtnDv2_dmPs;
        lle_X__Z16vstore_half3_rtnDv3_dmPs;
        lle_X__Z16vstore_half4_rtnDv4_dmPs;
        lle_X__Z16vstore_half8_rtnDv8_dmPs;
        lle_X__Z17vstore_half16_rtnDv16_dmPs;
        lle_X__Z12vstorea_halffmPU3AS1s;
        lle_X__Z13vstorea_half2Dv2_fmPU3AS1s;
        lle_X__Z13vstorea_half3Dv3_fmPU3AS1s;
        lle_X__Z13vstorea_half4Dv4_fmPU3AS1s;
        lle_X__Z13vstorea_half8Dv8_fmPU3AS1s;
        lle_X__Z14vstorea_half16Dv16_fmPU3AS1s;
        lle_X__Z16vstorea_half_rtefmPU3AS1s;
        lle_X__Z17vstorea_half2_rteDv2_fmPU3AS1s;
        lle_X__Z17vstorea_half3_rteDv3_fmPU3AS1s;
        lle_X__Z17vstorea_half4_rteDv4_fmPU3AS1s;
        lle_X__Z17vstorea_half8_rteDv8_fmPU3AS1s;
        lle_X__Z18vstorea_half16_rteDv16_fmPU3AS1s;
        lle_X__Z16vstorea_half_rtzfmPU3AS1s;
        lle_X__Z17vstorea_half2_rtzDv2_fmPU3AS1s;
        lle_X__Z17vstorea_half3_rtzDv3_fmPU3AS1s;
        lle_X__Z17vstorea_half4_rtzDv4_fmPU3AS1s;
        lle_X__Z17vstorea_half8_rtzDv8_fmPU3AS1s;
        lle_X__Z18vstorea_half16_rtzDv16_fmPU3AS1s;
        lle_X__Z16vstorea_half_rtpfmPU3AS1s;
        lle_X__Z17vstorea_half2_rtpDv2_fmPU3AS1s;
        lle_X__Z17vstorea_half3_rtpDv3_fmPU3AS1s;
        lle_X__Z17vstorea_half4_rtpDv4_fmPU3AS1s;
        lle_X__Z17vstorea_half8_rtpDv8_fmPU3AS1s;
        lle_X__Z18vstorea_half16_rtpDv16_fmPU3AS1s;
        lle_X__Z16vstorea_half_rtnfmPU3AS1s;
        lle_X__Z17vstorea_half2_rtnDv2_fmPU3AS1s;
        lle_X__Z17vstorea_half3_rtnDv3_fmPU3AS1s;
        lle_X__Z17vstorea_half4_rtnDv4_fmPU3AS1s;
        lle_X__Z17vstorea_half8_rtnDv8_fmPU3AS1s;
        lle_X__Z18vstorea_half16_rtnDv16_fmPU3AS1s;
        lle_X__Z12vstorea_halffmPU3AS3s;
        lle_X__Z13vstorea_half2Dv2_fmPU3AS3s;
        lle_X__Z13vstorea_half3Dv3_fmPU3AS3s;
        lle_X__Z13vstorea_half4Dv4_fmPU3AS3s;
        lle_X__Z13vstorea_half8Dv8_fmPU3AS3s;
        lle_X__Z14vstorea_half16Dv16_fmPU3AS3s;
        lle_X__Z16vstorea_half_rtefmPU3AS3s;
        lle_X__Z17vstorea_half2_rteDv2_fmPU3AS3s;
        lle_X__Z17vstorea_half3_rteDv3_fmPU3AS3s;
        lle_X__Z17vstorea_half4_rteDv4_fmPU3AS3s;
        lle_X__Z17vstorea_half8_rteDv8_fmPU3AS3s;
        lle_X__Z18vstorea_half16_rteDv16_fmPU3AS3s;
        lle_X__Z16vstorea_half_rtzfmPU3AS3s;
        lle_X__Z17vstorea_half2_rtzDv2_fmPU3AS3s;
        lle_X__Z17vstorea_half3_rtzDv3_fmPU3AS3s;
        lle_X__Z17vstorea_half4_rtzDv4_fmPU3AS3s;
        lle_X__Z17vstorea_half8_rtzDv8_fmPU3AS3s;
        lle_X__Z18vstorea_half16_rtzDv16_fmPU3AS3s;
        lle_X__Z16vstorea_half_rtpfmPU3AS3s;
        lle_X__Z17vstorea_half2_rtpDv2_fmPU3AS3s;
        lle_X__Z17vstorea_half3_rtpDv3_fmPU3AS3s;
        lle_X__Z17vstorea_half4_rtpDv4_fmPU3AS3s;
        lle_X__Z17vstorea_half8_rtpDv8_fmPU3AS3s;
        lle_X__Z18vstorea_half16_rtpDv16_fmPU3AS3s;
        lle_X__Z16vstorea_half_rtnfmPU3AS3s;
        lle_X__Z17vstorea_half2_rtnDv2_fmPU3AS3s;
        lle_X__Z17vstorea_half3_rtnDv3_fmPU3AS3s;
        lle_X__Z17vstorea_half4_rtnDv4_fmPU3AS3s;
        lle_X__Z17vstorea_half8_rtnDv8_fmPU3AS3s;
        lle_X__Z18vstorea_half16_rtnDv16_fmPU3AS3s;
        lle_X__Z12vstorea_halffmPs;
        lle_X__Z13vstorea_half2Dv2_fmPs;
        lle_X__Z13vstorea_half3Dv3_fmPs;
        lle_X__Z13vstorea_half4Dv4_fmPs;
        lle_X__Z13vstorea_half8Dv8_fmPs;
        lle_X__Z14vstorea_half16Dv16_fmPs;
        lle_X__Z16vstorea_half_rtefmPs;
        lle_X__Z17vstorea_half2_rteDv2_fmPs;
        lle_X__Z17vstorea_half3_rteDv3_fmPs;
        lle_X__Z17vstorea_half4_rteDv4_fmPs;
        lle_X__Z17vstorea_half8_rteDv8_fmPs;
        lle_X__Z18vstorea_half16_rteDv16_fmPs;
        lle_X__Z16vstorea_half_rtzfmPs;
        lle_X__Z17vstorea_half2_rtzDv2_fmPs;
        lle_X__Z17vstorea_half3_rtzDv3_fmPs;
        lle_X__Z17vstorea_half4_rtzDv4_fmPs;
        lle_X__Z17vstorea_half8_rtzDv8_fmPs;
        lle_X__Z18vstorea_half16_rtzDv16_fmPs;
        lle_X__Z16vstorea_half_rtpfmPs;
        lle_X__Z17vstorea_half2_rtpDv2_fmPs;
        lle_X__Z17vstorea_half3_rtpDv3_fmPs;
        lle_X__Z17vstorea_half4_rtpDv4_fmPs;
        lle_X__Z17vstorea_half8_rtpDv8_fmPs;
        lle_X__Z18vstorea_half16_rtpDv16_fmPs;
        lle_X__Z16vstorea_half_rtnfmPs;
        lle_X__Z17vstorea_half2_rtnDv2_fmPs;
        lle_X__Z17vstorea_half3_rtnDv3_fmPs;
        lle_X__Z17vstorea_half4_rtnDv4_fmPs;
        lle_X__Z17vstorea_half8_rtnDv8_fmPs;
        lle_X__Z18vstorea_half16_rtnDv16_fmPs;
        lle_X__Z12vstorea_halfdmPU3AS1s;
        lle_X__Z13vstorea_half2Dv2_dmPU3AS1s;
        lle_X__Z13vstorea_half3Dv3_dmPU3AS1s;
        lle_X__Z13vstorea_half4Dv4_dmPU3AS1s;
        lle_X__Z13vstorea_half8Dv8_dmPU3AS1s;
        lle_X__Z14vstorea_half16Dv16_dmPU3AS1s;
        lle_X__Z16vstorea_half_rtedmPU3AS1s;
        lle_X__Z17vstorea_half2_rteDv2_dmPU3AS1s;
        lle_X__Z17vstorea_half3_rteDv3_dmPU3AS1s;
        lle_X__Z17vstorea_half4_rteDv4_dmPU3AS1s;
        lle_X__Z17vstorea_half8_rteDv8_dmPU3AS1s;
        lle_X__Z18vstorea_half16_rteDv16_dmPU3AS1s;
        lle_X__Z16vstorea_half_rtzdmPU3AS1s;
        lle_X__Z17vstorea_half2_rtzDv2_dmPU3AS1s;
        lle_X__Z17vstorea_half3_rtzDv3_dmPU3AS1s;
        lle_X__Z17vstorea_half4_rtzDv4_dmPU3AS1s;
        lle_X__Z17vstorea_half8_rtzDv8_dmPU3AS1s;
        lle_X__Z18vstorea_half16_rtzDv16_dmPU3AS1s;
        lle_X__Z16vstorea_half_rtpdmPU3AS1s;
        lle_X__Z17vstorea_half2_rtpDv2_dmPU3AS1s;
        lle_X__Z17vstorea_half3_rtpDv3_dmPU3AS1s;
        lle_X__Z17vstorea_half4_rtpDv4_dmPU3AS1s;
        lle_X__Z17vstorea_half8_rtpDv8_dmPU3AS1s;
        lle_X__Z18vstorea_half16_rtpDv16_dmPU3AS1s;
        lle_X__Z16vstorea_half_rtndmPU3AS1s;
        lle_X__Z17vstorea_half2_rtnDv2_dmPU3AS1s;
        lle_X__Z17vstorea_half3_rtnDv3_dmPU3AS1s;
        lle_X__Z17vstorea_half4_rtnDv4_dmPU3AS1s;
        lle_X__Z17vstorea_half8_rtnDv8_dmPU3AS1s;
        lle_X__Z18vstorea_half16_rtnDv16_dmPU3AS1s;
        lle_X__Z12vstorea_halfdmPU3AS3s;
        lle_X__Z13vstorea_half2Dv2_dmPU3AS3s;
        lle_X__Z13vstorea_half3Dv3_dmPU3AS3s;
        lle_X__Z13vstorea_half4Dv4_dmPU3AS3s;
        lle_X__Z13vstorea_half8Dv8_dmPU3AS3s;
        lle_X__Z14vstorea_half16Dv16_dmPU3AS3s;
        lle_X__Z16vstorea_half_rtedmPU3AS3s;
        lle_X__Z17vstorea_half2_rteDv2_dmPU3AS3s;
        lle_X__Z17vstorea_half3_rteDv3_dmPU3AS3s;
        lle_X__Z17vstorea_half4_rteDv4_dmPU3AS3s;
        lle_X__Z17vstorea_half8_rteDv8_dmPU3AS3s;
        lle_X__Z18vstorea_half16_rteDv16_dmPU3AS3s;
        lle_X__Z16vstorea_half_rtzdmPU3AS3s;
        lle_X__Z17vstorea_half2_rtzDv2_dmPU3AS3s;
        lle_X__Z17vstorea_half3_rtzDv3_dmPU3AS3s;
        lle_X__Z17vstorea_half4_rtzDv4_dmPU3AS3s;
        lle_X__Z17vstorea_half8_rtzDv8_dmPU3AS3s;
        lle_X__Z18vstorea_half16_rtzDv16_dmPU3AS3s;
        lle_X__Z16vstorea_half_rtpdmPU3AS3s;
        lle_X__Z17vstorea_half2_rtpDv2_dmPU3AS3s;
        lle_X__Z17vstorea_half3_rtpDv3_dmPU3AS3s;
        lle_X__Z17vstorea_half4_rtpDv4_dmPU3AS3s;
        lle_X__Z17vstorea_half8_rtpDv8_dmPU3AS3s;
        lle_X__Z18vstorea_half16_rtpDv16_dmPU3AS3s;
        lle_X__Z16vstorea_half_rtndmPU3AS3s;
        lle_X__Z17vstorea_half2_rtnDv2_dmPU3AS3s;
        lle_X__Z17vstorea_half3_rtnDv3_dmPU3AS3s;
        lle_X__Z17vstorea_half4_rtnDv4_dmPU3AS3s;
        lle_X__Z17vstorea_half8_rtnDv8_dmPU3AS3s;
        lle_X__Z18vstorea_half16_rtnDv16_dmPU3AS3s;
        lle_X__Z12vstorea_halfdmPs;
        lle_X__Z13vstorea_half2Dv2_dmPs;
        lle_X__Z13vstorea_half3Dv3_dmPs;
        lle_X__Z13vstorea_half4Dv4_dmPs;
        lle_X__Z13vstorea_half8Dv8_dmPs;
        lle_X__Z14vstorea_half16Dv16_dmPs;
        lle_X__Z16vstorea_half_rtedmPs;
        lle_X__Z17vstorea_half2_rteDv2_dmPs;
        lle_X__Z17vstorea_half3_rteDv3_dmPs;
        lle_X__Z17vstorea_half4_rteDv4_dmPs;
        lle_X__Z17vstorea_half8_rteDv8_dmPs;
        lle_X__Z18vstorea_half16_rteDv16_dmPs;
        lle_X__Z16vstorea_half_rtzdmPs;
        lle_X__Z17vstorea_half2_rtzDv2_dmPs;
        lle_X__Z17vstorea_half3_rtzDv3_dmPs;
        lle_X__Z17vstorea_half4_rtzDv4_dmPs;
        lle_X__Z17vstorea_half8_rtzDv8_dmPs;
        lle_X__Z18vstorea_half16_rtzDv16_dmPs;
        lle_X__Z16vstorea_half_rtpdmPs;
        lle_X__Z17vstorea_half2_rtpDv2_dmPs;
        lle_X__Z17vstorea_half3_rtpDv3_dmPs;
        lle_X__Z17vstorea_half4_rtpDv4_dmPs;
        lle_X__Z17vstorea_half8_rtpDv8_dmPs;
        lle_X__Z18vstorea_half16_rtpDv16_dmPs;
        lle_X__Z16vstorea_half_rtndmPs;
        lle_X__Z17vstorea_half2_rtnDv2_dmPs;
        lle_X__Z17vstorea_half3_rtnDv3_dmPs;
        lle_X__Z17vstorea_half4_rtnDv4_dmPs;
        lle_X__Z17vstorea_half8_rtnDv8_dmPs;
        lle_X__Z18vstorea_half16_rtnDv16_dmPs;
        lle_X__Z7vstore2Dv2_cmPU3AS1c;
        lle_X__Z7vstore2Dv2_hmPU3AS1h;
        lle_X__Z7vstore2Dv2_smPU3AS1s;
        lle_X__Z7vstore2Dv2_tmPU3AS1t;
        lle_X__Z7vstore2Dv2_imPU3AS1i;
        lle_X__Z7vstore2Dv2_jmPU3AS1j;
        lle_X__Z7vstore2Dv2_lmPU3AS1l;
        lle_X__Z7vstore2Dv2_mmPU3AS1m;
        lle_X__Z7vstore2Dv2_fmPU3AS1f;
        lle_X__Z7vstore3Dv3_cmPU3AS1c;
        lle_X__Z7vstore3Dv3_hmPU3AS1h;
        lle_X__Z7vstore3Dv3_smPU3AS1s;
        lle_X__Z7vstore3Dv3_tmPU3AS1t;
        lle_X__Z7vstore3Dv3_imPU3AS1i;
        lle_X__Z7vstore3Dv3_jmPU3AS1j;
        lle_X__Z7vstore3Dv3_lmPU3AS1l;
        lle_X__Z7vstore3Dv3_mmPU3AS1m;
        lle_X__Z7vstore3Dv3_fmPU3AS1f;
        lle_X__Z7vstore4Dv4_cmPU3AS1c;
        lle_X__Z7vstore4Dv4_hmPU3AS1h;
        lle_X__Z7vstore4Dv4_smPU3AS1s;
        lle_X__Z7vstore4Dv4_tmPU3AS1t;
        lle_X__Z7vstore4Dv4_imPU3AS1i;
        lle_X__Z7vstore4Dv4_jmPU3AS1j;
        lle_X__Z7vstore4Dv4_lmPU3AS1l;
        lle_X__Z7vstore4Dv4_mmPU3AS1m;
        lle_X__Z7vstore4Dv4_fmPU3AS1f;
        lle_X__Z7vstore8Dv8_cmPU3AS1c;
        lle_X__Z7vstore8Dv8_hmPU3AS1h;
        lle_X__Z7vstore8Dv8_smPU3AS1s;
        lle_X__Z7vstore8Dv8_tmPU3AS1t;
        lle_X__Z7vstore8Dv8_imPU3AS1i;
        lle_X__Z7vstore8Dv8_jmPU3AS1j;
        lle_X__Z7vstore8Dv8_lmPU3AS1l;
        lle_X__Z7vstore8Dv8_mmPU3AS1m;
        lle_X__Z7vstore8Dv8_fmPU3AS1f;
        lle_X__Z8vstore16Dv16_cmPU3AS1c;
        lle_X__Z8vstore16Dv16_hmPU3AS1h;
        lle_X__Z8vstore16Dv16_smPU3AS1s;
        lle_X__Z8vstore16Dv16_tmPU3AS1t;
        lle_X__Z8vstore16Dv16_imPU3AS1i;
        lle_X__Z8vstore16Dv16_jmPU3AS1j;
        lle_X__Z8vstore16Dv16_lmPU3AS1l;
        lle_X__Z8vstore16Dv16_mmPU3AS1m;
        lle_X__Z8vstore16Dv16_fmPU3AS1f;
        lle_X__Z7vstore2Dv2_cmPU3AS3c;
        lle_X__Z7vstore2Dv2_hmPU3AS3h;
        lle_X__Z7vstore2Dv2_smPU3AS3s;
        lle_X__Z7vstore2Dv2_tmPU3AS3t;
        lle_X__Z7vstore2Dv2_imPU3AS3i;
        lle_X__Z7vstore2Dv2_jmPU3AS3j;
        lle_X__Z7vstore2Dv2_lmPU3AS3l;
        lle_X__Z7vstore2Dv2_mmPU3AS3m;
        lle_X__Z7vstore2Dv2_fmPU3AS3f;
        lle_X__Z7vstore3Dv3_cmPU3AS3c;
        lle_X__Z7vstore3Dv3_hmPU3AS3h;
        lle_X__Z7vstore3Dv3_smPU3AS3s;
        lle_X__Z7vstore3Dv3_tmPU3AS3t;
        lle_X__Z7vstore3Dv3_imPU3AS3i;
        lle_X__Z7vstore3Dv3_jmPU3AS3j;
        lle_X__Z7vstore3Dv3_lmPU3AS3l;
        lle_X__Z7vstore3Dv3_mmPU3AS3m;
        lle_X__Z7vstore3Dv3_fmPU3AS3f;
        lle_X__Z7vstore4Dv4_cmPU3AS3c;
        lle_X__Z7vstore4Dv4_hmPU3AS3h;
        lle_X__Z7vstore4Dv4_smPU3AS3s;
        lle_X__Z7vstore4Dv4_tmPU3AS3t;
        lle_X__Z7vstore4Dv4_imPU3AS3i;
        lle_X__Z7vstore4Dv4_jmPU3AS3j;
        lle_X__Z7vstore4Dv4_lmPU3AS3l;
        lle_X__Z7vstore4Dv4_mmPU3AS3m;
        lle_X__Z7vstore4Dv4_fmPU3AS3f;
        lle_X__Z7vstore8Dv8_cmPU3AS3c;
        lle_X__Z7vstore8Dv8_hmPU3AS3h;
        lle_X__Z7vstore8Dv8_smPU3AS3s;
        lle_X__Z7vstore8Dv8_tmPU3AS3t;
        lle_X__Z7vstore8Dv8_imPU3AS3i;
        lle_X__Z7vstore8Dv8_jmPU3AS3j;
        lle_X__Z7vstore8Dv8_lmPU3AS3l;
        lle_X__Z7vstore8Dv8_mmPU3AS3m;
        lle_X__Z7vstore8Dv8_fmPU3AS3f;
        lle_X__Z8vstore16Dv16_cmPU3AS3c;
        lle_X__Z8vstore16Dv16_hmPU3AS3h;
        lle_X__Z8vstore16Dv16_smPU3AS3s;
        lle_X__Z8vstore16Dv16_tmPU3AS3t;
        lle_X__Z8vstore16Dv16_imPU3AS3i;
        lle_X__Z8vstore16Dv16_jmPU3AS3j;
        lle_X__Z8vstore16Dv16_lmPU3AS3l;
        lle_X__Z8vstore16Dv16_mmPU3AS3m;
        lle_X__Z8vstore16Dv16_fmPU3AS3f;
        lle_X__Z7vstore2Dv2_cmPc;
        lle_X__Z7vstore2Dv2_hmPh;
        lle_X__Z7vstore2Dv2_smPs;
        lle_X__Z7vstore2Dv2_tmPt;
        lle_X__Z7vstore2Dv2_imPi;
        lle_X__Z7vstore2Dv2_jmPj;
        lle_X__Z7vstore2Dv2_lmPl;
        lle_X__Z7vstore2Dv2_mmPm;
        lle_X__Z7vstore2Dv2_fmPf;
        lle_X__Z7vstore3Dv3_cmPc;
        lle_X__Z7vstore3Dv3_hmPh;
        lle_X__Z7vstore3Dv3_smPs;
        lle_X__Z7vstore3Dv3_tmPt;
        lle_X__Z7vstore3Dv3_imPi;
        lle_X__Z7vstore3Dv3_jmPj;
        lle_X__Z7vstore3Dv3_lmPl;
        lle_X__Z7vstore3Dv3_mmPm;
        lle_X__Z7vstore3Dv3_fmPf;
        lle_X__Z7vstore4Dv4_cmPc;
        lle_X__Z7vstore4Dv4_hmPh;
        lle_X__Z7vstore4Dv4_smPs;
        lle_X__Z7vstore4Dv4_tmPt;
        lle_X__Z7vstore4Dv4_imPi;
        lle_X__Z7vstore4Dv4_jmPj;
        lle_X__Z7vstore4Dv4_lmPl;
        lle_X__Z7vstore4Dv4_mmPm;
        lle_X__Z7vstore4Dv4_fmPf;
        lle_X__Z7vstore8Dv8_cmPc;
        lle_X__Z7vstore8Dv8_hmPh;
        lle_X__Z7vstore8Dv8_smPs;
        lle_X__Z7vstore8Dv8_tmPt;
        lle_X__Z7vstore8Dv8_imPi;
        lle_X__Z7vstore8Dv8_jmPj;
        lle_X__Z7vstore8Dv8_lmPl;
        lle_X__Z7vstore8Dv8_mmPm;
        lle_X__Z7vstore8Dv8_fmPf;
        lle_X__Z8vstore16Dv16_cmPc;
        lle_X__Z8vstore16Dv16_hmPh;
        lle_X__Z8vstore16Dv16_smPs;
        lle_X__Z8vstore16Dv16_tmPt;
        lle_X__Z8vstore16Dv16_imPi;
        lle_X__Z8vstore16Dv16_jmPj;
        lle_X__Z8vstore16Dv16_lmPl;
        lle_X__Z8vstore16Dv16_mmPm;
        lle_X__Z8vstore16Dv16_fmPf;
        lle_X__Z7vstore2Dv2_dmPU3AS1d;
        lle_X__Z7vstore3Dv3_dmPU3AS1d;
        lle_X__Z7vstore4Dv4_dmPU3AS1d;
        lle_X__Z7vstore8Dv8_dmPU3AS1d;
        lle_X__Z8vstore16Dv16_dmPU3AS1d;
        lle_X__Z7vstore2Dv2_dmPU3AS3d;
        lle_X__Z7vstore3Dv3_dmPU3AS3d;
        lle_X__Z7vstore4Dv4_dmPU3AS3d;
        lle_X__Z7vstore8Dv8_dmPU3AS3d;
        lle_X__Z8vstore16Dv16_dmPU3AS3d;
        lle_X__Z7vstore2Dv2_dmPd;
        lle_X__Z7vstore3Dv3_dmPd;
        lle_X__Z7vstore4Dv4_dmPd;
        lle_X__Z7vstore8Dv8_dmPd;
        lle_X__Z8vstore16Dv16_dmPd;
        lle_X_get_work_dim;
        lle_X_get_global_size;
        lle_X_get_global_id;
        lle_X_get_local_size;
        lle_X_get_local_id;
        lle_X_get_num_groups;
        lle_X_get_group_id;
        lle_X_get_global_offset;

    local:
        *; 
};
